C000  4C F5 C5  JMP A:00 X:00 Y:00 P:24 SP:FD PPU:  0
C5F5  A2 00     LDX A:00 X:00 Y:00 P:24 SP:FD PPU:  9
C5F7  86 00     STX A:00 X:00 Y:00 P:26 SP:FD PPU: 15
C5F9  86 10     STX A:00 X:00 Y:00 P:26 SP:FD PPU: 24
C5FB  86 11     STX A:00 X:00 Y:00 P:26 SP:FD PPU: 33
C5FD  20 2D C7  JSR A:00 X:00 Y:00 P:26 SP:FD PPU: 42
C72D  EA        NOP A:00 X:00 Y:00 P:26 SP:FB PPU: 60
C72E  38        SEC A:00 X:00 Y:00 P:26 SP:FB PPU: 66
C72F  B0 04     BCS A:00 X:00 Y:00 P:27 SP:FB PPU: 72
C735  EA        NOP A:00 X:00 Y:00 P:27 SP:FB PPU: 81
C736  18        CLC A:00 X:00 Y:00 P:27 SP:FB PPU: 87
C737  B0 03     BCS A:00 X:00 Y:00 P:26 SP:FB PPU: 93
C739  4C 40 C7  JMP A:00 X:00 Y:00 P:26 SP:FB PPU: 99
C740  EA        NOP A:00 X:00 Y:00 P:26 SP:FB PPU:108
C741  38        SEC A:00 X:00 Y:00 P:26 SP:FB PPU:114
C742  90 03     BCC A:00 X:00 Y:00 P:27 SP:FB PPU:120
C744  4C 4B C7  JMP A:00 X:00 Y:00 P:27 SP:FB PPU:126
C74B  EA        NOP A:00 X:00 Y:00 P:27 SP:FB PPU:135
C74C  18        CLC A:00 X:00 Y:00 P:27 SP:FB PPU:141
C74D  90 04     BCC A:00 X:00 Y:00 P:26 SP:FB PPU:147
C753  EA        NOP A:00 X:00 Y:00 P:26 SP:FB PPU:156
C754  A9 00     LDA A:00 X:00 Y:00 P:26 SP:FB PPU:162
C756  F0 04     BEQ A:00 X:00 Y:00 P:26 SP:FB PPU:168
C75C  EA        NOP A:00 X:00 Y:00 P:26 SP:FB PPU:177
C75D  A9 40     LDA A:00 X:00 Y:00 P:26 SP:FB PPU:183
C75F  F0 03     BEQ A:40 X:00 Y:00 P:24 SP:FB PPU:189
C761  4C 68 C7  JMP A:40 X:00 Y:00 P:24 SP:FB PPU:195
C768  EA        NOP A:40 X:00 Y:00 P:24 SP:FB PPU:204
C769  A9 40     LDA A:40 X:00 Y:00 P:24 SP:FB PPU:210
C76B  D0 04     BNE A:40 X:00 Y:00 P:24 SP:FB PPU:216
C771  EA        NOP A:40 X:00 Y:00 P:24 SP:FB PPU:225
C772  A9 00     LDA A:40 X:00 Y:00 P:24 SP:FB PPU:231
C774  D0 03     BNE A:00 X:00 Y:00 P:26 SP:FB PPU:237
C776  4C 7D C7  JMP A:00 X:00 Y:00 P:26 SP:FB PPU:243
C77D  EA        NOP A:00 X:00 Y:00 P:26 SP:FB PPU:252
C77E  A9 FF     LDA A:00 X:00 Y:00 P:26 SP:FB PPU:258
C780  85 01     STA A:FF X:00 Y:00 P:A4 SP:FB PPU:264
C782  24 01     BIT A:FF X:00 Y:00 P:A4 SP:FB PPU:273
C784  70 04     BVS A:FF X:00 Y:00 P:E4 SP:FB PPU:282
C78A  EA        NOP A:FF X:00 Y:00 P:E4 SP:FB PPU:291
C78B  24 01     BIT A:FF X:00 Y:00 P:E4 SP:FB PPU:297
C78D  50 03     BVC A:FF X:00 Y:00 P:E4 SP:FB PPU:306
C78F  4C 96 C7  JMP A:FF X:00 Y:00 P:E4 SP:FB PPU:312
C796  EA        NOP A:FF X:00 Y:00 P:E4 SP:FB PPU:321
C797  A9 00     LDA A:FF X:00 Y:00 P:E4 SP:FB PPU:327
C799  85 01     STA A:00 X:00 Y:00 P:66 SP:FB PPU:333
C79B  24 01     BIT A:00 X:00 Y:00 P:66 SP:FB PPU:  1
C79D  50 04     BVC A:00 X:00 Y:00 P:26 SP:FB PPU: 10
C7A3  EA        NOP A:00 X:00 Y:00 P:26 SP:FB PPU: 19
C7A4  24 01     BIT A:00 X:00 Y:00 P:26 SP:FB PPU: 25
C7A6  70 03     BVS A:00 X:00 Y:00 P:26 SP:FB PPU: 34
C7A8  4C AF C7  JMP A:00 X:00 Y:00 P:26 SP:FB PPU: 40
C7AF  EA        NOP A:00 X:00 Y:00 P:26 SP:FB PPU: 49
C7B0  A9 00     LDA A:00 X:00 Y:00 P:26 SP:FB PPU: 55
C7B2  10 04     BPL A:00 X:00 Y:00 P:26 SP:FB PPU: 61
C7B8  EA        NOP A:00 X:00 Y:00 P:26 SP:FB PPU: 70
C7B9  A9 80     LDA A:00 X:00 Y:00 P:26 SP:FB PPU: 76
C7BB  10 03     BPL A:80 X:00 Y:00 P:A4 SP:FB PPU: 82
C7BD  4C D9 C7  JMP A:80 X:00 Y:00 P:A4 SP:FB PPU: 88
C7D9  EA        NOP A:80 X:00 Y:00 P:A4 SP:FB PPU: 97
C7DA  60        RTS A:80 X:00 Y:00 P:A4 SP:FB PPU:103
C600  20 DB C7  JSR A:80 X:00 Y:00 P:A4 SP:FD PPU:121
C7DB  EA        NOP A:80 X:00 Y:00 P:A4 SP:FB PPU:139
C7DC  A9 FF     LDA A:80 X:00 Y:00 P:A4 SP:FB PPU:145
C7DE  85 01     STA A:FF X:00 Y:00 P:A4 SP:FB PPU:151
C7E0  24 01     BIT A:FF X:00 Y:00 P:A4 SP:FB PPU:160
C7E2  A9 00     LDA A:FF X:00 Y:00 P:E4 SP:FB PPU:169
C7E4  38        SEC A:00 X:00 Y:00 P:66 SP:FB PPU:175
C7E5  78        SEI A:00 X:00 Y:00 P:67 SP:FB PPU:181
C7E6  F8        SED A:00 X:00 Y:00 P:67 SP:FB PPU:187
C7E7  08        PHP A:00 X:00 Y:00 P:6F SP:FB PPU:193
C7E8  68        PLA A:00 X:00 Y:00 P:6F SP:FA PPU:202
C7E9  29 EF     AND A:7F X:00 Y:00 P:6D SP:FB PPU:214
C7EB  C9 6F     CMP A:6F X:00 Y:00 P:6D SP:FB PPU:220
C7ED  F0 04     BEQ A:6F X:00 Y:00 P:6F SP:FB PPU:226
C7F3  EA        NOP A:6F X:00 Y:00 P:6F SP:FB PPU:235
C7F4  A9 40     LDA A:6F X:00 Y:00 P:6F SP:FB PPU:241
C7F6  85 01     STA A:40 X:00 Y:00 P:6D SP:FB PPU:247
C7F8  24 01     BIT A:40 X:00 Y:00 P:6D SP:FB PPU:256
C7FA  D8        CLD A:40 X:00 Y:00 P:6D SP:FB PPU:265
C7FB  A9 10     LDA A:40 X:00 Y:00 P:65 SP:FB PPU:271
C7FD  18        CLC A:10 X:00 Y:00 P:65 SP:FB PPU:277
C7FE  08        PHP A:10 X:00 Y:00 P:64 SP:FB PPU:283
C7FF  68        PLA A:10 X:00 Y:00 P:64 SP:FA PPU:292
C800  29 EF     AND A:74 X:00 Y:00 P:64 SP:FB PPU:304
C802  C9 64     CMP A:64 X:00 Y:00 P:64 SP:FB PPU:310
C804  F0 04     BEQ A:64 X:00 Y:00 P:67 SP:FB PPU:316
C80A  EA        NOP A:64 X:00 Y:00 P:67 SP:FB PPU:325
C80B  A9 80     LDA A:64 X:00 Y:00 P:67 SP:FB PPU:331
C80D  85 01     STA A:80 X:00 Y:00 P:E5 SP:FB PPU:337
C80F  24 01     BIT A:80 X:00 Y:00 P:E5 SP:FB PPU:  5
C811  F8        SED A:80 X:00 Y:00 P:A5 SP:FB PPU: 14
C812  A9 00     LDA A:80 X:00 Y:00 P:AD SP:FB PPU: 20
C814  38        SEC A:00 X:00 Y:00 P:2F SP:FB PPU: 26
C815  08        PHP A:00 X:00 Y:00 P:2F SP:FB PPU: 32
C816  68        PLA A:00 X:00 Y:00 P:2F SP:FA PPU: 41
C817  29 EF     AND A:3F X:00 Y:00 P:2D SP:FB PPU: 53
C819  C9 2F     CMP A:2F X:00 Y:00 P:2D SP:FB PPU: 59
C81B  F0 04     BEQ A:2F X:00 Y:00 P:2F SP:FB PPU: 65
C821  EA        NOP A:2F X:00 Y:00 P:2F SP:FB PPU: 74
C822  A9 FF     LDA A:2F X:00 Y:00 P:2F SP:FB PPU: 80
C824  48        PHA A:FF X:00 Y:00 P:AD SP:FB PPU: 86
C825  28        PLP A:FF X:00 Y:00 P:AD SP:FA PPU: 95
C826  D0 09     BNE A:FF X:00 Y:00 P:EF SP:FB PPU:107
C828  10 07     BPL A:FF X:00 Y:00 P:EF SP:FB PPU:113
C82A  50 05     BVC A:FF X:00 Y:00 P:EF SP:FB PPU:119
C82C  90 03     BCC A:FF X:00 Y:00 P:EF SP:FB PPU:125
C82E  4C 35 C8  JMP A:FF X:00 Y:00 P:EF SP:FB PPU:131
C835  EA        NOP A:FF X:00 Y:00 P:EF SP:FB PPU:140
C836  A9 04     LDA A:FF X:00 Y:00 P:EF SP:FB PPU:146
C838  48        PHA A:04 X:00 Y:00 P:6D SP:FB PPU:152
C839  28        PLP A:04 X:00 Y:00 P:6D SP:FA PPU:161
C83A  F0 09     BEQ A:04 X:00 Y:00 P:24 SP:FB PPU:173
C83C  30 07     BMI A:04 X:00 Y:00 P:24 SP:FB PPU:179
C83E  70 05     BVS A:04 X:00 Y:00 P:24 SP:FB PPU:185
C840  B0 03     BCS A:04 X:00 Y:00 P:24 SP:FB PPU:191
C842  4C 49 C8  JMP A:04 X:00 Y:00 P:24 SP:FB PPU:197
C849  EA        NOP A:04 X:00 Y:00 P:24 SP:FB PPU:206
C84A  F8        SED A:04 X:00 Y:00 P:24 SP:FB PPU:212
C84B  A9 FF     LDA A:04 X:00 Y:00 P:2C SP:FB PPU:218
C84D  85 01     STA A:FF X:00 Y:00 P:AC SP:FB PPU:224
C84F  24 01     BIT A:FF X:00 Y:00 P:AC SP:FB PPU:233
C851  18        CLC A:FF X:00 Y:00 P:EC SP:FB PPU:242
C852  A9 00     LDA A:FF X:00 Y:00 P:EC SP:FB PPU:248
C854  48        PHA A:00 X:00 Y:00 P:6E SP:FB PPU:254
C855  A9 FF     LDA A:00 X:00 Y:00 P:6E SP:FA PPU:263
C857  68        PLA A:FF X:00 Y:00 P:EC SP:FA PPU:269
C858  D0 09     BNE A:00 X:00 Y:00 P:6E SP:FB PPU:281
C85A  30 07     BMI A:00 X:00 Y:00 P:6E SP:FB PPU:287
C85C  50 05     BVC A:00 X:00 Y:00 P:6E SP:FB PPU:293
C85E  B0 03     BCS A:00 X:00 Y:00 P:6E SP:FB PPU:299
C860  4C 67 C8  JMP A:00 X:00 Y:00 P:6E SP:FB PPU:305
C867  EA        NOP A:00 X:00 Y:00 P:6E SP:FB PPU:314
C868  A9 00     LDA A:00 X:00 Y:00 P:6E SP:FB PPU:320
C86A  85 01     STA A:00 X:00 Y:00 P:6E SP:FB PPU:326
C86C  24 01     BIT A:00 X:00 Y:00 P:6E SP:FB PPU:335
C86E  38        SEC A:00 X:00 Y:00 P:2E SP:FB PPU:  3
C86F  A9 FF     LDA A:00 X:00 Y:00 P:2F SP:FB PPU:  9
C871  48        PHA A:FF X:00 Y:00 P:AD SP:FB PPU: 15
C872  A9 00     LDA A:FF X:00 Y:00 P:AD SP:FA PPU: 24
C874  68        PLA A:00 X:00 Y:00 P:2F SP:FA PPU: 30
C875  F0 09     BEQ A:FF X:00 Y:00 P:AD SP:FB PPU: 42
C877  10 07     BPL A:FF X:00 Y:00 P:AD SP:FB PPU: 48
C879  70 05     BVS A:FF X:00 Y:00 P:AD SP:FB PPU: 54
C87B  90 03     BCC A:FF X:00 Y:00 P:AD SP:FB PPU: 60
C87D  4C 84 C8  JMP A:FF X:00 Y:00 P:AD SP:FB PPU: 66
C884  60        RTS A:FF X:00 Y:00 P:AD SP:FB PPU: 75
C603  20 85 C8  JSR A:FF X:00 Y:00 P:AD SP:FD PPU: 93
C885  EA        NOP A:FF X:00 Y:00 P:AD SP:FB PPU:111
C886  18        CLC A:FF X:00 Y:00 P:AD SP:FB PPU:117
C887  A9 FF     LDA A:FF X:00 Y:00 P:AC SP:FB PPU:123
C889  85 01     STA A:FF X:00 Y:00 P:AC SP:FB PPU:129
C88B  24 01     BIT A:FF X:00 Y:00 P:AC SP:FB PPU:138
C88D  A9 55     LDA A:FF X:00 Y:00 P:EC SP:FB PPU:147
C88F  09 AA     ORA A:55 X:00 Y:00 P:6C SP:FB PPU:153
C891  B0 0B     BCS A:FF X:00 Y:00 P:EC SP:FB PPU:159
C893  10 09     BPL A:FF X:00 Y:00 P:EC SP:FB PPU:165
C895  C9 FF     CMP A:FF X:00 Y:00 P:EC SP:FB PPU:171
C897  D0 05     BNE A:FF X:00 Y:00 P:6F SP:FB PPU:177
C899  50 03     BVC A:FF X:00 Y:00 P:6F SP:FB PPU:183
C89B  4C A2 C8  JMP A:FF X:00 Y:00 P:6F SP:FB PPU:189
C8A2  EA        NOP A:FF X:00 Y:00 P:6F SP:FB PPU:198
C8A3  38        SEC A:FF X:00 Y:00 P:6F SP:FB PPU:204
C8A4  B8        CLV A:FF X:00 Y:00 P:6F SP:FB PPU:210
C8A5  A9 00     LDA A:FF X:00 Y:00 P:2F SP:FB PPU:216
C8A7  09 00     ORA A:00 X:00 Y:00 P:2F SP:FB PPU:222
C8A9  D0 09     BNE A:00 X:00 Y:00 P:2F SP:FB PPU:228
C8AB  70 07     BVS A:00 X:00 Y:00 P:2F SP:FB PPU:234
C8AD  90 05     BCC A:00 X:00 Y:00 P:2F SP:FB PPU:240
C8AF  30 03     BMI A:00 X:00 Y:00 P:2F SP:FB PPU:246
C8B1  4C B8 C8  JMP A:00 X:00 Y:00 P:2F SP:FB PPU:252
C8B8  EA        NOP A:00 X:00 Y:00 P:2F SP:FB PPU:261
C8B9  18        CLC A:00 X:00 Y:00 P:2F SP:FB PPU:267
C8BA  24 01     BIT A:00 X:00 Y:00 P:2E SP:FB PPU:273
C8BC  A9 55     LDA A:00 X:00 Y:00 P:EE SP:FB PPU:282
C8BE  29 AA     AND A:55 X:00 Y:00 P:6C SP:FB PPU:288
C8C0  D0 09     BNE A:00 X:00 Y:00 P:6E SP:FB PPU:294
C8C2  50 07     BVC A:00 X:00 Y:00 P:6E SP:FB PPU:300
C8C4  B0 05     BCS A:00 X:00 Y:00 P:6E SP:FB PPU:306
C8C6  30 03     BMI A:00 X:00 Y:00 P:6E SP:FB PPU:312
C8C8  4C CF C8  JMP A:00 X:00 Y:00 P:6E SP:FB PPU:318
C8CF  EA        NOP A:00 X:00 Y:00 P:6E SP:FB PPU:327
C8D0  38        SEC A:00 X:00 Y:00 P:6E SP:FB PPU:333
C8D1  B8        CLV A:00 X:00 Y:00 P:6F SP:FB PPU:339
C8D2  A9 F8     LDA A:00 X:00 Y:00 P:2F SP:FB PPU:  4
C8D4  29 EF     AND A:F8 X:00 Y:00 P:AD SP:FB PPU: 10
C8D6  90 0B     BCC A:E8 X:00 Y:00 P:AD SP:FB PPU: 16
C8D8  10 09     BPL A:E8 X:00 Y:00 P:AD SP:FB PPU: 22
C8DA  C9 E8     CMP A:E8 X:00 Y:00 P:AD SP:FB PPU: 28
C8DC  D0 05     BNE A:E8 X:00 Y:00 P:2F SP:FB PPU: 34
C8DE  70 03     BVS A:E8 X:00 Y:00 P:2F SP:FB PPU: 40
C8E0  4C E7 C8  JMP A:E8 X:00 Y:00 P:2F SP:FB PPU: 46
C8E7  EA        NOP A:E8 X:00 Y:00 P:2F SP:FB PPU: 55
C8E8  18        CLC A:E8 X:00 Y:00 P:2F SP:FB PPU: 61
C8E9  24 01     BIT A:E8 X:00 Y:00 P:2E SP:FB PPU: 67
C8EB  A9 5F     LDA A:E8 X:00 Y:00 P:EC SP:FB PPU: 76
C8ED  49 AA     EOR A:5F X:00 Y:00 P:6C SP:FB PPU: 82
C8EF  B0 0B     BCS A:F5 X:00 Y:00 P:EC SP:FB PPU: 88
C8F1  10 09     BPL A:F5 X:00 Y:00 P:EC SP:FB PPU: 94
C8F3  C9 F5     CMP A:F5 X:00 Y:00 P:EC SP:FB PPU:100
C8F5  D0 05     BNE A:F5 X:00 Y:00 P:6F SP:FB PPU:106
C8F7  50 03     BVC A:F5 X:00 Y:00 P:6F SP:FB PPU:112
C8F9  4C 00 C9  JMP A:F5 X:00 Y:00 P:6F SP:FB PPU:118
C900  EA        NOP A:F5 X:00 Y:00 P:6F SP:FB PPU:127
C901  38        SEC A:F5 X:00 Y:00 P:6F SP:FB PPU:133
C902  B8        CLV A:F5 X:00 Y:00 P:6F SP:FB PPU:139
C903  A9 70     LDA A:F5 X:00 Y:00 P:2F SP:FB PPU:145
C905  49 70     EOR A:70 X:00 Y:00 P:2D SP:FB PPU:151
C907  D0 09     BNE A:00 X:00 Y:00 P:2F SP:FB PPU:157
C909  70 07     BVS A:00 X:00 Y:00 P:2F SP:FB PPU:163
C90B  90 05     BCC A:00 X:00 Y:00 P:2F SP:FB PPU:169
C90D  30 03     BMI A:00 X:00 Y:00 P:2F SP:FB PPU:175
C90F  4C 16 C9  JMP A:00 X:00 Y:00 P:2F SP:FB PPU:181
C916  EA        NOP A:00 X:00 Y:00 P:2F SP:FB PPU:190
C917  18        CLC A:00 X:00 Y:00 P:2F SP:FB PPU:196
C918  24 01     BIT A:00 X:00 Y:00 P:2E SP:FB PPU:202
C91A  A9 00     LDA A:00 X:00 Y:00 P:EE SP:FB PPU:211
C91C  69 69     ADC A:00 X:00 Y:00 P:6E SP:FB PPU:217
C91E  30 0B     BMI A:69 X:00 Y:00 P:2C SP:FB PPU:223
C920  B0 09     BCS A:69 X:00 Y:00 P:2C SP:FB PPU:229
C922  C9 69     CMP A:69 X:00 Y:00 P:2C SP:FB PPU:235
C924  D0 05     BNE A:69 X:00 Y:00 P:2F SP:FB PPU:241
C926  70 03     BVS A:69 X:00 Y:00 P:2F SP:FB PPU:247
C928  4C 2F C9  JMP A:69 X:00 Y:00 P:2F SP:FB PPU:253
C92F  EA        NOP A:69 X:00 Y:00 P:2F SP:FB PPU:262
C930  38        SEC A:69 X:00 Y:00 P:2F SP:FB PPU:268
C931  F8        SED A:69 X:00 Y:00 P:2F SP:FB PPU:274
C932  24 01     BIT A:69 X:00 Y:00 P:2F SP:FB PPU:280
C934  A9 01     LDA A:69 X:00 Y:00 P:ED SP:FB PPU:289
C936  69 69     ADC A:01 X:00 Y:00 P:6D SP:FB PPU:295
C938  30 0B     BMI A:6B X:00 Y:00 P:2C SP:FB PPU:301
C93A  B0 09     BCS A:6B X:00 Y:00 P:2C SP:FB PPU:307
C93C  C9 6B     CMP A:6B X:00 Y:00 P:2C SP:FB PPU:313
C93E  D0 05     BNE A:6B X:00 Y:00 P:2F SP:FB PPU:319
C940  70 03     BVS A:6B X:00 Y:00 P:2F SP:FB PPU:325
C942  4C 49 C9  JMP A:6B X:00 Y:00 P:2F SP:FB PPU:331
C949  EA        NOP A:6B X:00 Y:00 P:2F SP:FB PPU:340
C94A  D8        CLD A:6B X:00 Y:00 P:2F SP:FB PPU:  5
C94B  38        SEC A:6B X:00 Y:00 P:27 SP:FB PPU: 11
C94C  B8        CLV A:6B X:00 Y:00 P:27 SP:FB PPU: 17
C94D  A9 7F     LDA A:6B X:00 Y:00 P:27 SP:FB PPU: 23
C94F  69 7F     ADC A:7F X:00 Y:00 P:25 SP:FB PPU: 29
C951  10 0B     BPL A:FF X:00 Y:00 P:E4 SP:FB PPU: 35
C953  B0 09     BCS A:FF X:00 Y:00 P:E4 SP:FB PPU: 41
C955  C9 FF     CMP A:FF X:00 Y:00 P:E4 SP:FB PPU: 47
C957  D0 05     BNE A:FF X:00 Y:00 P:67 SP:FB PPU: 53
C959  50 03     BVC A:FF X:00 Y:00 P:67 SP:FB PPU: 59
C95B  4C 62 C9  JMP A:FF X:00 Y:00 P:67 SP:FB PPU: 65
C962  EA        NOP A:FF X:00 Y:00 P:67 SP:FB PPU: 74
C963  18        CLC A:FF X:00 Y:00 P:67 SP:FB PPU: 80
C964  24 01     BIT A:FF X:00 Y:00 P:66 SP:FB PPU: 86
C966  A9 7F     LDA A:FF X:00 Y:00 P:E4 SP:FB PPU: 95
C968  69 80     ADC A:7F X:00 Y:00 P:64 SP:FB PPU:101
C96A  10 0B     BPL A:FF X:00 Y:00 P:A4 SP:FB PPU:107
C96C  B0 09     BCS A:FF X:00 Y:00 P:A4 SP:FB PPU:113
C96E  C9 FF     CMP A:FF X:00 Y:00 P:A4 SP:FB PPU:119
C970  D0 05     BNE A:FF X:00 Y:00 P:27 SP:FB PPU:125
C972  70 03     BVS A:FF X:00 Y:00 P:27 SP:FB PPU:131
C974  4C 7B C9  JMP A:FF X:00 Y:00 P:27 SP:FB PPU:137
C97B  EA        NOP A:FF X:00 Y:00 P:27 SP:FB PPU:146
C97C  38        SEC A:FF X:00 Y:00 P:27 SP:FB PPU:152
C97D  B8        CLV A:FF X:00 Y:00 P:27 SP:FB PPU:158
C97E  A9 7F     LDA A:FF X:00 Y:00 P:27 SP:FB PPU:164
C980  69 80     ADC A:7F X:00 Y:00 P:25 SP:FB PPU:170
C982  D0 09     BNE A:00 X:00 Y:00 P:27 SP:FB PPU:176
C984  30 07     BMI A:00 X:00 Y:00 P:27 SP:FB PPU:182
C986  70 05     BVS A:00 X:00 Y:00 P:27 SP:FB PPU:188
C988  90 03     BCC A:00 X:00 Y:00 P:27 SP:FB PPU:194
C98A  4C 91 C9  JMP A:00 X:00 Y:00 P:27 SP:FB PPU:200
C991  EA        NOP A:00 X:00 Y:00 P:27 SP:FB PPU:209
C992  38        SEC A:00 X:00 Y:00 P:27 SP:FB PPU:215
C993  B8        CLV A:00 X:00 Y:00 P:27 SP:FB PPU:221
C994  A9 9F     LDA A:00 X:00 Y:00 P:27 SP:FB PPU:227
C996  F0 09     BEQ A:9F X:00 Y:00 P:A5 SP:FB PPU:233
C998  10 07     BPL A:9F X:00 Y:00 P:A5 SP:FB PPU:239
C99A  70 05     BVS A:9F X:00 Y:00 P:A5 SP:FB PPU:245
C99C  90 03     BCC A:9F X:00 Y:00 P:A5 SP:FB PPU:251
C99E  4C A5 C9  JMP A:9F X:00 Y:00 P:A5 SP:FB PPU:257
C9A5  EA        NOP A:9F X:00 Y:00 P:A5 SP:FB PPU:266
C9A6  18        CLC A:9F X:00 Y:00 P:A5 SP:FB PPU:272
C9A7  24 01     BIT A:9F X:00 Y:00 P:A4 SP:FB PPU:278
C9A9  A9 00     LDA A:9F X:00 Y:00 P:E4 SP:FB PPU:287
C9AB  D0 09     BNE A:00 X:00 Y:00 P:66 SP:FB PPU:293
C9AD  30 07     BMI A:00 X:00 Y:00 P:66 SP:FB PPU:299
C9AF  50 05     BVC A:00 X:00 Y:00 P:66 SP:FB PPU:305
C9B1  B0 03     BCS A:00 X:00 Y:00 P:66 SP:FB PPU:311
C9B3  4C BA C9  JMP A:00 X:00 Y:00 P:66 SP:FB PPU:317
C9BA  EA        NOP A:00 X:00 Y:00 P:66 SP:FB PPU:326
C9BB  24 01     BIT A:00 X:00 Y:00 P:66 SP:FB PPU:332
C9BD  A9 40     LDA A:00 X:00 Y:00 P:E6 SP:FB PPU:  0
C9BF  C9 40     CMP A:40 X:00 Y:00 P:64 SP:FB PPU:  6
C9C1  30 09     BMI A:40 X:00 Y:00 P:67 SP:FB PPU: 12
C9C3  90 07     BCC A:40 X:00 Y:00 P:67 SP:FB PPU: 18
C9C5  D0 05     BNE A:40 X:00 Y:00 P:67 SP:FB PPU: 24
C9C7  50 03     BVC A:40 X:00 Y:00 P:67 SP:FB PPU: 30
C9C9  4C D0 C9  JMP A:40 X:00 Y:00 P:67 SP:FB PPU: 36
C9D0  EA        NOP A:40 X:00 Y:00 P:67 SP:FB PPU: 45
C9D1  B8        CLV A:40 X:00 Y:00 P:67 SP:FB PPU: 51
C9D2  C9 3F     CMP A:40 X:00 Y:00 P:27 SP:FB PPU: 57
C9D4  F0 09     BEQ A:40 X:00 Y:00 P:25 SP:FB PPU: 63
C9D6  30 07     BMI A:40 X:00 Y:00 P:25 SP:FB PPU: 69
C9D8  90 05     BCC A:40 X:00 Y:00 P:25 SP:FB PPU: 75
C9DA  70 03     BVS A:40 X:00 Y:00 P:25 SP:FB PPU: 81
C9DC  4C E3 C9  JMP A:40 X:00 Y:00 P:25 SP:FB PPU: 87
C9E3  EA        NOP A:40 X:00 Y:00 P:25 SP:FB PPU: 96
C9E4  C9 41     CMP A:40 X:00 Y:00 P:25 SP:FB PPU:102
C9E6  F0 07     BEQ A:40 X:00 Y:00 P:A4 SP:FB PPU:108
C9E8  10 05     BPL A:40 X:00 Y:00 P:A4 SP:FB PPU:114
C9EA  10 03     BPL A:40 X:00 Y:00 P:A4 SP:FB PPU:120
C9EC  4C F3 C9  JMP A:40 X:00 Y:00 P:A4 SP:FB PPU:126
C9F3  EA        NOP A:40 X:00 Y:00 P:A4 SP:FB PPU:135
C9F4  A9 80     LDA A:40 X:00 Y:00 P:A4 SP:FB PPU:141
C9F6  C9 00     CMP A:80 X:00 Y:00 P:A4 SP:FB PPU:147
C9F8  F0 07     BEQ A:80 X:00 Y:00 P:A5 SP:FB PPU:153
C9FA  10 05     BPL A:80 X:00 Y:00 P:A5 SP:FB PPU:159
C9FC  90 03     BCC A:80 X:00 Y:00 P:A5 SP:FB PPU:165
C9FE  4C 05 CA  JMP A:80 X:00 Y:00 P:A5 SP:FB PPU:171
CA05  EA        NOP A:80 X:00 Y:00 P:A5 SP:FB PPU:180
CA06  C9 80     CMP A:80 X:00 Y:00 P:A5 SP:FB PPU:186
CA08  D0 07     BNE A:80 X:00 Y:00 P:27 SP:FB PPU:192
CA0A  30 05     BMI A:80 X:00 Y:00 P:27 SP:FB PPU:198
CA0C  90 03     BCC A:80 X:00 Y:00 P:27 SP:FB PPU:204
CA0E  4C 15 CA  JMP A:80 X:00 Y:00 P:27 SP:FB PPU:210
CA15  EA        NOP A:80 X:00 Y:00 P:27 SP:FB PPU:219
CA16  C9 81     CMP A:80 X:00 Y:00 P:27 SP:FB PPU:225
CA18  B0 07     BCS A:80 X:00 Y:00 P:A4 SP:FB PPU:231
CA1A  F0 05     BEQ A:80 X:00 Y:00 P:A4 SP:FB PPU:237
CA1C  10 03     BPL A:80 X:00 Y:00 P:A4 SP:FB PPU:243
CA1E  4C 25 CA  JMP A:80 X:00 Y:00 P:A4 SP:FB PPU:249
CA25  EA        NOP A:80 X:00 Y:00 P:A4 SP:FB PPU:258
CA26  C9 7F     CMP A:80 X:00 Y:00 P:A4 SP:FB PPU:264
CA28  90 07     BCC A:80 X:00 Y:00 P:25 SP:FB PPU:270
CA2A  F0 05     BEQ A:80 X:00 Y:00 P:25 SP:FB PPU:276
CA2C  30 03     BMI A:80 X:00 Y:00 P:25 SP:FB PPU:282
CA2E  4C 35 CA  JMP A:80 X:00 Y:00 P:25 SP:FB PPU:288
CA35  EA        NOP A:80 X:00 Y:00 P:25 SP:FB PPU:297
CA36  24 01     BIT A:80 X:00 Y:00 P:25 SP:FB PPU:303
CA38  A0 40     LDY A:80 X:00 Y:00 P:E5 SP:FB PPU:312
CA3A  C0 40     CPY A:80 X:00 Y:40 P:65 SP:FB PPU:318
CA3C  D0 09     BNE A:80 X:00 Y:40 P:67 SP:FB PPU:324
CA3E  30 07     BMI A:80 X:00 Y:40 P:67 SP:FB PPU:330
CA40  90 05     BCC A:80 X:00 Y:40 P:67 SP:FB PPU:336
CA42  50 03     BVC A:80 X:00 Y:40 P:67 SP:FB PPU:  1
CA44  4C 4B CA  JMP A:80 X:00 Y:40 P:67 SP:FB PPU:  7
CA4B  EA        NOP A:80 X:00 Y:40 P:67 SP:FB PPU: 16
CA4C  B8        CLV A:80 X:00 Y:40 P:67 SP:FB PPU: 22
CA4D  C0 3F     CPY A:80 X:00 Y:40 P:27 SP:FB PPU: 28
CA4F  F0 09     BEQ A:80 X:00 Y:40 P:25 SP:FB PPU: 34
CA51  30 07     BMI A:80 X:00 Y:40 P:25 SP:FB PPU: 40
CA53  90 05     BCC A:80 X:00 Y:40 P:25 SP:FB PPU: 46
CA55  70 03     BVS A:80 X:00 Y:40 P:25 SP:FB PPU: 52
CA57  4C 5E CA  JMP A:80 X:00 Y:40 P:25 SP:FB PPU: 58
CA5E  EA        NOP A:80 X:00 Y:40 P:25 SP:FB PPU: 67
CA5F  C0 41     CPY A:80 X:00 Y:40 P:25 SP:FB PPU: 73
CA61  F0 07     BEQ A:80 X:00 Y:40 P:A4 SP:FB PPU: 79
CA63  10 05     BPL A:80 X:00 Y:40 P:A4 SP:FB PPU: 85
CA65  10 03     BPL A:80 X:00 Y:40 P:A4 SP:FB PPU: 91
CA67  4C 6E CA  JMP A:80 X:00 Y:40 P:A4 SP:FB PPU: 97
CA6E  EA        NOP A:80 X:00 Y:40 P:A4 SP:FB PPU:106
CA6F  A0 80     LDY A:80 X:00 Y:40 P:A4 SP:FB PPU:112
CA71  C0 00     CPY A:80 X:00 Y:80 P:A4 SP:FB PPU:118
CA73  F0 07     BEQ A:80 X:00 Y:80 P:A5 SP:FB PPU:124
CA75  10 05     BPL A:80 X:00 Y:80 P:A5 SP:FB PPU:130
CA77  90 03     BCC A:80 X:00 Y:80 P:A5 SP:FB PPU:136
CA79  4C 80 CA  JMP A:80 X:00 Y:80 P:A5 SP:FB PPU:142
CA80  EA        NOP A:80 X:00 Y:80 P:A5 SP:FB PPU:151
CA81  C0 80     CPY A:80 X:00 Y:80 P:A5 SP:FB PPU:157
CA83  D0 07     BNE A:80 X:00 Y:80 P:27 SP:FB PPU:163
CA85  30 05     BMI A:80 X:00 Y:80 P:27 SP:FB PPU:169
CA87  90 03     BCC A:80 X:00 Y:80 P:27 SP:FB PPU:175
CA89  4C 90 CA  JMP A:80 X:00 Y:80 P:27 SP:FB PPU:181
CA90  EA        NOP A:80 X:00 Y:80 P:27 SP:FB PPU:190
CA91  C0 81     CPY A:80 X:00 Y:80 P:27 SP:FB PPU:196
CA93  B0 07     BCS A:80 X:00 Y:80 P:A4 SP:FB PPU:202
CA95  F0 05     BEQ A:80 X:00 Y:80 P:A4 SP:FB PPU:208
CA97  10 03     BPL A:80 X:00 Y:80 P:A4 SP:FB PPU:214
CA99  4C A0 CA  JMP A:80 X:00 Y:80 P:A4 SP:FB PPU:220
CAA0  EA        NOP A:80 X:00 Y:80 P:A4 SP:FB PPU:229
CAA1  C0 7F     CPY A:80 X:00 Y:80 P:A4 SP:FB PPU:235
CAA3  90 07     BCC A:80 X:00 Y:80 P:25 SP:FB PPU:241
CAA5  F0 05     BEQ A:80 X:00 Y:80 P:25 SP:FB PPU:247
CAA7  30 03     BMI A:80 X:00 Y:80 P:25 SP:FB PPU:253
CAA9  4C B0 CA  JMP A:80 X:00 Y:80 P:25 SP:FB PPU:259
CAB0  EA        NOP A:80 X:00 Y:80 P:25 SP:FB PPU:268
CAB1  24 01     BIT A:80 X:00 Y:80 P:25 SP:FB PPU:274
CAB3  A2 40     LDX A:80 X:00 Y:80 P:E5 SP:FB PPU:283
CAB5  E0 40     CPX A:80 X:40 Y:80 P:65 SP:FB PPU:289
CAB7  D0 09     BNE A:80 X:40 Y:80 P:67 SP:FB PPU:295
CAB9  30 07     BMI A:80 X:40 Y:80 P:67 SP:FB PPU:301
CABB  90 05     BCC A:80 X:40 Y:80 P:67 SP:FB PPU:307
CABD  50 03     BVC A:80 X:40 Y:80 P:67 SP:FB PPU:313
CABF  4C C6 CA  JMP A:80 X:40 Y:80 P:67 SP:FB PPU:319
CAC6  EA        NOP A:80 X:40 Y:80 P:67 SP:FB PPU:328
CAC7  B8        CLV A:80 X:40 Y:80 P:67 SP:FB PPU:334
CAC8  E0 3F     CPX A:80 X:40 Y:80 P:27 SP:FB PPU:340
CACA  F0 09     BEQ A:80 X:40 Y:80 P:25 SP:FB PPU:  5
CACC  30 07     BMI A:80 X:40 Y:80 P:25 SP:FB PPU: 11
CACE  90 05     BCC A:80 X:40 Y:80 P:25 SP:FB PPU: 17
CAD0  70 03     BVS A:80 X:40 Y:80 P:25 SP:FB PPU: 23
CAD2  4C D9 CA  JMP A:80 X:40 Y:80 P:25 SP:FB PPU: 29
CAD9  EA        NOP A:80 X:40 Y:80 P:25 SP:FB PPU: 38
CADA  E0 41     CPX A:80 X:40 Y:80 P:25 SP:FB PPU: 44
CADC  F0 07     BEQ A:80 X:40 Y:80 P:A4 SP:FB PPU: 50
CADE  10 05     BPL A:80 X:40 Y:80 P:A4 SP:FB PPU: 56
CAE0  10 03     BPL A:80 X:40 Y:80 P:A4 SP:FB PPU: 62
CAE2  4C E9 CA  JMP A:80 X:40 Y:80 P:A4 SP:FB PPU: 68
CAE9  EA        NOP A:80 X:40 Y:80 P:A4 SP:FB PPU: 77
CAEA  A2 80     LDX A:80 X:40 Y:80 P:A4 SP:FB PPU: 83
CAEC  E0 00     CPX A:80 X:80 Y:80 P:A4 SP:FB PPU: 89
CAEE  F0 07     BEQ A:80 X:80 Y:80 P:A5 SP:FB PPU: 95
CAF0  10 05     BPL A:80 X:80 Y:80 P:A5 SP:FB PPU:101
CAF2  90 03     BCC A:80 X:80 Y:80 P:A5 SP:FB PPU:107
CAF4  4C FB CA  JMP A:80 X:80 Y:80 P:A5 SP:FB PPU:113
CAFB  EA        NOP A:80 X:80 Y:80 P:A5 SP:FB PPU:122
CAFC  E0 80     CPX A:80 X:80 Y:80 P:A5 SP:FB PPU:128
CAFE  D0 07     BNE A:80 X:80 Y:80 P:27 SP:FB PPU:134
CB00  30 05     BMI A:80 X:80 Y:80 P:27 SP:FB PPU:140
CB02  90 03     BCC A:80 X:80 Y:80 P:27 SP:FB PPU:146
CB04  4C 0B CB  JMP A:80 X:80 Y:80 P:27 SP:FB PPU:152
CB0B  EA        NOP A:80 X:80 Y:80 P:27 SP:FB PPU:161
CB0C  E0 81     CPX A:80 X:80 Y:80 P:27 SP:FB PPU:167
CB0E  B0 07     BCS A:80 X:80 Y:80 P:A4 SP:FB PPU:173
CB10  F0 05     BEQ A:80 X:80 Y:80 P:A4 SP:FB PPU:179
CB12  10 03     BPL A:80 X:80 Y:80 P:A4 SP:FB PPU:185
CB14  4C 1B CB  JMP A:80 X:80 Y:80 P:A4 SP:FB PPU:191
CB1B  EA        NOP A:80 X:80 Y:80 P:A4 SP:FB PPU:200
CB1C  E0 7F     CPX A:80 X:80 Y:80 P:A4 SP:FB PPU:206
CB1E  90 07     BCC A:80 X:80 Y:80 P:25 SP:FB PPU:212
CB20  F0 05     BEQ A:80 X:80 Y:80 P:25 SP:FB PPU:218
CB22  30 03     BMI A:80 X:80 Y:80 P:25 SP:FB PPU:224
CB24  4C 2B CB  JMP A:80 X:80 Y:80 P:25 SP:FB PPU:230
CB2B  EA        NOP A:80 X:80 Y:80 P:25 SP:FB PPU:239
CB2C  38        SEC A:80 X:80 Y:80 P:25 SP:FB PPU:245
CB2D  B8        CLV A:80 X:80 Y:80 P:25 SP:FB PPU:251
CB2E  A2 9F     LDX A:80 X:80 Y:80 P:25 SP:FB PPU:257
CB30  F0 09     BEQ A:80 X:9F Y:80 P:A5 SP:FB PPU:263
CB32  10 07     BPL A:80 X:9F Y:80 P:A5 SP:FB PPU:269
CB34  70 05     BVS A:80 X:9F Y:80 P:A5 SP:FB PPU:275
CB36  90 03     BCC A:80 X:9F Y:80 P:A5 SP:FB PPU:281
CB38  4C 3F CB  JMP A:80 X:9F Y:80 P:A5 SP:FB PPU:287
CB3F  EA        NOP A:80 X:9F Y:80 P:A5 SP:FB PPU:296
CB40  18        CLC A:80 X:9F Y:80 P:A5 SP:FB PPU:302
CB41  24 01     BIT A:80 X:9F Y:80 P:A4 SP:FB PPU:308
CB43  A2 00     LDX A:80 X:9F Y:80 P:E4 SP:FB PPU:317
CB45  D0 09     BNE A:80 X:00 Y:80 P:66 SP:FB PPU:323
CB47  30 07     BMI A:80 X:00 Y:80 P:66 SP:FB PPU:329
CB49  50 05     BVC A:80 X:00 Y:80 P:66 SP:FB PPU:335
CB4B  B0 03     BCS A:80 X:00 Y:80 P:66 SP:FB PPU:  0
CB4D  4C 54 CB  JMP A:80 X:00 Y:80 P:66 SP:FB PPU:  6
CB54  EA        NOP A:80 X:00 Y:80 P:66 SP:FB PPU: 15
CB55  38        SEC A:80 X:00 Y:80 P:66 SP:FB PPU: 21
CB56  B8        CLV A:80 X:00 Y:80 P:67 SP:FB PPU: 27
CB57  A0 9F     LDY A:80 X:00 Y:80 P:27 SP:FB PPU: 33
CB59  F0 09     BEQ A:80 X:00 Y:9F P:A5 SP:FB PPU: 39
CB5B  10 07     BPL A:80 X:00 Y:9F P:A5 SP:FB PPU: 45
CB5D  70 05     BVS A:80 X:00 Y:9F P:A5 SP:FB PPU: 51
CB5F  90 03     BCC A:80 X:00 Y:9F P:A5 SP:FB PPU: 57
CB61  4C 68 CB  JMP A:80 X:00 Y:9F P:A5 SP:FB PPU: 63
CB68  EA        NOP A:80 X:00 Y:9F P:A5 SP:FB PPU: 72
CB69  18        CLC A:80 X:00 Y:9F P:A5 SP:FB PPU: 78
CB6A  24 01     BIT A:80 X:00 Y:9F P:A4 SP:FB PPU: 84
CB6C  A0 00     LDY A:80 X:00 Y:9F P:E4 SP:FB PPU: 93
CB6E  D0 09     BNE A:80 X:00 Y:00 P:66 SP:FB PPU: 99
CB70  30 07     BMI A:80 X:00 Y:00 P:66 SP:FB PPU:105
CB72  50 05     BVC A:80 X:00 Y:00 P:66 SP:FB PPU:111
CB74  B0 03     BCS A:80 X:00 Y:00 P:66 SP:FB PPU:117
CB76  4C 7D CB  JMP A:80 X:00 Y:00 P:66 SP:FB PPU:123
CB7D  EA        NOP A:80 X:00 Y:00 P:66 SP:FB PPU:132
CB7E  A9 55     LDA A:80 X:00 Y:00 P:66 SP:FB PPU:138
CB80  A2 AA     LDX A:55 X:00 Y:00 P:64 SP:FB PPU:144
CB82  A0 33     LDY A:55 X:AA Y:00 P:E4 SP:FB PPU:150
CB84  C9 55     CMP A:55 X:AA Y:33 P:64 SP:FB PPU:156
CB86  D0 23     BNE A:55 X:AA Y:33 P:67 SP:FB PPU:162
CB88  E0 AA     CPX A:55 X:AA Y:33 P:67 SP:FB PPU:168
CB8A  D0 1F     BNE A:55 X:AA Y:33 P:67 SP:FB PPU:174
CB8C  C0 33     CPY A:55 X:AA Y:33 P:67 SP:FB PPU:180
CB8E  D0 1B     BNE A:55 X:AA Y:33 P:67 SP:FB PPU:186
CB90  C9 55     CMP A:55 X:AA Y:33 P:67 SP:FB PPU:192
CB92  D0 17     BNE A:55 X:AA Y:33 P:67 SP:FB PPU:198
CB94  E0 AA     CPX A:55 X:AA Y:33 P:67 SP:FB PPU:204
CB96  D0 13     BNE A:55 X:AA Y:33 P:67 SP:FB PPU:210
CB98  C0 33     CPY A:55 X:AA Y:33 P:67 SP:FB PPU:216
CB9A  D0 0F     BNE A:55 X:AA Y:33 P:67 SP:FB PPU:222
CB9C  C9 56     CMP A:55 X:AA Y:33 P:67 SP:FB PPU:228
CB9E  F0 0B     BEQ A:55 X:AA Y:33 P:E4 SP:FB PPU:234
CBA0  E0 AB     CPX A:55 X:AA Y:33 P:E4 SP:FB PPU:240
CBA2  F0 07     BEQ A:55 X:AA Y:33 P:E4 SP:FB PPU:246
CBA4  C0 34     CPY A:55 X:AA Y:33 P:E4 SP:FB PPU:252
CBA6  F0 03     BEQ A:55 X:AA Y:33 P:E4 SP:FB PPU:258
CBA8  4C AF CB  JMP A:55 X:AA Y:33 P:E4 SP:FB PPU:264
CBAF  A0 71     LDY A:55 X:AA Y:33 P:E4 SP:FB PPU:273
CBB1  20 31 F9  JSR A:55 X:AA Y:71 P:64 SP:FB PPU:279
F931  24 01     BIT A:55 X:AA Y:71 P:64 SP:F9 PPU:297
F933  A9 40     LDA A:55 X:AA Y:71 P:E4 SP:F9 PPU:306
F935  38        SEC A:40 X:AA Y:71 P:64 SP:F9 PPU:312
F936  60        RTS A:40 X:AA Y:71 P:65 SP:F9 PPU:318
CBB4  E9 40     SBC A:40 X:AA Y:71 P:65 SP:FB PPU:336
CBB6  20 37 F9  JSR A:00 X:AA Y:71 P:27 SP:FB PPU:  1
F937  30 0B     BMI A:00 X:AA Y:71 P:27 SP:F9 PPU: 19
F939  90 09     BCC A:00 X:AA Y:71 P:27 SP:F9 PPU: 25
F93B  D0 07     BNE A:00 X:AA Y:71 P:27 SP:F9 PPU: 31
F93D  70 05     BVS A:00 X:AA Y:71 P:27 SP:F9 PPU: 37
F93F  C9 00     CMP A:00 X:AA Y:71 P:27 SP:F9 PPU: 43
F941  D0 01     BNE A:00 X:AA Y:71 P:27 SP:F9 PPU: 49
F943  60        RTS A:00 X:AA Y:71 P:27 SP:F9 PPU: 55
CBB9  C8        INY A:00 X:AA Y:71 P:27 SP:FB PPU: 73
CBBA  20 47 F9  JSR A:00 X:AA Y:72 P:25 SP:FB PPU: 79
F947  B8        CLV A:00 X:AA Y:72 P:25 SP:F9 PPU: 97
F948  38        SEC A:00 X:AA Y:72 P:25 SP:F9 PPU:103
F949  A9 40     LDA A:00 X:AA Y:72 P:25 SP:F9 PPU:109
F94B  60        RTS A:40 X:AA Y:72 P:25 SP:F9 PPU:115
CBBD  E9 3F     SBC A:40 X:AA Y:72 P:25 SP:FB PPU:133
CBBF  20 4C F9  JSR A:01 X:AA Y:72 P:25 SP:FB PPU:139
F94C  F0 0B     BEQ A:01 X:AA Y:72 P:25 SP:F9 PPU:157
F94E  30 09     BMI A:01 X:AA Y:72 P:25 SP:F9 PPU:163
F950  90 07     BCC A:01 X:AA Y:72 P:25 SP:F9 PPU:169
F952  70 05     BVS A:01 X:AA Y:72 P:25 SP:F9 PPU:175
F954  C9 01     CMP A:01 X:AA Y:72 P:25 SP:F9 PPU:181
F956  D0 01     BNE A:01 X:AA Y:72 P:27 SP:F9 PPU:187
F958  60        RTS A:01 X:AA Y:72 P:27 SP:F9 PPU:193
CBC2  C8        INY A:01 X:AA Y:72 P:27 SP:FB PPU:211
CBC3  20 5C F9  JSR A:01 X:AA Y:73 P:25 SP:FB PPU:217
F95C  A9 40     LDA A:01 X:AA Y:73 P:25 SP:F9 PPU:235
F95E  38        SEC A:40 X:AA Y:73 P:25 SP:F9 PPU:241
F95F  24 01     BIT A:40 X:AA Y:73 P:25 SP:F9 PPU:247
F961  60        RTS A:40 X:AA Y:73 P:E5 SP:F9 PPU:256
CBC6  E9 41     SBC A:40 X:AA Y:73 P:E5 SP:FB PPU:274
CBC8  20 62 F9  JSR A:FF X:AA Y:73 P:A4 SP:FB PPU:280
F962  B0 0B     BCS A:FF X:AA Y:73 P:A4 SP:F9 PPU:298
F964  F0 09     BEQ A:FF X:AA Y:73 P:A4 SP:F9 PPU:304
F966  10 07     BPL A:FF X:AA Y:73 P:A4 SP:F9 PPU:310
F968  70 05     BVS A:FF X:AA Y:73 P:A4 SP:F9 PPU:316
F96A  C9 FF     CMP A:FF X:AA Y:73 P:A4 SP:F9 PPU:322
F96C  D0 01     BNE A:FF X:AA Y:73 P:27 SP:F9 PPU:328
F96E  60        RTS A:FF X:AA Y:73 P:27 SP:F9 PPU:334
CBCB  C8        INY A:FF X:AA Y:73 P:27 SP:FB PPU: 11
CBCC  20 72 F9  JSR A:FF X:AA Y:74 P:25 SP:FB PPU: 17
F972  18        CLC A:FF X:AA Y:74 P:25 SP:F9 PPU: 35
F973  A9 80     LDA A:FF X:AA Y:74 P:24 SP:F9 PPU: 41
F975  60        RTS A:80 X:AA Y:74 P:A4 SP:F9 PPU: 47
CBCF  E9 00     SBC A:80 X:AA Y:74 P:A4 SP:FB PPU: 65
CBD1  20 76 F9  JSR A:7F X:AA Y:74 P:65 SP:FB PPU: 71
F976  90 05     BCC A:7F X:AA Y:74 P:65 SP:F9 PPU: 89
F978  C9 7F     CMP A:7F X:AA Y:74 P:65 SP:F9 PPU: 95
F97A  D0 01     BNE A:7F X:AA Y:74 P:67 SP:F9 PPU:101
F97C  60        RTS A:7F X:AA Y:74 P:67 SP:F9 PPU:107
CBD4  C8        INY A:7F X:AA Y:74 P:67 SP:FB PPU:125
CBD5  20 80 F9  JSR A:7F X:AA Y:75 P:65 SP:FB PPU:131
F980  38        SEC A:7F X:AA Y:75 P:65 SP:F9 PPU:149
F981  A9 81     LDA A:7F X:AA Y:75 P:65 SP:F9 PPU:155
F983  60        RTS A:81 X:AA Y:75 P:E5 SP:F9 PPU:161
CBD8  E9 7F     SBC A:81 X:AA Y:75 P:E5 SP:FB PPU:179
CBDA  20 84 F9  JSR A:02 X:AA Y:75 P:65 SP:FB PPU:185
F984  50 07     BVC A:02 X:AA Y:75 P:65 SP:F9 PPU:203
F986  90 05     BCC A:02 X:AA Y:75 P:65 SP:F9 PPU:209
F988  C9 02     CMP A:02 X:AA Y:75 P:65 SP:F9 PPU:215
F98A  D0 01     BNE A:02 X:AA Y:75 P:67 SP:F9 PPU:221
F98C  60        RTS A:02 X:AA Y:75 P:67 SP:F9 PPU:227
CBDD  60        RTS A:02 X:AA Y:75 P:67 SP:FB PPU:245
C606  20 DE CB  JSR A:02 X:AA Y:75 P:67 SP:FD PPU:263
CBDE  EA        NOP A:02 X:AA Y:75 P:67 SP:FB PPU:281
CBDF  A9 FF     LDA A:02 X:AA Y:75 P:67 SP:FB PPU:287
CBE1  85 01     STA A:FF X:AA Y:75 P:E5 SP:FB PPU:293
CBE3  A9 44     LDA A:FF X:AA Y:75 P:E5 SP:FB PPU:302
CBE5  A2 55     LDX A:44 X:AA Y:75 P:65 SP:FB PPU:308
CBE7  A0 66     LDY A:44 X:55 Y:75 P:65 SP:FB PPU:314
CBE9  E8        INX A:44 X:55 Y:66 P:65 SP:FB PPU:320
CBEA  88        DEY A:44 X:56 Y:66 P:65 SP:FB PPU:326
CBEB  E0 56     CPX A:44 X:56 Y:65 P:65 SP:FB PPU:332
CBED  D0 21     BNE A:44 X:56 Y:65 P:67 SP:FB PPU:338
CBEF  C0 65     CPY A:44 X:56 Y:65 P:67 SP:FB PPU:  3
CBF1  D0 1D     BNE A:44 X:56 Y:65 P:67 SP:FB PPU:  9
CBF3  E8        INX A:44 X:56 Y:65 P:67 SP:FB PPU: 15
CBF4  E8        INX A:44 X:57 Y:65 P:65 SP:FB PPU: 21
CBF5  88        DEY A:44 X:58 Y:65 P:65 SP:FB PPU: 27
CBF6  88        DEY A:44 X:58 Y:64 P:65 SP:FB PPU: 33
CBF7  E0 58     CPX A:44 X:58 Y:63 P:65 SP:FB PPU: 39
CBF9  D0 15     BNE A:44 X:58 Y:63 P:67 SP:FB PPU: 45
CBFB  C0 63     CPY A:44 X:58 Y:63 P:67 SP:FB PPU: 51
CBFD  D0 11     BNE A:44 X:58 Y:63 P:67 SP:FB PPU: 57
CBFF  CA        DEX A:44 X:58 Y:63 P:67 SP:FB PPU: 63
CC00  C8        INY A:44 X:57 Y:63 P:65 SP:FB PPU: 69
CC01  E0 57     CPX A:44 X:57 Y:64 P:65 SP:FB PPU: 75
CC03  D0 0B     BNE A:44 X:57 Y:64 P:67 SP:FB PPU: 81
CC05  C0 64     CPY A:44 X:57 Y:64 P:67 SP:FB PPU: 87
CC07  D0 07     BNE A:44 X:57 Y:64 P:67 SP:FB PPU: 93
CC09  C9 44     CMP A:44 X:57 Y:64 P:67 SP:FB PPU: 99
CC0B  D0 03     BNE A:44 X:57 Y:64 P:67 SP:FB PPU:105
CC0D  4C 14 CC  JMP A:44 X:57 Y:64 P:67 SP:FB PPU:111
CC14  EA        NOP A:44 X:57 Y:64 P:67 SP:FB PPU:120
CC15  38        SEC A:44 X:57 Y:64 P:67 SP:FB PPU:126
CC16  A2 69     LDX A:44 X:57 Y:64 P:67 SP:FB PPU:132
CC18  A9 96     LDA A:44 X:69 Y:64 P:65 SP:FB PPU:138
CC1A  24 01     BIT A:96 X:69 Y:64 P:E5 SP:FB PPU:144
CC1C  A0 FF     LDY A:96 X:69 Y:64 P:E5 SP:FB PPU:153
CC1E  C8        INY A:96 X:69 Y:FF P:E5 SP:FB PPU:159
CC1F  D0 3D     BNE A:96 X:69 Y:00 P:67 SP:FB PPU:165
CC21  30 3B     BMI A:96 X:69 Y:00 P:67 SP:FB PPU:171
CC23  90 39     BCC A:96 X:69 Y:00 P:67 SP:FB PPU:177
CC25  50 37     BVC A:96 X:69 Y:00 P:67 SP:FB PPU:183
CC27  C0 00     CPY A:96 X:69 Y:00 P:67 SP:FB PPU:189
CC29  D0 33     BNE A:96 X:69 Y:00 P:67 SP:FB PPU:195
CC2B  C8        INY A:96 X:69 Y:00 P:67 SP:FB PPU:201
CC2C  F0 30     BEQ A:96 X:69 Y:01 P:65 SP:FB PPU:207
CC2E  30 2E     BMI A:96 X:69 Y:01 P:65 SP:FB PPU:213
CC30  90 2C     BCC A:96 X:69 Y:01 P:65 SP:FB PPU:219
CC32  50 2A     BVC A:96 X:69 Y:01 P:65 SP:FB PPU:225
CC34  18        CLC A:96 X:69 Y:01 P:65 SP:FB PPU:231
CC35  B8        CLV A:96 X:69 Y:01 P:64 SP:FB PPU:237
CC36  A0 00     LDY A:96 X:69 Y:01 P:24 SP:FB PPU:243
CC38  88        DEY A:96 X:69 Y:00 P:26 SP:FB PPU:249
CC39  F0 23     BEQ A:96 X:69 Y:FF P:A4 SP:FB PPU:255
CC3B  10 21     BPL A:96 X:69 Y:FF P:A4 SP:FB PPU:261
CC3D  B0 1F     BCS A:96 X:69 Y:FF P:A4 SP:FB PPU:267
CC3F  70 1D     BVS A:96 X:69 Y:FF P:A4 SP:FB PPU:273
CC41  C0 FF     CPY A:96 X:69 Y:FF P:A4 SP:FB PPU:279
CC43  D0 19     BNE A:96 X:69 Y:FF P:27 SP:FB PPU:285
CC45  18        CLC A:96 X:69 Y:FF P:27 SP:FB PPU:291
CC46  88        DEY A:96 X:69 Y:FF P:26 SP:FB PPU:297
CC47  F0 15     BEQ A:96 X:69 Y:FE P:A4 SP:FB PPU:303
CC49  10 13     BPL A:96 X:69 Y:FE P:A4 SP:FB PPU:309
CC4B  B0 11     BCS A:96 X:69 Y:FE P:A4 SP:FB PPU:315
CC4D  70 0F     BVS A:96 X:69 Y:FE P:A4 SP:FB PPU:321
CC4F  C0 FE     CPY A:96 X:69 Y:FE P:A4 SP:FB PPU:327
CC51  D0 0B     BNE A:96 X:69 Y:FE P:27 SP:FB PPU:333
CC53  C9 96     CMP A:96 X:69 Y:FE P:27 SP:FB PPU:339
CC55  D0 07     BNE A:96 X:69 Y:FE P:27 SP:FB PPU:  4
CC57  E0 69     CPX A:96 X:69 Y:FE P:27 SP:FB PPU: 10
CC59  D0 03     BNE A:96 X:69 Y:FE P:27 SP:FB PPU: 16
CC5B  4C 62 CC  JMP A:96 X:69 Y:FE P:27 SP:FB PPU: 22
CC62  EA        NOP A:96 X:69 Y:FE P:27 SP:FB PPU: 31
CC63  38        SEC A:96 X:69 Y:FE P:27 SP:FB PPU: 37
CC64  A0 69     LDY A:96 X:69 Y:FE P:27 SP:FB PPU: 43
CC66  A9 96     LDA A:96 X:69 Y:69 P:25 SP:FB PPU: 49
CC68  24 01     BIT A:96 X:69 Y:69 P:A5 SP:FB PPU: 55
CC6A  A2 FF     LDX A:96 X:69 Y:69 P:E5 SP:FB PPU: 64
CC6C  E8        INX A:96 X:FF Y:69 P:E5 SP:FB PPU: 70
CC6D  D0 3D     BNE A:96 X:00 Y:69 P:67 SP:FB PPU: 76
CC6F  30 3B     BMI A:96 X:00 Y:69 P:67 SP:FB PPU: 82
CC71  90 39     BCC A:96 X:00 Y:69 P:67 SP:FB PPU: 88
CC73  50 37     BVC A:96 X:00 Y:69 P:67 SP:FB PPU: 94
CC75  E0 00     CPX A:96 X:00 Y:69 P:67 SP:FB PPU:100
CC77  D0 33     BNE A:96 X:00 Y:69 P:67 SP:FB PPU:106
CC79  E8        INX A:96 X:00 Y:69 P:67 SP:FB PPU:112
CC7A  F0 30     BEQ A:96 X:01 Y:69 P:65 SP:FB PPU:118
CC7C  30 2E     BMI A:96 X:01 Y:69 P:65 SP:FB PPU:124
CC7E  90 2C     BCC A:96 X:01 Y:69 P:65 SP:FB PPU:130
CC80  50 2A     BVC A:96 X:01 Y:69 P:65 SP:FB PPU:136
CC82  18        CLC A:96 X:01 Y:69 P:65 SP:FB PPU:142
CC83  B8        CLV A:96 X:01 Y:69 P:64 SP:FB PPU:148
CC84  A2 00     LDX A:96 X:01 Y:69 P:24 SP:FB PPU:154
CC86  CA        DEX A:96 X:00 Y:69 P:26 SP:FB PPU:160
CC87  F0 23     BEQ A:96 X:FF Y:69 P:A4 SP:FB PPU:166
CC89  10 21     BPL A:96 X:FF Y:69 P:A4 SP:FB PPU:172
CC8B  B0 1F     BCS A:96 X:FF Y:69 P:A4 SP:FB PPU:178
CC8D  70 1D     BVS A:96 X:FF Y:69 P:A4 SP:FB PPU:184
CC8F  E0 FF     CPX A:96 X:FF Y:69 P:A4 SP:FB PPU:190
CC91  D0 19     BNE A:96 X:FF Y:69 P:27 SP:FB PPU:196
CC93  18        CLC A:96 X:FF Y:69 P:27 SP:FB PPU:202
CC94  CA        DEX A:96 X:FF Y:69 P:26 SP:FB PPU:208
CC95  F0 15     BEQ A:96 X:FE Y:69 P:A4 SP:FB PPU:214
CC97  10 13     BPL A:96 X:FE Y:69 P:A4 SP:FB PPU:220
CC99  B0 11     BCS A:96 X:FE Y:69 P:A4 SP:FB PPU:226
CC9B  70 0F     BVS A:96 X:FE Y:69 P:A4 SP:FB PPU:232
CC9D  E0 FE     CPX A:96 X:FE Y:69 P:A4 SP:FB PPU:238
CC9F  D0 0B     BNE A:96 X:FE Y:69 P:27 SP:FB PPU:244
CCA1  C9 96     CMP A:96 X:FE Y:69 P:27 SP:FB PPU:250
CCA3  D0 07     BNE A:96 X:FE Y:69 P:27 SP:FB PPU:256
CCA5  C0 69     CPY A:96 X:FE Y:69 P:27 SP:FB PPU:262
CCA7  D0 03     BNE A:96 X:FE Y:69 P:27 SP:FB PPU:268
CCA9  4C B0 CC  JMP A:96 X:FE Y:69 P:27 SP:FB PPU:274
CCB0  EA        NOP A:96 X:FE Y:69 P:27 SP:FB PPU:283
CCB1  A9 85     LDA A:96 X:FE Y:69 P:27 SP:FB PPU:289
CCB3  A2 34     LDX A:85 X:FE Y:69 P:A5 SP:FB PPU:295
CCB5  A0 99     LDY A:85 X:34 Y:69 P:25 SP:FB PPU:301
CCB7  18        CLC A:85 X:34 Y:99 P:A5 SP:FB PPU:307
CCB8  24 01     BIT A:85 X:34 Y:99 P:A4 SP:FB PPU:313
CCBA  A8        TAY A:85 X:34 Y:99 P:E4 SP:FB PPU:322
CCBB  F0 2E     BEQ A:85 X:34 Y:85 P:E4 SP:FB PPU:328
CCBD  B0 2C     BCS A:85 X:34 Y:85 P:E4 SP:FB PPU:334
CCBF  50 2A     BVC A:85 X:34 Y:85 P:E4 SP:FB PPU:340
CCC1  10 28     BPL A:85 X:34 Y:85 P:E4 SP:FB PPU:  5
CCC3  C9 85     CMP A:85 X:34 Y:85 P:E4 SP:FB PPU: 11
CCC5  D0 24     BNE A:85 X:34 Y:85 P:67 SP:FB PPU: 17
CCC7  E0 34     CPX A:85 X:34 Y:85 P:67 SP:FB PPU: 23
CCC9  D0 20     BNE A:85 X:34 Y:85 P:67 SP:FB PPU: 29
CCCB  C0 85     CPY A:85 X:34 Y:85 P:67 SP:FB PPU: 35
CCCD  D0 1C     BNE A:85 X:34 Y:85 P:67 SP:FB PPU: 41
CCCF  A9 00     LDA A:85 X:34 Y:85 P:67 SP:FB PPU: 47
CCD1  38        SEC A:00 X:34 Y:85 P:67 SP:FB PPU: 53
CCD2  B8        CLV A:00 X:34 Y:85 P:67 SP:FB PPU: 59
CCD3  A8        TAY A:00 X:34 Y:85 P:27 SP:FB PPU: 65
CCD4  D0 15     BNE A:00 X:34 Y:00 P:27 SP:FB PPU: 71
CCD6  90 13     BCC A:00 X:34 Y:00 P:27 SP:FB PPU: 77
CCD8  70 11     BVS A:00 X:34 Y:00 P:27 SP:FB PPU: 83
CCDA  30 0F     BMI A:00 X:34 Y:00 P:27 SP:FB PPU: 89
CCDC  C9 00     CMP A:00 X:34 Y:00 P:27 SP:FB PPU: 95
CCDE  D0 0B     BNE A:00 X:34 Y:00 P:27 SP:FB PPU:101
CCE0  E0 34     CPX A:00 X:34 Y:00 P:27 SP:FB PPU:107
CCE2  D0 07     BNE A:00 X:34 Y:00 P:27 SP:FB PPU:113
CCE4  C0 00     CPY A:00 X:34 Y:00 P:27 SP:FB PPU:119
CCE6  D0 03     BNE A:00 X:34 Y:00 P:27 SP:FB PPU:125
CCE8  4C EF CC  JMP A:00 X:34 Y:00 P:27 SP:FB PPU:131
CCEF  EA        NOP A:00 X:34 Y:00 P:27 SP:FB PPU:140
CCF0  A9 85     LDA A:00 X:34 Y:00 P:27 SP:FB PPU:146
CCF2  A2 34     LDX A:85 X:34 Y:00 P:A5 SP:FB PPU:152
CCF4  A0 99     LDY A:85 X:34 Y:00 P:25 SP:FB PPU:158
CCF6  18        CLC A:85 X:34 Y:99 P:A5 SP:FB PPU:164
CCF7  24 01     BIT A:85 X:34 Y:99 P:A4 SP:FB PPU:170
CCF9  AA        TAX A:85 X:34 Y:99 P:E4 SP:FB PPU:179
CCFA  F0 2E     BEQ A:85 X:85 Y:99 P:E4 SP:FB PPU:185
CCFC  B0 2C     BCS A:85 X:85 Y:99 P:E4 SP:FB PPU:191
CCFE  50 2A     BVC A:85 X:85 Y:99 P:E4 SP:FB PPU:197
CD00  10 28     BPL A:85 X:85 Y:99 P:E4 SP:FB PPU:203
CD02  C9 85     CMP A:85 X:85 Y:99 P:E4 SP:FB PPU:209
CD04  D0 24     BNE A:85 X:85 Y:99 P:67 SP:FB PPU:215
CD06  E0 85     CPX A:85 X:85 Y:99 P:67 SP:FB PPU:221
CD08  D0 20     BNE A:85 X:85 Y:99 P:67 SP:FB PPU:227
CD0A  C0 99     CPY A:85 X:85 Y:99 P:67 SP:FB PPU:233
CD0C  D0 1C     BNE A:85 X:85 Y:99 P:67 SP:FB PPU:239
CD0E  A9 00     LDA A:85 X:85 Y:99 P:67 SP:FB PPU:245
CD10  38        SEC A:00 X:85 Y:99 P:67 SP:FB PPU:251
CD11  B8        CLV A:00 X:85 Y:99 P:67 SP:FB PPU:257
CD12  AA        TAX A:00 X:85 Y:99 P:27 SP:FB PPU:263
CD13  D0 15     BNE A:00 X:00 Y:99 P:27 SP:FB PPU:269
CD15  90 13     BCC A:00 X:00 Y:99 P:27 SP:FB PPU:275
CD17  70 11     BVS A:00 X:00 Y:99 P:27 SP:FB PPU:281
CD19  30 0F     BMI A:00 X:00 Y:99 P:27 SP:FB PPU:287
CD1B  C9 00     CMP A:00 X:00 Y:99 P:27 SP:FB PPU:293
CD1D  D0 0B     BNE A:00 X:00 Y:99 P:27 SP:FB PPU:299
CD1F  E0 00     CPX A:00 X:00 Y:99 P:27 SP:FB PPU:305
CD21  D0 07     BNE A:00 X:00 Y:99 P:27 SP:FB PPU:311
CD23  C0 99     CPY A:00 X:00 Y:99 P:27 SP:FB PPU:317
CD25  D0 03     BNE A:00 X:00 Y:99 P:27 SP:FB PPU:323
CD27  4C 2E CD  JMP A:00 X:00 Y:99 P:27 SP:FB PPU:329
CD2E  EA        NOP A:00 X:00 Y:99 P:27 SP:FB PPU:338
CD2F  A9 85     LDA A:00 X:00 Y:99 P:27 SP:FB PPU:  3
CD31  A2 34     LDX A:85 X:00 Y:99 P:A5 SP:FB PPU:  9
CD33  A0 99     LDY A:85 X:34 Y:99 P:25 SP:FB PPU: 15
CD35  18        CLC A:85 X:34 Y:99 P:A5 SP:FB PPU: 21
CD36  24 01     BIT A:85 X:34 Y:99 P:A4 SP:FB PPU: 27
CD38  98        TYA A:85 X:34 Y:99 P:E4 SP:FB PPU: 36
CD39  F0 2E     BEQ A:99 X:34 Y:99 P:E4 SP:FB PPU: 42
CD3B  B0 2C     BCS A:99 X:34 Y:99 P:E4 SP:FB PPU: 48
CD3D  50 2A     BVC A:99 X:34 Y:99 P:E4 SP:FB PPU: 54
CD3F  10 28     BPL A:99 X:34 Y:99 P:E4 SP:FB PPU: 60
CD41  C9 99     CMP A:99 X:34 Y:99 P:E4 SP:FB PPU: 66
CD43  D0 24     BNE A:99 X:34 Y:99 P:67 SP:FB PPU: 72
CD45  E0 34     CPX A:99 X:34 Y:99 P:67 SP:FB PPU: 78
CD47  D0 20     BNE A:99 X:34 Y:99 P:67 SP:FB PPU: 84
CD49  C0 99     CPY A:99 X:34 Y:99 P:67 SP:FB PPU: 90
CD4B  D0 1C     BNE A:99 X:34 Y:99 P:67 SP:FB PPU: 96
CD4D  A0 00     LDY A:99 X:34 Y:99 P:67 SP:FB PPU:102
CD4F  38        SEC A:99 X:34 Y:00 P:67 SP:FB PPU:108
CD50  B8        CLV A:99 X:34 Y:00 P:67 SP:FB PPU:114
CD51  98        TYA A:99 X:34 Y:00 P:27 SP:FB PPU:120
CD52  D0 15     BNE A:00 X:34 Y:00 P:27 SP:FB PPU:126
CD54  90 13     BCC A:00 X:34 Y:00 P:27 SP:FB PPU:132
CD56  70 11     BVS A:00 X:34 Y:00 P:27 SP:FB PPU:138
CD58  30 0F     BMI A:00 X:34 Y:00 P:27 SP:FB PPU:144
CD5A  C9 00     CMP A:00 X:34 Y:00 P:27 SP:FB PPU:150
CD5C  D0 0B     BNE A:00 X:34 Y:00 P:27 SP:FB PPU:156
CD5E  E0 34     CPX A:00 X:34 Y:00 P:27 SP:FB PPU:162
CD60  D0 07     BNE A:00 X:34 Y:00 P:27 SP:FB PPU:168
CD62  C0 00     CPY A:00 X:34 Y:00 P:27 SP:FB PPU:174
CD64  D0 03     BNE A:00 X:34 Y:00 P:27 SP:FB PPU:180
CD66  4C 6D CD  JMP A:00 X:34 Y:00 P:27 SP:FB PPU:186
CD6D  EA        NOP A:00 X:34 Y:00 P:27 SP:FB PPU:195
CD6E  A9 85     LDA A:00 X:34 Y:00 P:27 SP:FB PPU:201
CD70  A2 34     LDX A:85 X:34 Y:00 P:A5 SP:FB PPU:207
CD72  A0 99     LDY A:85 X:34 Y:00 P:25 SP:FB PPU:213
CD74  18        CLC A:85 X:34 Y:99 P:A5 SP:FB PPU:219
CD75  24 01     BIT A:85 X:34 Y:99 P:A4 SP:FB PPU:225
CD77  8A        TXA A:85 X:34 Y:99 P:E4 SP:FB PPU:234
CD78  F0 2E     BEQ A:34 X:34 Y:99 P:64 SP:FB PPU:240
CD7A  B0 2C     BCS A:34 X:34 Y:99 P:64 SP:FB PPU:246
CD7C  50 2A     BVC A:34 X:34 Y:99 P:64 SP:FB PPU:252
CD7E  30 28     BMI A:34 X:34 Y:99 P:64 SP:FB PPU:258
CD80  C9 34     CMP A:34 X:34 Y:99 P:64 SP:FB PPU:264
CD82  D0 24     BNE A:34 X:34 Y:99 P:67 SP:FB PPU:270
CD84  E0 34     CPX A:34 X:34 Y:99 P:67 SP:FB PPU:276
CD86  D0 20     BNE A:34 X:34 Y:99 P:67 SP:FB PPU:282
CD88  C0 99     CPY A:34 X:34 Y:99 P:67 SP:FB PPU:288
CD8A  D0 1C     BNE A:34 X:34 Y:99 P:67 SP:FB PPU:294
CD8C  A2 00     LDX A:34 X:34 Y:99 P:67 SP:FB PPU:300
CD8E  38        SEC A:34 X:00 Y:99 P:67 SP:FB PPU:306
CD8F  B8        CLV A:34 X:00 Y:99 P:67 SP:FB PPU:312
CD90  8A        TXA A:34 X:00 Y:99 P:27 SP:FB PPU:318
CD91  D0 15     BNE A:00 X:00 Y:99 P:27 SP:FB PPU:324
CD93  90 13     BCC A:00 X:00 Y:99 P:27 SP:FB PPU:330
CD95  70 11     BVS A:00 X:00 Y:99 P:27 SP:FB PPU:336
CD97  30 0F     BMI A:00 X:00 Y:99 P:27 SP:FB PPU:  1
CD99  C9 00     CMP A:00 X:00 Y:99 P:27 SP:FB PPU:  7
CD9B  D0 0B     BNE A:00 X:00 Y:99 P:27 SP:FB PPU: 13
CD9D  E0 00     CPX A:00 X:00 Y:99 P:27 SP:FB PPU: 19
CD9F  D0 07     BNE A:00 X:00 Y:99 P:27 SP:FB PPU: 25
CDA1  C0 99     CPY A:00 X:00 Y:99 P:27 SP:FB PPU: 31
CDA3  D0 03     BNE A:00 X:00 Y:99 P:27 SP:FB PPU: 37
CDA5  4C AC CD  JMP A:00 X:00 Y:99 P:27 SP:FB PPU: 43
CDAC  EA        NOP A:00 X:00 Y:99 P:27 SP:FB PPU: 52
CDAD  BA        TSX A:00 X:00 Y:99 P:27 SP:FB PPU: 58
CDAE  8E FF 07  STX A:00 X:FB Y:99 P:A5 SP:FB PPU: 64
CDB1  A0 33     LDY A:00 X:FB Y:99 P:A5 SP:FB PPU: 76
CDB3  A2 69     LDX A:00 X:FB Y:33 P:25 SP:FB PPU: 82
CDB5  A9 84     LDA A:00 X:69 Y:33 P:25 SP:FB PPU: 88
CDB7  18        CLC A:84 X:69 Y:33 P:A5 SP:FB PPU: 94
CDB8  24 01     BIT A:84 X:69 Y:33 P:A4 SP:FB PPU:100
CDBA  9A        TXS A:84 X:69 Y:33 P:E4 SP:FB PPU:109
CDBB  F0 32     BEQ A:84 X:69 Y:33 P:E4 SP:69 PPU:115
CDBD  10 30     BPL A:84 X:69 Y:33 P:E4 SP:69 PPU:121
CDBF  B0 2E     BCS A:84 X:69 Y:33 P:E4 SP:69 PPU:127
CDC1  50 2C     BVC A:84 X:69 Y:33 P:E4 SP:69 PPU:133
CDC3  C9 84     CMP A:84 X:69 Y:33 P:E4 SP:69 PPU:139
CDC5  D0 28     BNE A:84 X:69 Y:33 P:67 SP:69 PPU:145
CDC7  E0 69     CPX A:84 X:69 Y:33 P:67 SP:69 PPU:151
CDC9  D0 24     BNE A:84 X:69 Y:33 P:67 SP:69 PPU:157
CDCB  C0 33     CPY A:84 X:69 Y:33 P:67 SP:69 PPU:163
CDCD  D0 20     BNE A:84 X:69 Y:33 P:67 SP:69 PPU:169
CDCF  A0 01     LDY A:84 X:69 Y:33 P:67 SP:69 PPU:175
CDD1  A9 04     LDA A:84 X:69 Y:01 P:65 SP:69 PPU:181
CDD3  38        SEC A:04 X:69 Y:01 P:65 SP:69 PPU:187
CDD4  B8        CLV A:04 X:69 Y:01 P:65 SP:69 PPU:193
CDD5  A2 00     LDX A:04 X:69 Y:01 P:25 SP:69 PPU:199
CDD7  BA        TSX A:04 X:00 Y:01 P:27 SP:69 PPU:205
CDD8  F0 15     BEQ A:04 X:69 Y:01 P:25 SP:69 PPU:211
CDDA  30 13     BMI A:04 X:69 Y:01 P:25 SP:69 PPU:217
CDDC  90 11     BCC A:04 X:69 Y:01 P:25 SP:69 PPU:223
CDDE  70 0F     BVS A:04 X:69 Y:01 P:25 SP:69 PPU:229
CDE0  E0 69     CPX A:04 X:69 Y:01 P:25 SP:69 PPU:235
CDE2  D0 0B     BNE A:04 X:69 Y:01 P:27 SP:69 PPU:241
CDE4  C9 04     CMP A:04 X:69 Y:01 P:27 SP:69 PPU:247
CDE6  D0 07     BNE A:04 X:69 Y:01 P:27 SP:69 PPU:253
CDE8  C0 01     CPY A:04 X:69 Y:01 P:27 SP:69 PPU:259
CDEA  D0 03     BNE A:04 X:69 Y:01 P:27 SP:69 PPU:265
CDEC  4C F3 CD  JMP A:04 X:69 Y:01 P:27 SP:69 PPU:271
CDF3  AE FF 07  LDX A:04 X:69 Y:01 P:27 SP:69 PPU:280
CDF6  9A        TXS A:04 X:FB Y:01 P:A5 SP:69 PPU:292
CDF7  60        RTS A:04 X:FB Y:01 P:A5 SP:FB PPU:298
C609  20 F8 CD  JSR A:04 X:FB Y:01 P:A5 SP:FD PPU:316
CDF8  A9 FF     LDA A:04 X:FB Y:01 P:A5 SP:FB PPU:334
CDFA  85 01     STA A:FF X:FB Y:01 P:A5 SP:FB PPU:340
CDFC  BA        TSX A:FF X:FB Y:01 P:A5 SP:FB PPU:  8
CDFD  8E FF 07  STX A:FF X:FB Y:01 P:A5 SP:FB PPU: 14
CE00  EA        NOP A:FF X:FB Y:01 P:A5 SP:FB PPU: 26
CE01  A2 80     LDX A:FF X:FB Y:01 P:A5 SP:FB PPU: 32
CE03  9A        TXS A:FF X:80 Y:01 P:A5 SP:FB PPU: 38
CE04  A9 33     LDA A:FF X:80 Y:01 P:A5 SP:80 PPU: 44
CE06  48        PHA A:33 X:80 Y:01 P:25 SP:80 PPU: 50
CE07  A9 69     LDA A:33 X:80 Y:01 P:25 SP:7F PPU: 59
CE09  48        PHA A:69 X:80 Y:01 P:25 SP:7F PPU: 65
CE0A  BA        TSX A:69 X:80 Y:01 P:25 SP:7E PPU: 74
CE0B  E0 7E     CPX A:69 X:7E Y:01 P:25 SP:7E PPU: 80
CE0D  D0 20     BNE A:69 X:7E Y:01 P:27 SP:7E PPU: 86
CE0F  68        PLA A:69 X:7E Y:01 P:27 SP:7E PPU: 92
CE10  C9 69     CMP A:69 X:7E Y:01 P:25 SP:7F PPU:104
CE12  D0 1B     BNE A:69 X:7E Y:01 P:27 SP:7F PPU:110
CE14  68        PLA A:69 X:7E Y:01 P:27 SP:7F PPU:116
CE15  C9 33     CMP A:33 X:7E Y:01 P:25 SP:80 PPU:128
CE17  D0 16     BNE A:33 X:7E Y:01 P:27 SP:80 PPU:134
CE19  BA        TSX A:33 X:7E Y:01 P:27 SP:80 PPU:140
CE1A  E0 80     CPX A:33 X:80 Y:01 P:A5 SP:80 PPU:146
CE1C  D0 11     BNE A:33 X:80 Y:01 P:27 SP:80 PPU:152
CE1E  AD 80 01  LDA A:33 X:80 Y:01 P:27 SP:80 PPU:158
CE21  C9 33     CMP A:33 X:80 Y:01 P:25 SP:80 PPU:170
CE23  D0 0A     BNE A:33 X:80 Y:01 P:27 SP:80 PPU:176
CE25  AD 7F 01  LDA A:33 X:80 Y:01 P:27 SP:80 PPU:182
CE28  C9 69     CMP A:69 X:80 Y:01 P:25 SP:80 PPU:194
CE2A  D0 03     BNE A:69 X:80 Y:01 P:27 SP:80 PPU:200
CE2C  4C 33 CE  JMP A:69 X:80 Y:01 P:27 SP:80 PPU:206
CE33  EA        NOP A:69 X:80 Y:01 P:27 SP:80 PPU:215
CE34  A2 80     LDX A:69 X:80 Y:01 P:27 SP:80 PPU:221
CE36  9A        TXS A:69 X:80 Y:01 P:A5 SP:80 PPU:227
CE37  20 3D CE  JSR A:69 X:80 Y:01 P:A5 SP:80 PPU:233
CE3D  BA        TSX A:69 X:80 Y:01 P:A5 SP:7E PPU:251
CE3E  E0 7E     CPX A:69 X:7E Y:01 P:25 SP:7E PPU:257
CE40  D0 19     BNE A:69 X:7E Y:01 P:27 SP:7E PPU:263
CE42  68        PLA A:69 X:7E Y:01 P:27 SP:7E PPU:269
CE43  68        PLA A:39 X:7E Y:01 P:25 SP:7F PPU:281
CE44  BA        TSX A:CE X:7E Y:01 P:A5 SP:80 PPU:293
CE45  E0 80     CPX A:CE X:80 Y:01 P:A5 SP:80 PPU:299
CE47  D0 12     BNE A:CE X:80 Y:01 P:27 SP:80 PPU:305
CE49  A9 00     LDA A:CE X:80 Y:01 P:27 SP:80 PPU:311
CE4B  20 4E CE  JSR A:00 X:80 Y:01 P:27 SP:80 PPU:317
CE4E  68        PLA A:00 X:80 Y:01 P:27 SP:7E PPU:335
CE4F  C9 4D     CMP A:4D X:80 Y:01 P:25 SP:7F PPU:  6
CE51  D0 08     BNE A:4D X:80 Y:01 P:27 SP:7F PPU: 12
CE53  68        PLA A:4D X:80 Y:01 P:27 SP:7F PPU: 18
CE54  C9 CE     CMP A:CE X:80 Y:01 P:A5 SP:80 PPU: 30
CE56  D0 03     BNE A:CE X:80 Y:01 P:27 SP:80 PPU: 36
CE58  4C 5F CE  JMP A:CE X:80 Y:01 P:27 SP:80 PPU: 42
CE5F  EA        NOP A:CE X:80 Y:01 P:27 SP:80 PPU: 51
CE60  A9 CE     LDA A:CE X:80 Y:01 P:27 SP:80 PPU: 57
CE62  48        PHA A:CE X:80 Y:01 P:A5 SP:80 PPU: 63
CE63  A9 66     LDA A:CE X:80 Y:01 P:A5 SP:7F PPU: 72
CE65  48        PHA A:66 X:80 Y:01 P:25 SP:7F PPU: 78
CE66  60        RTS A:66 X:80 Y:01 P:25 SP:7E PPU: 87
CE67  A2 77     LDX A:66 X:80 Y:01 P:25 SP:80 PPU:105
CE69  A0 69     LDY A:66 X:77 Y:01 P:25 SP:80 PPU:111
CE6B  18        CLC A:66 X:77 Y:69 P:25 SP:80 PPU:117
CE6C  24 01     BIT A:66 X:77 Y:69 P:24 SP:80 PPU:123
CE6E  A9 83     LDA A:66 X:77 Y:69 P:E4 SP:80 PPU:132
CE70  20 66 CE  JSR A:83 X:77 Y:69 P:E4 SP:80 PPU:138
CE66  60        RTS A:83 X:77 Y:69 P:E4 SP:7E PPU:156
CE73  F0 24     BEQ A:83 X:77 Y:69 P:E4 SP:80 PPU:174
CE75  10 22     BPL A:83 X:77 Y:69 P:E4 SP:80 PPU:180
CE77  B0 20     BCS A:83 X:77 Y:69 P:E4 SP:80 PPU:186
CE79  50 1E     BVC A:83 X:77 Y:69 P:E4 SP:80 PPU:192
CE7B  C9 83     CMP A:83 X:77 Y:69 P:E4 SP:80 PPU:198
CE7D  D0 1A     BNE A:83 X:77 Y:69 P:67 SP:80 PPU:204
CE7F  C0 69     CPY A:83 X:77 Y:69 P:67 SP:80 PPU:210
CE81  D0 16     BNE A:83 X:77 Y:69 P:67 SP:80 PPU:216
CE83  E0 77     CPX A:83 X:77 Y:69 P:67 SP:80 PPU:222
CE85  D0 12     BNE A:83 X:77 Y:69 P:67 SP:80 PPU:228
CE87  38        SEC A:83 X:77 Y:69 P:67 SP:80 PPU:234
CE88  B8        CLV A:83 X:77 Y:69 P:67 SP:80 PPU:240
CE89  A9 00     LDA A:83 X:77 Y:69 P:27 SP:80 PPU:246
CE8B  20 66 CE  JSR A:00 X:77 Y:69 P:27 SP:80 PPU:252
CE66  60        RTS A:00 X:77 Y:69 P:27 SP:7E PPU:270
CE8E  D0 09     BNE A:00 X:77 Y:69 P:27 SP:80 PPU:288
CE90  30 07     BMI A:00 X:77 Y:69 P:27 SP:80 PPU:294
CE92  90 05     BCC A:00 X:77 Y:69 P:27 SP:80 PPU:300
CE94  70 03     BVS A:00 X:77 Y:69 P:27 SP:80 PPU:306
CE96  4C 9D CE  JMP A:00 X:77 Y:69 P:27 SP:80 PPU:312
CE9D  EA        NOP A:00 X:77 Y:69 P:27 SP:80 PPU:321
CE9E  A9 CE     LDA A:00 X:77 Y:69 P:27 SP:80 PPU:327
CEA0  48        PHA A:CE X:77 Y:69 P:A5 SP:80 PPU:333
CEA1  A9 AE     LDA A:CE X:77 Y:69 P:A5 SP:7F PPU:  1
CEA3  48        PHA A:AE X:77 Y:69 P:A5 SP:7F PPU:  7
CEA4  A9 65     LDA A:AE X:77 Y:69 P:A5 SP:7E PPU: 16
CEA6  48        PHA A:65 X:77 Y:69 P:25 SP:7E PPU: 22
CEA7  A9 55     LDA A:65 X:77 Y:69 P:25 SP:7D PPU: 31
CEA9  A0 88     LDY A:55 X:77 Y:69 P:25 SP:7D PPU: 37
CEAB  A2 99     LDX A:55 X:77 Y:88 P:A5 SP:7D PPU: 43
CEAD  40        RTI A:55 X:99 Y:88 P:A5 SP:7D PPU: 49
CEAE  30 35     BMI A:55 X:99 Y:88 P:65 SP:80 PPU: 67
CEB0  50 33     BVC A:55 X:99 Y:88 P:65 SP:80 PPU: 73
CEB2  F0 31     BEQ A:55 X:99 Y:88 P:65 SP:80 PPU: 79
CEB4  90 2F     BCC A:55 X:99 Y:88 P:65 SP:80 PPU: 85
CEB6  C9 55     CMP A:55 X:99 Y:88 P:65 SP:80 PPU: 91
CEB8  D0 2B     BNE A:55 X:99 Y:88 P:67 SP:80 PPU: 97
CEBA  C0 88     CPY A:55 X:99 Y:88 P:67 SP:80 PPU:103
CEBC  D0 27     BNE A:55 X:99 Y:88 P:67 SP:80 PPU:109
CEBE  E0 99     CPX A:55 X:99 Y:88 P:67 SP:80 PPU:115
CEC0  D0 23     BNE A:55 X:99 Y:88 P:67 SP:80 PPU:121
CEC2  A9 CE     LDA A:55 X:99 Y:88 P:67 SP:80 PPU:127
CEC4  48        PHA A:CE X:99 Y:88 P:E5 SP:80 PPU:133
CEC5  A9 CE     LDA A:CE X:99 Y:88 P:E5 SP:7F PPU:142
CEC7  48        PHA A:CE X:99 Y:88 P:E5 SP:7F PPU:148
CEC8  A9 87     LDA A:CE X:99 Y:88 P:E5 SP:7E PPU:157
CECA  48        PHA A:87 X:99 Y:88 P:E5 SP:7E PPU:163
CECB  A9 55     LDA A:87 X:99 Y:88 P:E5 SP:7D PPU:172
CECD  40        RTI A:55 X:99 Y:88 P:65 SP:7D PPU:178
CECE  10 15     BPL A:55 X:99 Y:88 P:A7 SP:80 PPU:196
CED0  70 13     BVS A:55 X:99 Y:88 P:A7 SP:80 PPU:202
CED2  D0 11     BNE A:55 X:99 Y:88 P:A7 SP:80 PPU:208
CED4  90 0F     BCC A:55 X:99 Y:88 P:A7 SP:80 PPU:214
CED6  C9 55     CMP A:55 X:99 Y:88 P:A7 SP:80 PPU:220
CED8  D0 0B     BNE A:55 X:99 Y:88 P:27 SP:80 PPU:226
CEDA  C0 88     CPY A:55 X:99 Y:88 P:27 SP:80 PPU:232
CEDC  D0 07     BNE A:55 X:99 Y:88 P:27 SP:80 PPU:238
CEDE  E0 99     CPX A:55 X:99 Y:88 P:27 SP:80 PPU:244
CEE0  D0 03     BNE A:55 X:99 Y:88 P:27 SP:80 PPU:250
CEE2  4C E9 CE  JMP A:55 X:99 Y:88 P:27 SP:80 PPU:256
CEE9  AE FF 07  LDX A:55 X:99 Y:88 P:27 SP:80 PPU:265
CEEC  9A        TXS A:55 X:FB Y:88 P:A5 SP:80 PPU:277
CEED  60        RTS A:55 X:FB Y:88 P:A5 SP:FB PPU:283
C60C  20 EE CE  JSR A:55 X:FB Y:88 P:A5 SP:FD PPU:301
CEEE  A2 55     LDX A:55 X:FB Y:88 P:A5 SP:FB PPU:319
CEF0  A0 69     LDY A:55 X:55 Y:88 P:25 SP:FB PPU:325
CEF2  A9 FF     LDA A:55 X:55 Y:69 P:25 SP:FB PPU:331
CEF4  85 01     STA A:FF X:55 Y:69 P:A5 SP:FB PPU:337
CEF6  EA        NOP A:FF X:55 Y:69 P:A5 SP:FB PPU:  5
CEF7  24 01     BIT A:FF X:55 Y:69 P:A5 SP:FB PPU: 11
CEF9  38        SEC A:FF X:55 Y:69 P:E5 SP:FB PPU: 20
CEFA  A9 01     LDA A:FF X:55 Y:69 P:E5 SP:FB PPU: 26
CEFC  4A        LSR A:01 X:55 Y:69 P:65 SP:FB PPU: 32
CEFD  90 1D     BCC A:00 X:55 Y:69 P:67 SP:FB PPU: 38
CEFF  D0 1B     BNE A:00 X:55 Y:69 P:67 SP:FB PPU: 44
CF01  30 19     BMI A:00 X:55 Y:69 P:67 SP:FB PPU: 50
CF03  50 17     BVC A:00 X:55 Y:69 P:67 SP:FB PPU: 56
CF05  C9 00     CMP A:00 X:55 Y:69 P:67 SP:FB PPU: 62
CF07  D0 13     BNE A:00 X:55 Y:69 P:67 SP:FB PPU: 68
CF09  B8        CLV A:00 X:55 Y:69 P:67 SP:FB PPU: 74
CF0A  A9 AA     LDA A:00 X:55 Y:69 P:27 SP:FB PPU: 80
CF0C  4A        LSR A:AA X:55 Y:69 P:A5 SP:FB PPU: 86
CF0D  B0 0D     BCS A:55 X:55 Y:69 P:24 SP:FB PPU: 92
CF0F  F0 0B     BEQ A:55 X:55 Y:69 P:24 SP:FB PPU: 98
CF11  30 09     BMI A:55 X:55 Y:69 P:24 SP:FB PPU:104
CF13  70 07     BVS A:55 X:55 Y:69 P:24 SP:FB PPU:110
CF15  C9 55     CMP A:55 X:55 Y:69 P:24 SP:FB PPU:116
CF17  D0 03     BNE A:55 X:55 Y:69 P:27 SP:FB PPU:122
CF19  4C 20 CF  JMP A:55 X:55 Y:69 P:27 SP:FB PPU:128
CF20  EA        NOP A:55 X:55 Y:69 P:27 SP:FB PPU:137
CF21  24 01     BIT A:55 X:55 Y:69 P:27 SP:FB PPU:143
CF23  38        SEC A:55 X:55 Y:69 P:E5 SP:FB PPU:152
CF24  A9 80     LDA A:55 X:55 Y:69 P:E5 SP:FB PPU:158
CF26  0A        ASL A:80 X:55 Y:69 P:E5 SP:FB PPU:164
CF27  90 1E     BCC A:00 X:55 Y:69 P:67 SP:FB PPU:170
CF29  D0 1C     BNE A:00 X:55 Y:69 P:67 SP:FB PPU:176
CF2B  30 1A     BMI A:00 X:55 Y:69 P:67 SP:FB PPU:182
CF2D  50 18     BVC A:00 X:55 Y:69 P:67 SP:FB PPU:188
CF2F  C9 00     CMP A:00 X:55 Y:69 P:67 SP:FB PPU:194
CF31  D0 14     BNE A:00 X:55 Y:69 P:67 SP:FB PPU:200
CF33  B8        CLV A:00 X:55 Y:69 P:67 SP:FB PPU:206
CF34  38        SEC A:00 X:55 Y:69 P:27 SP:FB PPU:212
CF35  A9 55     LDA A:00 X:55 Y:69 P:27 SP:FB PPU:218
CF37  0A        ASL A:55 X:55 Y:69 P:25 SP:FB PPU:224
CF38  B0 0D     BCS A:AA X:55 Y:69 P:A4 SP:FB PPU:230
CF3A  F0 0B     BEQ A:AA X:55 Y:69 P:A4 SP:FB PPU:236
CF3C  10 09     BPL A:AA X:55 Y:69 P:A4 SP:FB PPU:242
CF3E  70 07     BVS A:AA X:55 Y:69 P:A4 SP:FB PPU:248
CF40  C9 AA     CMP A:AA X:55 Y:69 P:A4 SP:FB PPU:254
CF42  D0 03     BNE A:AA X:55 Y:69 P:27 SP:FB PPU:260
CF44  4C 4B CF  JMP A:AA X:55 Y:69 P:27 SP:FB PPU:266
CF4B  EA        NOP A:AA X:55 Y:69 P:27 SP:FB PPU:275
CF4C  24 01     BIT A:AA X:55 Y:69 P:27 SP:FB PPU:281
CF4E  38        SEC A:AA X:55 Y:69 P:E5 SP:FB PPU:290
CF4F  A9 01     LDA A:AA X:55 Y:69 P:E5 SP:FB PPU:296
CF51  6A        ROR A:01 X:55 Y:69 P:65 SP:FB PPU:302
CF52  90 1E     BCC A:80 X:55 Y:69 P:E5 SP:FB PPU:308
CF54  F0 1C     BEQ A:80 X:55 Y:69 P:E5 SP:FB PPU:314
CF56  10 1A     BPL A:80 X:55 Y:69 P:E5 SP:FB PPU:320
CF58  50 18     BVC A:80 X:55 Y:69 P:E5 SP:FB PPU:326
CF5A  C9 80     CMP A:80 X:55 Y:69 P:E5 SP:FB PPU:332
CF5C  D0 14     BNE A:80 X:55 Y:69 P:67 SP:FB PPU:338
CF5E  B8        CLV A:80 X:55 Y:69 P:67 SP:FB PPU:  3
CF5F  18        CLC A:80 X:55 Y:69 P:27 SP:FB PPU:  9
CF60  A9 55     LDA A:80 X:55 Y:69 P:26 SP:FB PPU: 15
CF62  6A        ROR A:55 X:55 Y:69 P:24 SP:FB PPU: 21
CF63  90 0D     BCC A:2A X:55 Y:69 P:25 SP:FB PPU: 27
CF65  F0 0B     BEQ A:2A X:55 Y:69 P:25 SP:FB PPU: 33
CF67  30 09     BMI A:2A X:55 Y:69 P:25 SP:FB PPU: 39
CF69  70 07     BVS A:2A X:55 Y:69 P:25 SP:FB PPU: 45
CF6B  C9 2A     CMP A:2A X:55 Y:69 P:25 SP:FB PPU: 51
CF6D  D0 03     BNE A:2A X:55 Y:69 P:27 SP:FB PPU: 57
CF6F  4C 76 CF  JMP A:2A X:55 Y:69 P:27 SP:FB PPU: 63
CF76  EA        NOP A:2A X:55 Y:69 P:27 SP:FB PPU: 72
CF77  24 01     BIT A:2A X:55 Y:69 P:27 SP:FB PPU: 78
CF79  38        SEC A:2A X:55 Y:69 P:E5 SP:FB PPU: 87
CF7A  A9 80     LDA A:2A X:55 Y:69 P:E5 SP:FB PPU: 93
CF7C  2A        ROL A:80 X:55 Y:69 P:E5 SP:FB PPU: 99
CF7D  90 1E     BCC A:01 X:55 Y:69 P:65 SP:FB PPU:105
CF7F  F0 1C     BEQ A:01 X:55 Y:69 P:65 SP:FB PPU:111
CF81  30 1A     BMI A:01 X:55 Y:69 P:65 SP:FB PPU:117
CF83  50 18     BVC A:01 X:55 Y:69 P:65 SP:FB PPU:123
CF85  C9 01     CMP A:01 X:55 Y:69 P:65 SP:FB PPU:129
CF87  D0 14     BNE A:01 X:55 Y:69 P:67 SP:FB PPU:135
CF89  B8        CLV A:01 X:55 Y:69 P:67 SP:FB PPU:141
CF8A  18        CLC A:01 X:55 Y:69 P:27 SP:FB PPU:147
CF8B  A9 55     LDA A:01 X:55 Y:69 P:26 SP:FB PPU:153
CF8D  2A        ROL A:55 X:55 Y:69 P:24 SP:FB PPU:159
CF8E  B0 0D     BCS A:AA X:55 Y:69 P:A4 SP:FB PPU:165
CF90  F0 0B     BEQ A:AA X:55 Y:69 P:A4 SP:FB PPU:171
CF92  10 09     BPL A:AA X:55 Y:69 P:A4 SP:FB PPU:177
CF94  70 07     BVS A:AA X:55 Y:69 P:A4 SP:FB PPU:183
CF96  C9 AA     CMP A:AA X:55 Y:69 P:A4 SP:FB PPU:189
CF98  D0 03     BNE A:AA X:55 Y:69 P:27 SP:FB PPU:195
CF9A  4C A1 CF  JMP A:AA X:55 Y:69 P:27 SP:FB PPU:201
CFA1  60        RTS A:AA X:55 Y:69 P:27 SP:FB PPU:210
C60F  20 A2 CF  JSR A:AA X:55 Y:69 P:27 SP:FD PPU:228
CFA2  A5 00     LDA A:AA X:55 Y:69 P:27 SP:FB PPU:246
CFA4  8D FF 07  STA A:00 X:55 Y:69 P:27 SP:FB PPU:255
CFA7  A9 00     LDA A:00 X:55 Y:69 P:27 SP:FB PPU:267
CFA9  85 80     STA A:00 X:55 Y:69 P:27 SP:FB PPU:273
CFAB  A9 02     LDA A:00 X:55 Y:69 P:27 SP:FB PPU:282
CFAD  85 81     STA A:02 X:55 Y:69 P:25 SP:FB PPU:288
CFAF  A9 FF     LDA A:02 X:55 Y:69 P:25 SP:FB PPU:297
CFB1  85 01     STA A:FF X:55 Y:69 P:A5 SP:FB PPU:303
CFB3  A9 00     LDA A:FF X:55 Y:69 P:A5 SP:FB PPU:312
CFB5  85 82     STA A:00 X:55 Y:69 P:27 SP:FB PPU:318
CFB7  A9 03     LDA A:00 X:55 Y:69 P:27 SP:FB PPU:327
CFB9  85 83     STA A:03 X:55 Y:69 P:25 SP:FB PPU:333
CFBB  85 84     STA A:03 X:55 Y:69 P:25 SP:FB PPU:  1
CFBD  A9 00     LDA A:03 X:55 Y:69 P:25 SP:FB PPU: 10
CFBF  85 FF     STA A:00 X:55 Y:69 P:27 SP:FB PPU: 16
CFC1  A9 04     LDA A:00 X:55 Y:69 P:27 SP:FB PPU: 25
CFC3  85 00     STA A:04 X:55 Y:69 P:25 SP:FB PPU: 31
CFC5  A9 5A     LDA A:04 X:55 Y:69 P:25 SP:FB PPU: 40
CFC7  8D 00 02  STA A:5A X:55 Y:69 P:25 SP:FB PPU: 46
CFCA  A9 5B     LDA A:5A X:55 Y:69 P:25 SP:FB PPU: 58
CFCC  8D 00 03  STA A:5B X:55 Y:69 P:25 SP:FB PPU: 64
CFCF  A9 5C     LDA A:5B X:55 Y:69 P:25 SP:FB PPU: 76
CFD1  8D 03 03  STA A:5C X:55 Y:69 P:25 SP:FB PPU: 82
CFD4  A9 5D     LDA A:5C X:55 Y:69 P:25 SP:FB PPU: 94
CFD6  8D 00 04  STA A:5D X:55 Y:69 P:25 SP:FB PPU:100
CFD9  A2 00     LDX A:5D X:55 Y:69 P:25 SP:FB PPU:112
CFDB  A1 80     LDA A:5D X:00 Y:69 P:27 SP:FB PPU:118
CFDD  C9 5A     CMP A:5A X:00 Y:69 P:25 SP:FB PPU:136
CFDF  D0 1F     BNE A:5A X:00 Y:69 P:27 SP:FB PPU:142
CFE1  E8        INX A:5A X:00 Y:69 P:27 SP:FB PPU:148
CFE2  E8        INX A:5A X:01 Y:69 P:25 SP:FB PPU:154
CFE3  A1 80     LDA A:5A X:02 Y:69 P:25 SP:FB PPU:160
CFE5  C9 5B     CMP A:5B X:02 Y:69 P:25 SP:FB PPU:178
CFE7  D0 17     BNE A:5B X:02 Y:69 P:27 SP:FB PPU:184
CFE9  E8        INX A:5B X:02 Y:69 P:27 SP:FB PPU:190
CFEA  A1 80     LDA A:5B X:03 Y:69 P:25 SP:FB PPU:196
CFEC  C9 5C     CMP A:5C X:03 Y:69 P:25 SP:FB PPU:214
CFEE  D0 10     BNE A:5C X:03 Y:69 P:27 SP:FB PPU:220
CFF0  A2 00     LDX A:5C X:03 Y:69 P:27 SP:FB PPU:226
CFF2  A1 FF     LDA A:5C X:00 Y:69 P:27 SP:FB PPU:232
CFF4  C9 5D     CMP A:5D X:00 Y:69 P:25 SP:FB PPU:250
CFF6  D0 08     BNE A:5D X:00 Y:69 P:27 SP:FB PPU:256
CFF8  A2 81     LDX A:5D X:00 Y:69 P:27 SP:FB PPU:262
CFFA  A1 FF     LDA A:5D X:81 Y:69 P:A5 SP:FB PPU:268
CFFC  C9 5A     CMP A:5A X:81 Y:69 P:25 SP:FB PPU:286
CFFE  F0 05     BEQ A:5A X:81 Y:69 P:27 SP:FB PPU:292
D005  A9 AA     LDA A:5A X:81 Y:69 P:27 SP:FB PPU:301
D007  A2 00     LDX A:AA X:81 Y:69 P:A5 SP:FB PPU:307
D009  81 80     STA A:AA X:00 Y:69 P:27 SP:FB PPU:313
D00B  E8        INX A:AA X:00 Y:69 P:27 SP:FB PPU:331
D00C  E8        INX A:AA X:01 Y:69 P:25 SP:FB PPU:337
D00D  A9 AB     LDA A:AA X:02 Y:69 P:25 SP:FB PPU:  2
D00F  81 80     STA A:AB X:02 Y:69 P:A5 SP:FB PPU:  8
D011  E8        INX A:AB X:02 Y:69 P:A5 SP:FB PPU: 26
D012  A9 AC     LDA A:AB X:03 Y:69 P:25 SP:FB PPU: 32
D014  81 80     STA A:AC X:03 Y:69 P:A5 SP:FB PPU: 38
D016  A2 00     LDX A:AC X:03 Y:69 P:A5 SP:FB PPU: 56
D018  A9 AD     LDA A:AC X:00 Y:69 P:27 SP:FB PPU: 62
D01A  81 FF     STA A:AD X:00 Y:69 P:A5 SP:FB PPU: 68
D01C  AD 00 02  LDA A:AD X:00 Y:69 P:A5 SP:FB PPU: 86
D01F  C9 AA     CMP A:AA X:00 Y:69 P:A5 SP:FB PPU: 98
D021  D0 15     BNE A:AA X:00 Y:69 P:27 SP:FB PPU:104
D023  AD 00 03  LDA A:AA X:00 Y:69 P:27 SP:FB PPU:110
D026  C9 AB     CMP A:AB X:00 Y:69 P:A5 SP:FB PPU:122
D028  D0 0E     BNE A:AB X:00 Y:69 P:27 SP:FB PPU:128
D02A  AD 03 03  LDA A:AB X:00 Y:69 P:27 SP:FB PPU:134
D02D  C9 AC     CMP A:AC X:00 Y:69 P:A5 SP:FB PPU:146
D02F  D0 07     BNE A:AC X:00 Y:69 P:27 SP:FB PPU:152
D031  AD 00 04  LDA A:AC X:00 Y:69 P:27 SP:FB PPU:158
D034  C9 AD     CMP A:AD X:00 Y:69 P:A5 SP:FB PPU:170
D036  F0 05     BEQ A:AD X:00 Y:69 P:27 SP:FB PPU:176
D03D  AD FF 07  LDA A:AD X:00 Y:69 P:27 SP:FB PPU:185
D040  85 00     STA A:00 X:00 Y:69 P:27 SP:FB PPU:197
D042  A9 00     LDA A:00 X:00 Y:69 P:27 SP:FB PPU:206
D044  8D 00 03  STA A:00 X:00 Y:69 P:27 SP:FB PPU:212
D047  A9 AA     LDA A:00 X:00 Y:69 P:27 SP:FB PPU:224
D049  8D 00 02  STA A:AA X:00 Y:69 P:A5 SP:FB PPU:230
D04C  A2 00     LDX A:AA X:00 Y:69 P:A5 SP:FB PPU:242
D04E  A0 5A     LDY A:AA X:00 Y:69 P:27 SP:FB PPU:248
D050  20 B6 F7  JSR A:AA X:00 Y:5A P:25 SP:FB PPU:254
F7B6  18        CLC A:AA X:00 Y:5A P:25 SP:F9 PPU:272
F7B7  A9 FF     LDA A:AA X:00 Y:5A P:24 SP:F9 PPU:278
F7B9  85 01     STA A:FF X:00 Y:5A P:A4 SP:F9 PPU:284
F7BB  24 01     BIT A:FF X:00 Y:5A P:A4 SP:F9 PPU:293
F7BD  A9 55     LDA A:FF X:00 Y:5A P:E4 SP:F9 PPU:302
F7BF  60        RTS A:55 X:00 Y:5A P:64 SP:F9 PPU:308
D053  01 80     ORA A:55 X:00 Y:5A P:64 SP:FB PPU:326
D055  20 C0 F7  JSR A:FF X:00 Y:5A P:E4 SP:FB PPU:  3
F7C0  B0 09     BCS A:FF X:00 Y:5A P:E4 SP:F9 PPU: 21
F7C2  10 07     BPL A:FF X:00 Y:5A P:E4 SP:F9 PPU: 27
F7C4  C9 FF     CMP A:FF X:00 Y:5A P:E4 SP:F9 PPU: 33
F7C6  D0 03     BNE A:FF X:00 Y:5A P:67 SP:F9 PPU: 39
F7C8  50 01     BVC A:FF X:00 Y:5A P:67 SP:F9 PPU: 45
F7CA  60        RTS A:FF X:00 Y:5A P:67 SP:F9 PPU: 51
D058  C8        INY A:FF X:00 Y:5A P:67 SP:FB PPU: 69
D059  20 CE F7  JSR A:FF X:00 Y:5B P:65 SP:FB PPU: 75
F7CE  38        SEC A:FF X:00 Y:5B P:65 SP:F9 PPU: 93
F7CF  B8        CLV A:FF X:00 Y:5B P:65 SP:F9 PPU: 99
F7D0  A9 00     LDA A:FF X:00 Y:5B P:25 SP:F9 PPU:105
F7D2  60        RTS A:00 X:00 Y:5B P:27 SP:F9 PPU:111
D05C  01 82     ORA A:00 X:00 Y:5B P:27 SP:FB PPU:129
D05E  20 D3 F7  JSR A:00 X:00 Y:5B P:27 SP:FB PPU:147
F7D3  D0 07     BNE A:00 X:00 Y:5B P:27 SP:F9 PPU:165
F7D5  70 05     BVS A:00 X:00 Y:5B P:27 SP:F9 PPU:171
F7D7  90 03     BCC A:00 X:00 Y:5B P:27 SP:F9 PPU:177
F7D9  30 01     BMI A:00 X:00 Y:5B P:27 SP:F9 PPU:183
F7DB  60        RTS A:00 X:00 Y:5B P:27 SP:F9 PPU:189
D061  C8        INY A:00 X:00 Y:5B P:27 SP:FB PPU:207
D062  20 DF F7  JSR A:00 X:00 Y:5C P:25 SP:FB PPU:213
F7DF  18        CLC A:00 X:00 Y:5C P:25 SP:F9 PPU:231
F7E0  24 01     BIT A:00 X:00 Y:5C P:24 SP:F9 PPU:237
F7E2  A9 55     LDA A:00 X:00 Y:5C P:E6 SP:F9 PPU:246
F7E4  60        RTS A:55 X:00 Y:5C P:64 SP:F9 PPU:252
D065  21 80     AND A:55 X:00 Y:5C P:64 SP:FB PPU:270
D067  20 E5 F7  JSR A:00 X:00 Y:5C P:66 SP:FB PPU:288
F7E5  D0 07     BNE A:00 X:00 Y:5C P:66 SP:F9 PPU:306
F7E7  50 05     BVC A:00 X:00 Y:5C P:66 SP:F9 PPU:312
F7E9  B0 03     BCS A:00 X:00 Y:5C P:66 SP:F9 PPU:318
F7EB  30 01     BMI A:00 X:00 Y:5C P:66 SP:F9 PPU:324
F7ED  60        RTS A:00 X:00 Y:5C P:66 SP:F9 PPU:330
D06A  C8        INY A:00 X:00 Y:5C P:66 SP:FB PPU:  7
D06B  A9 EF     LDA A:00 X:00 Y:5D P:64 SP:FB PPU: 13
D06D  8D 00 03  STA A:EF X:00 Y:5D P:E4 SP:FB PPU: 19
D070  20 F1 F7  JSR A:EF X:00 Y:5D P:E4 SP:FB PPU: 31
F7F1  38        SEC A:EF X:00 Y:5D P:E4 SP:F9 PPU: 49
F7F2  B8        CLV A:EF X:00 Y:5D P:E5 SP:F9 PPU: 55
F7F3  A9 F8     LDA A:EF X:00 Y:5D P:A5 SP:F9 PPU: 61
F7F5  60        RTS A:F8 X:00 Y:5D P:A5 SP:F9 PPU: 67
D073  21 82     AND A:F8 X:00 Y:5D P:A5 SP:FB PPU: 85
D075  20 F6 F7  JSR A:E8 X:00 Y:5D P:A5 SP:FB PPU:103
F7F6  90 09     BCC A:E8 X:00 Y:5D P:A5 SP:F9 PPU:121
F7F8  10 07     BPL A:E8 X:00 Y:5D P:A5 SP:F9 PPU:127
F7FA  C9 E8     CMP A:E8 X:00 Y:5D P:A5 SP:F9 PPU:133
F7FC  D0 03     BNE A:E8 X:00 Y:5D P:27 SP:F9 PPU:139
F7FE  70 01     BVS A:E8 X:00 Y:5D P:27 SP:F9 PPU:145
F800  60        RTS A:E8 X:00 Y:5D P:27 SP:F9 PPU:151
D078  C8        INY A:E8 X:00 Y:5D P:27 SP:FB PPU:169
D079  20 04 F8  JSR A:E8 X:00 Y:5E P:25 SP:FB PPU:175
F804  18        CLC A:E8 X:00 Y:5E P:25 SP:F9 PPU:193
F805  24 01     BIT A:E8 X:00 Y:5E P:24 SP:F9 PPU:199
F807  A9 5F     LDA A:E8 X:00 Y:5E P:E4 SP:F9 PPU:208
F809  60        RTS A:5F X:00 Y:5E P:64 SP:F9 PPU:214
D07C  41 80     EOR A:5F X:00 Y:5E P:64 SP:FB PPU:232
D07E  20 0A F8  JSR A:F5 X:00 Y:5E P:E4 SP:FB PPU:250
F80A  B0 09     BCS A:F5 X:00 Y:5E P:E4 SP:F9 PPU:268
F80C  10 07     BPL A:F5 X:00 Y:5E P:E4 SP:F9 PPU:274
F80E  C9 F5     CMP A:F5 X:00 Y:5E P:E4 SP:F9 PPU:280
F810  D0 03     BNE A:F5 X:00 Y:5E P:67 SP:F9 PPU:286
F812  50 01     BVC A:F5 X:00 Y:5E P:67 SP:F9 PPU:292
F814  60        RTS A:F5 X:00 Y:5E P:67 SP:F9 PPU:298
D081  C8        INY A:F5 X:00 Y:5E P:67 SP:FB PPU:316
D082  A9 70     LDA A:F5 X:00 Y:5F P:65 SP:FB PPU:322
D084  8D 00 03  STA A:70 X:00 Y:5F P:65 SP:FB PPU:328
D087  20 18 F8  JSR A:70 X:00 Y:5F P:65 SP:FB PPU:340
F818  38        SEC A:70 X:00 Y:5F P:65 SP:F9 PPU: 17
F819  B8        CLV A:70 X:00 Y:5F P:65 SP:F9 PPU: 23
F81A  A9 70     LDA A:70 X:00 Y:5F P:25 SP:F9 PPU: 29
F81C  60        RTS A:70 X:00 Y:5F P:25 SP:F9 PPU: 35
D08A  41 82     EOR A:70 X:00 Y:5F P:25 SP:FB PPU: 53
D08C  20 1D F8  JSR A:00 X:00 Y:5F P:27 SP:FB PPU: 71
F81D  D0 07     BNE A:00 X:00 Y:5F P:27 SP:F9 PPU: 89
F81F  70 05     BVS A:00 X:00 Y:5F P:27 SP:F9 PPU: 95
F821  90 03     BCC A:00 X:00 Y:5F P:27 SP:F9 PPU:101
F823  30 01     BMI A:00 X:00 Y:5F P:27 SP:F9 PPU:107
F825  60        RTS A:00 X:00 Y:5F P:27 SP:F9 PPU:113
D08F  C8        INY A:00 X:00 Y:5F P:27 SP:FB PPU:131
D090  A9 69     LDA A:00 X:00 Y:60 P:25 SP:FB PPU:137
D092  8D 00 02  STA A:69 X:00 Y:60 P:25 SP:FB PPU:143
D095  20 29 F8  JSR A:69 X:00 Y:60 P:25 SP:FB PPU:155
F829  18        CLC A:69 X:00 Y:60 P:25 SP:F9 PPU:173
F82A  24 01     BIT A:69 X:00 Y:60 P:24 SP:F9 PPU:179
F82C  A9 00     LDA A:69 X:00 Y:60 P:E4 SP:F9 PPU:188
F82E  60        RTS A:00 X:00 Y:60 P:66 SP:F9 PPU:194
D098  61 80     ADC A:00 X:00 Y:60 P:66 SP:FB PPU:212
D09A  20 2F F8  JSR A:69 X:00 Y:60 P:24 SP:FB PPU:230
F82F  30 09     BMI A:69 X:00 Y:60 P:24 SP:F9 PPU:248
F831  B0 07     BCS A:69 X:00 Y:60 P:24 SP:F9 PPU:254
F833  C9 69     CMP A:69 X:00 Y:60 P:24 SP:F9 PPU:260
F835  D0 03     BNE A:69 X:00 Y:60 P:27 SP:F9 PPU:266
F837  70 01     BVS A:69 X:00 Y:60 P:27 SP:F9 PPU:272
F839  60        RTS A:69 X:00 Y:60 P:27 SP:F9 PPU:278
D09D  C8        INY A:69 X:00 Y:60 P:27 SP:FB PPU:296
D09E  20 3D F8  JSR A:69 X:00 Y:61 P:25 SP:FB PPU:302
F83D  38        SEC A:69 X:00 Y:61 P:25 SP:F9 PPU:320
F83E  24 01     BIT A:69 X:00 Y:61 P:25 SP:F9 PPU:326
F840  A9 00     LDA A:69 X:00 Y:61 P:E5 SP:F9 PPU:335
F842  60        RTS A:00 X:00 Y:61 P:67 SP:F9 PPU:  0
D0A1  61 80     ADC A:00 X:00 Y:61 P:67 SP:FB PPU: 18
D0A3  20 43 F8  JSR A:6A X:00 Y:61 P:24 SP:FB PPU: 36
F843  30 09     BMI A:6A X:00 Y:61 P:24 SP:F9 PPU: 54
F845  B0 07     BCS A:6A X:00 Y:61 P:24 SP:F9 PPU: 60
F847  C9 6A     CMP A:6A X:00 Y:61 P:24 SP:F9 PPU: 66
F849  D0 03     BNE A:6A X:00 Y:61 P:27 SP:F9 PPU: 72
F84B  70 01     BVS A:6A X:00 Y:61 P:27 SP:F9 PPU: 78
F84D  60        RTS A:6A X:00 Y:61 P:27 SP:F9 PPU: 84
D0A6  C8        INY A:6A X:00 Y:61 P:27 SP:FB PPU:102
D0A7  A9 7F     LDA A:6A X:00 Y:62 P:25 SP:FB PPU:108
D0A9  8D 00 02  STA A:7F X:00 Y:62 P:25 SP:FB PPU:114
D0AC  20 51 F8  JSR A:7F X:00 Y:62 P:25 SP:FB PPU:126
F851  38        SEC A:7F X:00 Y:62 P:25 SP:F9 PPU:144
F852  B8        CLV A:7F X:00 Y:62 P:25 SP:F9 PPU:150
F853  A9 7F     LDA A:7F X:00 Y:62 P:25 SP:F9 PPU:156
F855  60        RTS A:7F X:00 Y:62 P:25 SP:F9 PPU:162
D0AF  61 80     ADC A:7F X:00 Y:62 P:25 SP:FB PPU:180
D0B1  20 56 F8  JSR A:FF X:00 Y:62 P:E4 SP:FB PPU:198
F856  10 09     BPL A:FF X:00 Y:62 P:E4 SP:F9 PPU:216
F858  B0 07     BCS A:FF X:00 Y:62 P:E4 SP:F9 PPU:222
F85A  C9 FF     CMP A:FF X:00 Y:62 P:E4 SP:F9 PPU:228
F85C  D0 03     BNE A:FF X:00 Y:62 P:67 SP:F9 PPU:234
F85E  50 01     BVC A:FF X:00 Y:62 P:67 SP:F9 PPU:240
F860  60        RTS A:FF X:00 Y:62 P:67 SP:F9 PPU:246
D0B4  C8        INY A:FF X:00 Y:62 P:67 SP:FB PPU:264
D0B5  A9 80     LDA A:FF X:00 Y:63 P:65 SP:FB PPU:270
D0B7  8D 00 02  STA A:80 X:00 Y:63 P:E5 SP:FB PPU:276
D0BA  20 64 F8  JSR A:80 X:00 Y:63 P:E5 SP:FB PPU:288
F864  18        CLC A:80 X:00 Y:63 P:E5 SP:F9 PPU:306
F865  24 01     BIT A:80 X:00 Y:63 P:E4 SP:F9 PPU:312
F867  A9 7F     LDA A:80 X:00 Y:63 P:E4 SP:F9 PPU:321
F869  60        RTS A:7F X:00 Y:63 P:64 SP:F9 PPU:327
D0BD  61 80     ADC A:7F X:00 Y:63 P:64 SP:FB PPU:  4
D0BF  20 6A F8  JSR A:FF X:00 Y:63 P:A4 SP:FB PPU: 22
F86A  10 09     BPL A:FF X:00 Y:63 P:A4 SP:F9 PPU: 40
F86C  B0 07     BCS A:FF X:00 Y:63 P:A4 SP:F9 PPU: 46
F86E  C9 FF     CMP A:FF X:00 Y:63 P:A4 SP:F9 PPU: 52
F870  D0 03     BNE A:FF X:00 Y:63 P:27 SP:F9 PPU: 58
F872  70 01     BVS A:FF X:00 Y:63 P:27 SP:F9 PPU: 64
F874  60        RTS A:FF X:00 Y:63 P:27 SP:F9 PPU: 70
D0C2  C8        INY A:FF X:00 Y:63 P:27 SP:FB PPU: 88
D0C3  20 78 F8  JSR A:FF X:00 Y:64 P:25 SP:FB PPU: 94
F878  38        SEC A:FF X:00 Y:64 P:25 SP:F9 PPU:112
F879  B8        CLV A:FF X:00 Y:64 P:25 SP:F9 PPU:118
F87A  A9 7F     LDA A:FF X:00 Y:64 P:25 SP:F9 PPU:124
F87C  60        RTS A:7F X:00 Y:64 P:25 SP:F9 PPU:130
D0C6  61 80     ADC A:7F X:00 Y:64 P:25 SP:FB PPU:148
D0C8  20 7D F8  JSR A:00 X:00 Y:64 P:27 SP:FB PPU:166
F87D  D0 07     BNE A:00 X:00 Y:64 P:27 SP:F9 PPU:184
F87F  30 05     BMI A:00 X:00 Y:64 P:27 SP:F9 PPU:190
F881  70 03     BVS A:00 X:00 Y:64 P:27 SP:F9 PPU:196
F883  90 01     BCC A:00 X:00 Y:64 P:27 SP:F9 PPU:202
F885  60        RTS A:00 X:00 Y:64 P:27 SP:F9 PPU:208
D0CB  C8        INY A:00 X:00 Y:64 P:27 SP:FB PPU:226
D0CC  A9 40     LDA A:00 X:00 Y:65 P:25 SP:FB PPU:232
D0CE  8D 00 02  STA A:40 X:00 Y:65 P:25 SP:FB PPU:238
D0D1  20 89 F8  JSR A:40 X:00 Y:65 P:25 SP:FB PPU:250
F889  24 01     BIT A:40 X:00 Y:65 P:25 SP:F9 PPU:268
F88B  A9 40     LDA A:40 X:00 Y:65 P:E5 SP:F9 PPU:277
F88D  60        RTS A:40 X:00 Y:65 P:65 SP:F9 PPU:283
D0D4  C1 80     CMP A:40 X:00 Y:65 P:65 SP:FB PPU:301
D0D6  20 8E F8  JSR A:40 X:00 Y:65 P:67 SP:FB PPU:319
F88E  30 07     BMI A:40 X:00 Y:65 P:67 SP:F9 PPU:337
F890  90 05     BCC A:40 X:00 Y:65 P:67 SP:F9 PPU:  2
F892  D0 03     BNE A:40 X:00 Y:65 P:67 SP:F9 PPU:  8
F894  50 01     BVC A:40 X:00 Y:65 P:67 SP:F9 PPU: 14
F896  60        RTS A:40 X:00 Y:65 P:67 SP:F9 PPU: 20
D0D9  C8        INY A:40 X:00 Y:65 P:67 SP:FB PPU: 38
D0DA  48        PHA A:40 X:00 Y:66 P:65 SP:FB PPU: 44
D0DB  A9 3F     LDA A:40 X:00 Y:66 P:65 SP:FA PPU: 53
D0DD  8D 00 02  STA A:3F X:00 Y:66 P:65 SP:FA PPU: 59
D0E0  68        PLA A:3F X:00 Y:66 P:65 SP:FA PPU: 71
D0E1  20 9A F8  JSR A:40 X:00 Y:66 P:65 SP:FB PPU: 83
F89A  B8        CLV A:40 X:00 Y:66 P:65 SP:F9 PPU:101
F89B  60        RTS A:40 X:00 Y:66 P:25 SP:F9 PPU:107
D0E4  C1 80     CMP A:40 X:00 Y:66 P:25 SP:FB PPU:125
D0E6  20 9C F8  JSR A:40 X:00 Y:66 P:25 SP:FB PPU:143
F89C  F0 07     BEQ A:40 X:00 Y:66 P:25 SP:F9 PPU:161
F89E  30 05     BMI A:40 X:00 Y:66 P:25 SP:F9 PPU:167
F8A0  90 03     BCC A:40 X:00 Y:66 P:25 SP:F9 PPU:173
F8A2  70 01     BVS A:40 X:00 Y:66 P:25 SP:F9 PPU:179
F8A4  60        RTS A:40 X:00 Y:66 P:25 SP:F9 PPU:185
D0E9  C8        INY A:40 X:00 Y:66 P:25 SP:FB PPU:203
D0EA  48        PHA A:40 X:00 Y:67 P:25 SP:FB PPU:209
D0EB  A9 41     LDA A:40 X:00 Y:67 P:25 SP:FA PPU:218
D0ED  8D 00 02  STA A:41 X:00 Y:67 P:25 SP:FA PPU:224
D0F0  68        PLA A:41 X:00 Y:67 P:25 SP:FA PPU:236
D0F1  C1 80     CMP A:40 X:00 Y:67 P:25 SP:FB PPU:248
D0F3  20 A8 F8  JSR A:40 X:00 Y:67 P:A4 SP:FB PPU:266
F8A8  F0 05     BEQ A:40 X:00 Y:67 P:A4 SP:F9 PPU:284
F8AA  10 03     BPL A:40 X:00 Y:67 P:A4 SP:F9 PPU:290
F8AC  10 01     BPL A:40 X:00 Y:67 P:A4 SP:F9 PPU:296
F8AE  60        RTS A:40 X:00 Y:67 P:A4 SP:F9 PPU:302
D0F6  C8        INY A:40 X:00 Y:67 P:A4 SP:FB PPU:320
D0F7  48        PHA A:40 X:00 Y:68 P:24 SP:FB PPU:326
D0F8  A9 00     LDA A:40 X:00 Y:68 P:24 SP:FA PPU:335
D0FA  8D 00 02  STA A:00 X:00 Y:68 P:26 SP:FA PPU:  0
D0FD  68        PLA A:00 X:00 Y:68 P:26 SP:FA PPU: 12
D0FE  20 B2 F8  JSR A:40 X:00 Y:68 P:24 SP:FB PPU: 24
F8B2  A9 80     LDA A:40 X:00 Y:68 P:24 SP:F9 PPU: 42
F8B4  60        RTS A:80 X:00 Y:68 P:A4 SP:F9 PPU: 48
D101  C1 80     CMP A:80 X:00 Y:68 P:A4 SP:FB PPU: 66
D103  20 B5 F8  JSR A:80 X:00 Y:68 P:A5 SP:FB PPU: 84
F8B5  F0 05     BEQ A:80 X:00 Y:68 P:A5 SP:F9 PPU:102
F8B7  10 03     BPL A:80 X:00 Y:68 P:A5 SP:F9 PPU:108
F8B9  90 01     BCC A:80 X:00 Y:68 P:A5 SP:F9 PPU:114
F8BB  60        RTS A:80 X:00 Y:68 P:A5 SP:F9 PPU:120
D106  C8        INY A:80 X:00 Y:68 P:A5 SP:FB PPU:138
D107  48        PHA A:80 X:00 Y:69 P:25 SP:FB PPU:144
D108  A9 80     LDA A:80 X:00 Y:69 P:25 SP:FA PPU:153
D10A  8D 00 02  STA A:80 X:00 Y:69 P:A5 SP:FA PPU:159
D10D  68        PLA A:80 X:00 Y:69 P:A5 SP:FA PPU:171
D10E  C1 80     CMP A:80 X:00 Y:69 P:A5 SP:FB PPU:183
D110  20 BF F8  JSR A:80 X:00 Y:69 P:27 SP:FB PPU:201
F8BF  D0 05     BNE A:80 X:00 Y:69 P:27 SP:F9 PPU:219
F8C1  30 03     BMI A:80 X:00 Y:69 P:27 SP:F9 PPU:225
F8C3  90 01     BCC A:80 X:00 Y:69 P:27 SP:F9 PPU:231
F8C5  60        RTS A:80 X:00 Y:69 P:27 SP:F9 PPU:237
D113  C8        INY A:80 X:00 Y:69 P:27 SP:FB PPU:255
D114  48        PHA A:80 X:00 Y:6A P:25 SP:FB PPU:261
D115  A9 81     LDA A:80 X:00 Y:6A P:25 SP:FA PPU:270
D117  8D 00 02  STA A:81 X:00 Y:6A P:A5 SP:FA PPU:276
D11A  68        PLA A:81 X:00 Y:6A P:A5 SP:FA PPU:288
D11B  C1 80     CMP A:80 X:00 Y:6A P:A5 SP:FB PPU:300
D11D  20 C9 F8  JSR A:80 X:00 Y:6A P:A4 SP:FB PPU:318
F8C9  B0 05     BCS A:80 X:00 Y:6A P:A4 SP:F9 PPU:336
F8CB  F0 03     BEQ A:80 X:00 Y:6A P:A4 SP:F9 PPU:  1
F8CD  10 01     BPL A:80 X:00 Y:6A P:A4 SP:F9 PPU:  7
F8CF  60        RTS A:80 X:00 Y:6A P:A4 SP:F9 PPU: 13
D120  C8        INY A:80 X:00 Y:6A P:A4 SP:FB PPU: 31
D121  48        PHA A:80 X:00 Y:6B P:24 SP:FB PPU: 37
D122  A9 7F     LDA A:80 X:00 Y:6B P:24 SP:FA PPU: 46
D124  8D 00 02  STA A:7F X:00 Y:6B P:24 SP:FA PPU: 52
D127  68        PLA A:7F X:00 Y:6B P:24 SP:FA PPU: 64
D128  C1 80     CMP A:80 X:00 Y:6B P:A4 SP:FB PPU: 76
D12A  20 D3 F8  JSR A:80 X:00 Y:6B P:25 SP:FB PPU: 94
F8D3  90 05     BCC A:80 X:00 Y:6B P:25 SP:F9 PPU:112
F8D5  F0 03     BEQ A:80 X:00 Y:6B P:25 SP:F9 PPU:118
F8D7  30 01     BMI A:80 X:00 Y:6B P:25 SP:F9 PPU:124
F8D9  60        RTS A:80 X:00 Y:6B P:25 SP:F9 PPU:130
D12D  C8        INY A:80 X:00 Y:6B P:25 SP:FB PPU:148
D12E  A9 40     LDA A:80 X:00 Y:6C P:25 SP:FB PPU:154
D130  8D 00 02  STA A:40 X:00 Y:6C P:25 SP:FB PPU:160
D133  20 31 F9  JSR A:40 X:00 Y:6C P:25 SP:FB PPU:172
F931  24 01     BIT A:40 X:00 Y:6C P:25 SP:F9 PPU:190
F933  A9 40     LDA A:40 X:00 Y:6C P:E5 SP:F9 PPU:199
F935  38        SEC A:40 X:00 Y:6C P:65 SP:F9 PPU:205
F936  60        RTS A:40 X:00 Y:6C P:65 SP:F9 PPU:211
D136  E1 80     SBC A:40 X:00 Y:6C P:65 SP:FB PPU:229
D138  20 37 F9  JSR A:00 X:00 Y:6C P:27 SP:FB PPU:247
F937  30 0B     BMI A:00 X:00 Y:6C P:27 SP:F9 PPU:265
F939  90 09     BCC A:00 X:00 Y:6C P:27 SP:F9 PPU:271
F93B  D0 07     BNE A:00 X:00 Y:6C P:27 SP:F9 PPU:277
F93D  70 05     BVS A:00 X:00 Y:6C P:27 SP:F9 PPU:283
F93F  C9 00     CMP A:00 X:00 Y:6C P:27 SP:F9 PPU:289
F941  D0 01     BNE A:00 X:00 Y:6C P:27 SP:F9 PPU:295
F943  60        RTS A:00 X:00 Y:6C P:27 SP:F9 PPU:301
D13B  C8        INY A:00 X:00 Y:6C P:27 SP:FB PPU:319
D13C  A9 3F     LDA A:00 X:00 Y:6D P:25 SP:FB PPU:325
D13E  8D 00 02  STA A:3F X:00 Y:6D P:25 SP:FB PPU:331
D141  20 47 F9  JSR A:3F X:00 Y:6D P:25 SP:FB PPU:  2
F947  B8        CLV A:3F X:00 Y:6D P:25 SP:F9 PPU: 20
F948  38        SEC A:3F X:00 Y:6D P:25 SP:F9 PPU: 26
F949  A9 40     LDA A:3F X:00 Y:6D P:25 SP:F9 PPU: 32
F94B  60        RTS A:40 X:00 Y:6D P:25 SP:F9 PPU: 38
D144  E1 80     SBC A:40 X:00 Y:6D P:25 SP:FB PPU: 56
D146  20 4C F9  JSR A:01 X:00 Y:6D P:25 SP:FB PPU: 74
F94C  F0 0B     BEQ A:01 X:00 Y:6D P:25 SP:F9 PPU: 92
F94E  30 09     BMI A:01 X:00 Y:6D P:25 SP:F9 PPU: 98
F950  90 07     BCC A:01 X:00 Y:6D P:25 SP:F9 PPU:104
F952  70 05     BVS A:01 X:00 Y:6D P:25 SP:F9 PPU:110
F954  C9 01     CMP A:01 X:00 Y:6D P:25 SP:F9 PPU:116
F956  D0 01     BNE A:01 X:00 Y:6D P:27 SP:F9 PPU:122
F958  60        RTS A:01 X:00 Y:6D P:27 SP:F9 PPU:128
D149  C8        INY A:01 X:00 Y:6D P:27 SP:FB PPU:146
D14A  A9 41     LDA A:01 X:00 Y:6E P:25 SP:FB PPU:152
D14C  8D 00 02  STA A:41 X:00 Y:6E P:25 SP:FB PPU:158
D14F  20 5C F9  JSR A:41 X:00 Y:6E P:25 SP:FB PPU:170
F95C  A9 40     LDA A:41 X:00 Y:6E P:25 SP:F9 PPU:188
F95E  38        SEC A:40 X:00 Y:6E P:25 SP:F9 PPU:194
F95F  24 01     BIT A:40 X:00 Y:6E P:25 SP:F9 PPU:200
F961  60        RTS A:40 X:00 Y:6E P:E5 SP:F9 PPU:209
D152  E1 80     SBC A:40 X:00 Y:6E P:E5 SP:FB PPU:227
D154  20 62 F9  JSR A:FF X:00 Y:6E P:A4 SP:FB PPU:245
F962  B0 0B     BCS A:FF X:00 Y:6E P:A4 SP:F9 PPU:263
F964  F0 09     BEQ A:FF X:00 Y:6E P:A4 SP:F9 PPU:269
F966  10 07     BPL A:FF X:00 Y:6E P:A4 SP:F9 PPU:275
F968  70 05     BVS A:FF X:00 Y:6E P:A4 SP:F9 PPU:281
F96A  C9 FF     CMP A:FF X:00 Y:6E P:A4 SP:F9 PPU:287
F96C  D0 01     BNE A:FF X:00 Y:6E P:27 SP:F9 PPU:293
F96E  60        RTS A:FF X:00 Y:6E P:27 SP:F9 PPU:299
D157  C8        INY A:FF X:00 Y:6E P:27 SP:FB PPU:317
D158  A9 00     LDA A:FF X:00 Y:6F P:25 SP:FB PPU:323
D15A  8D 00 02  STA A:00 X:00 Y:6F P:27 SP:FB PPU:329
D15D  20 72 F9  JSR A:00 X:00 Y:6F P:27 SP:FB PPU:  0
F972  18        CLC A:00 X:00 Y:6F P:27 SP:F9 PPU: 18
F973  A9 80     LDA A:00 X:00 Y:6F P:26 SP:F9 PPU: 24
F975  60        RTS A:80 X:00 Y:6F P:A4 SP:F9 PPU: 30
D160  E1 80     SBC A:80 X:00 Y:6F P:A4 SP:FB PPU: 48
D162  20 76 F9  JSR A:7F X:00 Y:6F P:65 SP:FB PPU: 66
F976  90 05     BCC A:7F X:00 Y:6F P:65 SP:F9 PPU: 84
F978  C9 7F     CMP A:7F X:00 Y:6F P:65 SP:F9 PPU: 90
F97A  D0 01     BNE A:7F X:00 Y:6F P:67 SP:F9 PPU: 96
F97C  60        RTS A:7F X:00 Y:6F P:67 SP:F9 PPU:102
D165  C8        INY A:7F X:00 Y:6F P:67 SP:FB PPU:120
D166  A9 7F     LDA A:7F X:00 Y:70 P:65 SP:FB PPU:126
D168  8D 00 02  STA A:7F X:00 Y:70 P:65 SP:FB PPU:132
D16B  20 80 F9  JSR A:7F X:00 Y:70 P:65 SP:FB PPU:144
F980  38        SEC A:7F X:00 Y:70 P:65 SP:F9 PPU:162
F981  A9 81     LDA A:7F X:00 Y:70 P:65 SP:F9 PPU:168
F983  60        RTS A:81 X:00 Y:70 P:E5 SP:F9 PPU:174
D16E  E1 80     SBC A:81 X:00 Y:70 P:E5 SP:FB PPU:192
D170  20 84 F9  JSR A:02 X:00 Y:70 P:65 SP:FB PPU:210
F984  50 07     BVC A:02 X:00 Y:70 P:65 SP:F9 PPU:228
F986  90 05     BCC A:02 X:00 Y:70 P:65 SP:F9 PPU:234
F988  C9 02     CMP A:02 X:00 Y:70 P:65 SP:F9 PPU:240
F98A  D0 01     BNE A:02 X:00 Y:70 P:67 SP:F9 PPU:246
F98C  60        RTS A:02 X:00 Y:70 P:67 SP:F9 PPU:252
D173  60        RTS A:02 X:00 Y:70 P:67 SP:FB PPU:270
C612  20 74 D1  JSR A:02 X:00 Y:70 P:67 SP:FD PPU:288
D174  A9 55     LDA A:02 X:00 Y:70 P:67 SP:FB PPU:306
D176  85 78     STA A:55 X:00 Y:70 P:65 SP:FB PPU:312
D178  A9 FF     LDA A:55 X:00 Y:70 P:65 SP:FB PPU:321
D17A  85 01     STA A:FF X:00 Y:70 P:E5 SP:FB PPU:327
D17C  24 01     BIT A:FF X:00 Y:70 P:E5 SP:FB PPU:336
D17E  A0 11     LDY A:FF X:00 Y:70 P:E5 SP:FB PPU:  4
D180  A2 23     LDX A:FF X:00 Y:11 P:65 SP:FB PPU: 10
D182  A9 00     LDA A:FF X:23 Y:11 P:65 SP:FB PPU: 16
D184  A5 78     LDA A:00 X:23 Y:11 P:67 SP:FB PPU: 22
D186  F0 10     BEQ A:55 X:23 Y:11 P:65 SP:FB PPU: 31
D188  30 0E     BMI A:55 X:23 Y:11 P:65 SP:FB PPU: 37
D18A  C9 55     CMP A:55 X:23 Y:11 P:65 SP:FB PPU: 43
D18C  D0 0A     BNE A:55 X:23 Y:11 P:67 SP:FB PPU: 49
D18E  C0 11     CPY A:55 X:23 Y:11 P:67 SP:FB PPU: 55
D190  D0 06     BNE A:55 X:23 Y:11 P:67 SP:FB PPU: 61
D192  E0 23     CPX A:55 X:23 Y:11 P:67 SP:FB PPU: 67
D194  50 02     BVC A:55 X:23 Y:11 P:67 SP:FB PPU: 73
D196  F0 04     BEQ A:55 X:23 Y:11 P:67 SP:FB PPU: 79
D19C  A9 46     LDA A:55 X:23 Y:11 P:67 SP:FB PPU: 88
D19E  24 01     BIT A:46 X:23 Y:11 P:65 SP:FB PPU: 94
D1A0  85 78     STA A:46 X:23 Y:11 P:E5 SP:FB PPU:103
D1A2  F0 0A     BEQ A:46 X:23 Y:11 P:E5 SP:FB PPU:112
D1A4  10 08     BPL A:46 X:23 Y:11 P:E5 SP:FB PPU:118
D1A6  50 06     BVC A:46 X:23 Y:11 P:E5 SP:FB PPU:124
D1A8  A5 78     LDA A:46 X:23 Y:11 P:E5 SP:FB PPU:130
D1AA  C9 46     CMP A:46 X:23 Y:11 P:65 SP:FB PPU:139
D1AC  F0 04     BEQ A:46 X:23 Y:11 P:67 SP:FB PPU:145
D1B2  A9 55     LDA A:46 X:23 Y:11 P:67 SP:FB PPU:154
D1B4  85 78     STA A:55 X:23 Y:11 P:65 SP:FB PPU:160
D1B6  24 01     BIT A:55 X:23 Y:11 P:65 SP:FB PPU:169
D1B8  A9 11     LDA A:55 X:23 Y:11 P:E5 SP:FB PPU:178
D1BA  A2 23     LDX A:11 X:23 Y:11 P:65 SP:FB PPU:184
D1BC  A0 00     LDY A:11 X:23 Y:11 P:65 SP:FB PPU:190
D1BE  A4 78     LDY A:11 X:23 Y:00 P:67 SP:FB PPU:196
D1C0  F0 10     BEQ A:11 X:23 Y:55 P:65 SP:FB PPU:205
D1C2  30 0E     BMI A:11 X:23 Y:55 P:65 SP:FB PPU:211
D1C4  C0 55     CPY A:11 X:23 Y:55 P:65 SP:FB PPU:217
D1C6  D0 0A     BNE A:11 X:23 Y:55 P:67 SP:FB PPU:223
D1C8  C9 11     CMP A:11 X:23 Y:55 P:67 SP:FB PPU:229
D1CA  D0 06     BNE A:11 X:23 Y:55 P:67 SP:FB PPU:235
D1CC  E0 23     CPX A:11 X:23 Y:55 P:67 SP:FB PPU:241
D1CE  50 02     BVC A:11 X:23 Y:55 P:67 SP:FB PPU:247
D1D0  F0 04     BEQ A:11 X:23 Y:55 P:67 SP:FB PPU:253
D1D6  A0 46     LDY A:11 X:23 Y:55 P:67 SP:FB PPU:262
D1D8  24 01     BIT A:11 X:23 Y:46 P:65 SP:FB PPU:268
D1DA  84 78     STY A:11 X:23 Y:46 P:E5 SP:FB PPU:277
D1DC  F0 0A     BEQ A:11 X:23 Y:46 P:E5 SP:FB PPU:286
D1DE  10 08     BPL A:11 X:23 Y:46 P:E5 SP:FB PPU:292
D1E0  50 06     BVC A:11 X:23 Y:46 P:E5 SP:FB PPU:298
D1E2  A4 78     LDY A:11 X:23 Y:46 P:E5 SP:FB PPU:304
D1E4  C0 46     CPY A:11 X:23 Y:46 P:65 SP:FB PPU:313
D1E6  F0 04     BEQ A:11 X:23 Y:46 P:67 SP:FB PPU:319
D1EC  24 01     BIT A:11 X:23 Y:46 P:67 SP:FB PPU:328
D1EE  A9 55     LDA A:11 X:23 Y:46 P:E5 SP:FB PPU:337
D1F0  85 78     STA A:55 X:23 Y:46 P:65 SP:FB PPU:  2
D1F2  A0 11     LDY A:55 X:23 Y:46 P:65 SP:FB PPU: 11
D1F4  A9 23     LDA A:55 X:23 Y:11 P:65 SP:FB PPU: 17
D1F6  A2 00     LDX A:23 X:23 Y:11 P:65 SP:FB PPU: 23
D1F8  A6 78     LDX A:23 X:00 Y:11 P:67 SP:FB PPU: 29
D1FA  F0 10     BEQ A:23 X:55 Y:11 P:65 SP:FB PPU: 38
D1FC  30 0E     BMI A:23 X:55 Y:11 P:65 SP:FB PPU: 44
D1FE  E0 55     CPX A:23 X:55 Y:11 P:65 SP:FB PPU: 50
D200  D0 0A     BNE A:23 X:55 Y:11 P:67 SP:FB PPU: 56
D202  C0 11     CPY A:23 X:55 Y:11 P:67 SP:FB PPU: 62
D204  D0 06     BNE A:23 X:55 Y:11 P:67 SP:FB PPU: 68
D206  C9 23     CMP A:23 X:55 Y:11 P:67 SP:FB PPU: 74
D208  50 02     BVC A:23 X:55 Y:11 P:67 SP:FB PPU: 80
D20A  F0 04     BEQ A:23 X:55 Y:11 P:67 SP:FB PPU: 86
D210  A2 46     LDX A:23 X:55 Y:11 P:67 SP:FB PPU: 95
D212  24 01     BIT A:23 X:46 Y:11 P:65 SP:FB PPU:101
D214  86 78     STX A:23 X:46 Y:11 P:E5 SP:FB PPU:110
D216  F0 0A     BEQ A:23 X:46 Y:11 P:E5 SP:FB PPU:119
D218  10 08     BPL A:23 X:46 Y:11 P:E5 SP:FB PPU:125
D21A  50 06     BVC A:23 X:46 Y:11 P:E5 SP:FB PPU:131
D21C  A6 78     LDX A:23 X:46 Y:11 P:E5 SP:FB PPU:137
D21E  E0 46     CPX A:23 X:46 Y:11 P:65 SP:FB PPU:146
D220  F0 04     BEQ A:23 X:46 Y:11 P:67 SP:FB PPU:152
D226  A9 C0     LDA A:23 X:46 Y:11 P:67 SP:FB PPU:161
D228  85 78     STA A:C0 X:46 Y:11 P:E5 SP:FB PPU:167
D22A  A2 33     LDX A:C0 X:46 Y:11 P:E5 SP:FB PPU:176
D22C  A0 88     LDY A:C0 X:33 Y:11 P:65 SP:FB PPU:182
D22E  A9 05     LDA A:C0 X:33 Y:88 P:E5 SP:FB PPU:188
D230  24 78     BIT A:05 X:33 Y:88 P:65 SP:FB PPU:194
D232  10 10     BPL A:05 X:33 Y:88 P:E7 SP:FB PPU:203
D234  50 0E     BVC A:05 X:33 Y:88 P:E7 SP:FB PPU:209
D236  D0 0C     BNE A:05 X:33 Y:88 P:E7 SP:FB PPU:215
D238  C9 05     CMP A:05 X:33 Y:88 P:E7 SP:FB PPU:221
D23A  D0 08     BNE A:05 X:33 Y:88 P:67 SP:FB PPU:227
D23C  E0 33     CPX A:05 X:33 Y:88 P:67 SP:FB PPU:233
D23E  D0 04     BNE A:05 X:33 Y:88 P:67 SP:FB PPU:239
D240  C0 88     CPY A:05 X:33 Y:88 P:67 SP:FB PPU:245
D242  F0 04     BEQ A:05 X:33 Y:88 P:67 SP:FB PPU:251
D248  A9 03     LDA A:05 X:33 Y:88 P:67 SP:FB PPU:260
D24A  85 78     STA A:03 X:33 Y:88 P:65 SP:FB PPU:266
D24C  A9 01     LDA A:03 X:33 Y:88 P:65 SP:FB PPU:275
D24E  24 78     BIT A:01 X:33 Y:88 P:65 SP:FB PPU:281
D250  30 08     BMI A:01 X:33 Y:88 P:25 SP:FB PPU:290
D252  70 06     BVS A:01 X:33 Y:88 P:25 SP:FB PPU:296
D254  F0 04     BEQ A:01 X:33 Y:88 P:25 SP:FB PPU:302
D256  C9 01     CMP A:01 X:33 Y:88 P:25 SP:FB PPU:308
D258  F0 04     BEQ A:01 X:33 Y:88 P:27 SP:FB PPU:314
D25E  A0 7E     LDY A:01 X:33 Y:88 P:27 SP:FB PPU:323
D260  A9 AA     LDA A:01 X:33 Y:7E P:25 SP:FB PPU:329
D262  85 78     STA A:AA X:33 Y:7E P:A5 SP:FB PPU:335
D264  20 B6 F7  JSR A:AA X:33 Y:7E P:A5 SP:FB PPU:  3
F7B6  18        CLC A:AA X:33 Y:7E P:A5 SP:F9 PPU: 21
F7B7  A9 FF     LDA A:AA X:33 Y:7E P:A4 SP:F9 PPU: 27
F7B9  85 01     STA A:FF X:33 Y:7E P:A4 SP:F9 PPU: 33
F7BB  24 01     BIT A:FF X:33 Y:7E P:A4 SP:F9 PPU: 42
F7BD  A9 55     LDA A:FF X:33 Y:7E P:E4 SP:F9 PPU: 51
F7BF  60        RTS A:55 X:33 Y:7E P:64 SP:F9 PPU: 57
D267  05 78     ORA A:55 X:33 Y:7E P:64 SP:FB PPU: 75
D269  20 C0 F7  JSR A:FF X:33 Y:7E P:E4 SP:FB PPU: 84
F7C0  B0 09     BCS A:FF X:33 Y:7E P:E4 SP:F9 PPU:102
F7C2  10 07     BPL A:FF X:33 Y:7E P:E4 SP:F9 PPU:108
F7C4  C9 FF     CMP A:FF X:33 Y:7E P:E4 SP:F9 PPU:114
F7C6  D0 03     BNE A:FF X:33 Y:7E P:67 SP:F9 PPU:120
F7C8  50 01     BVC A:FF X:33 Y:7E P:67 SP:F9 PPU:126
F7CA  60        RTS A:FF X:33 Y:7E P:67 SP:F9 PPU:132
D26C  C8        INY A:FF X:33 Y:7E P:67 SP:FB PPU:150
D26D  A9 00     LDA A:FF X:33 Y:7F P:65 SP:FB PPU:156
D26F  85 78     STA A:00 X:33 Y:7F P:67 SP:FB PPU:162
D271  20 CE F7  JSR A:00 X:33 Y:7F P:67 SP:FB PPU:171
F7CE  38        SEC A:00 X:33 Y:7F P:67 SP:F9 PPU:189
F7CF  B8        CLV A:00 X:33 Y:7F P:67 SP:F9 PPU:195
F7D0  A9 00     LDA A:00 X:33 Y:7F P:27 SP:F9 PPU:201
F7D2  60        RTS A:00 X:33 Y:7F P:27 SP:F9 PPU:207
D274  05 78     ORA A:00 X:33 Y:7F P:27 SP:FB PPU:225
D276  20 D3 F7  JSR A:00 X:33 Y:7F P:27 SP:FB PPU:234
F7D3  D0 07     BNE A:00 X:33 Y:7F P:27 SP:F9 PPU:252
F7D5  70 05     BVS A:00 X:33 Y:7F P:27 SP:F9 PPU:258
F7D7  90 03     BCC A:00 X:33 Y:7F P:27 SP:F9 PPU:264
F7D9  30 01     BMI A:00 X:33 Y:7F P:27 SP:F9 PPU:270
F7DB  60        RTS A:00 X:33 Y:7F P:27 SP:F9 PPU:276
D279  C8        INY A:00 X:33 Y:7F P:27 SP:FB PPU:294
D27A  A9 AA     LDA A:00 X:33 Y:80 P:A5 SP:FB PPU:300
D27C  85 78     STA A:AA X:33 Y:80 P:A5 SP:FB PPU:306
D27E  20 DF F7  JSR A:AA X:33 Y:80 P:A5 SP:FB PPU:315
F7DF  18        CLC A:AA X:33 Y:80 P:A5 SP:F9 PPU:333
F7E0  24 01     BIT A:AA X:33 Y:80 P:A4 SP:F9 PPU:339
F7E2  A9 55     LDA A:AA X:33 Y:80 P:E4 SP:F9 PPU:  7
F7E4  60        RTS A:55 X:33 Y:80 P:64 SP:F9 PPU: 13
D281  25 78     AND A:55 X:33 Y:80 P:64 SP:FB PPU: 31
D283  20 E5 F7  JSR A:00 X:33 Y:80 P:66 SP:FB PPU: 40
F7E5  D0 07     BNE A:00 X:33 Y:80 P:66 SP:F9 PPU: 58
F7E7  50 05     BVC A:00 X:33 Y:80 P:66 SP:F9 PPU: 64
F7E9  B0 03     BCS A:00 X:33 Y:80 P:66 SP:F9 PPU: 70
F7EB  30 01     BMI A:00 X:33 Y:80 P:66 SP:F9 PPU: 76
F7ED  60        RTS A:00 X:33 Y:80 P:66 SP:F9 PPU: 82
D286  C8        INY A:00 X:33 Y:80 P:66 SP:FB PPU:100
D287  A9 EF     LDA A:00 X:33 Y:81 P:E4 SP:FB PPU:106
D289  85 78     STA A:EF X:33 Y:81 P:E4 SP:FB PPU:112
D28B  20 F1 F7  JSR A:EF X:33 Y:81 P:E4 SP:FB PPU:121
F7F1  38        SEC A:EF X:33 Y:81 P:E4 SP:F9 PPU:139
F7F2  B8        CLV A:EF X:33 Y:81 P:E5 SP:F9 PPU:145
F7F3  A9 F8     LDA A:EF X:33 Y:81 P:A5 SP:F9 PPU:151
F7F5  60        RTS A:F8 X:33 Y:81 P:A5 SP:F9 PPU:157
D28E  25 78     AND A:F8 X:33 Y:81 P:A5 SP:FB PPU:175
D290  20 F6 F7  JSR A:E8 X:33 Y:81 P:A5 SP:FB PPU:184
F7F6  90 09     BCC A:E8 X:33 Y:81 P:A5 SP:F9 PPU:202
F7F8  10 07     BPL A:E8 X:33 Y:81 P:A5 SP:F9 PPU:208
F7FA  C9 E8     CMP A:E8 X:33 Y:81 P:A5 SP:F9 PPU:214
F7FC  D0 03     BNE A:E8 X:33 Y:81 P:27 SP:F9 PPU:220
F7FE  70 01     BVS A:E8 X:33 Y:81 P:27 SP:F9 PPU:226
F800  60        RTS A:E8 X:33 Y:81 P:27 SP:F9 PPU:232
D293  C8        INY A:E8 X:33 Y:81 P:27 SP:FB PPU:250
D294  A9 AA     LDA A:E8 X:33 Y:82 P:A5 SP:FB PPU:256
D296  85 78     STA A:AA X:33 Y:82 P:A5 SP:FB PPU:262
D298  20 04 F8  JSR A:AA X:33 Y:82 P:A5 SP:FB PPU:271
F804  18        CLC A:AA X:33 Y:82 P:A5 SP:F9 PPU:289
F805  24 01     BIT A:AA X:33 Y:82 P:A4 SP:F9 PPU:295
F807  A9 5F     LDA A:AA X:33 Y:82 P:E4 SP:F9 PPU:304
F809  60        RTS A:5F X:33 Y:82 P:64 SP:F9 PPU:310
D29B  45 78     EOR A:5F X:33 Y:82 P:64 SP:FB PPU:328
D29D  20 0A F8  JSR A:F5 X:33 Y:82 P:E4 SP:FB PPU:337
F80A  B0 09     BCS A:F5 X:33 Y:82 P:E4 SP:F9 PPU: 14
F80C  10 07     BPL A:F5 X:33 Y:82 P:E4 SP:F9 PPU: 20
F80E  C9 F5     CMP A:F5 X:33 Y:82 P:E4 SP:F9 PPU: 26
F810  D0 03     BNE A:F5 X:33 Y:82 P:67 SP:F9 PPU: 32
F812  50 01     BVC A:F5 X:33 Y:82 P:67 SP:F9 PPU: 38
F814  60        RTS A:F5 X:33 Y:82 P:67 SP:F9 PPU: 44
D2A0  C8        INY A:F5 X:33 Y:82 P:67 SP:FB PPU: 62
D2A1  A9 70     LDA A:F5 X:33 Y:83 P:E5 SP:FB PPU: 68
D2A3  85 78     STA A:70 X:33 Y:83 P:65 SP:FB PPU: 74
D2A5  20 18 F8  JSR A:70 X:33 Y:83 P:65 SP:FB PPU: 83
F818  38        SEC A:70 X:33 Y:83 P:65 SP:F9 PPU:101
F819  B8        CLV A:70 X:33 Y:83 P:65 SP:F9 PPU:107
F81A  A9 70     LDA A:70 X:33 Y:83 P:25 SP:F9 PPU:113
F81C  60        RTS A:70 X:33 Y:83 P:25 SP:F9 PPU:119
D2A8  45 78     EOR A:70 X:33 Y:83 P:25 SP:FB PPU:137
D2AA  20 1D F8  JSR A:00 X:33 Y:83 P:27 SP:FB PPU:146
F81D  D0 07     BNE A:00 X:33 Y:83 P:27 SP:F9 PPU:164
F81F  70 05     BVS A:00 X:33 Y:83 P:27 SP:F9 PPU:170
F821  90 03     BCC A:00 X:33 Y:83 P:27 SP:F9 PPU:176
F823  30 01     BMI A:00 X:33 Y:83 P:27 SP:F9 PPU:182
F825  60        RTS A:00 X:33 Y:83 P:27 SP:F9 PPU:188
D2AD  C8        INY A:00 X:33 Y:83 P:27 SP:FB PPU:206
D2AE  A9 69     LDA A:00 X:33 Y:84 P:A5 SP:FB PPU:212
D2B0  85 78     STA A:69 X:33 Y:84 P:25 SP:FB PPU:218
D2B2  20 29 F8  JSR A:69 X:33 Y:84 P:25 SP:FB PPU:227
F829  18        CLC A:69 X:33 Y:84 P:25 SP:F9 PPU:245
F82A  24 01     BIT A:69 X:33 Y:84 P:24 SP:F9 PPU:251
F82C  A9 00     LDA A:69 X:33 Y:84 P:E4 SP:F9 PPU:260
F82E  60        RTS A:00 X:33 Y:84 P:66 SP:F9 PPU:266
D2B5  65 78     ADC A:00 X:33 Y:84 P:66 SP:FB PPU:284
D2B7  20 2F F8  JSR A:69 X:33 Y:84 P:24 SP:FB PPU:293
F82F  30 09     BMI A:69 X:33 Y:84 P:24 SP:F9 PPU:311
F831  B0 07     BCS A:69 X:33 Y:84 P:24 SP:F9 PPU:317
F833  C9 69     CMP A:69 X:33 Y:84 P:24 SP:F9 PPU:323
F835  D0 03     BNE A:69 X:33 Y:84 P:27 SP:F9 PPU:329
F837  70 01     BVS A:69 X:33 Y:84 P:27 SP:F9 PPU:335
F839  60        RTS A:69 X:33 Y:84 P:27 SP:F9 PPU:  0
D2BA  C8        INY A:69 X:33 Y:84 P:27 SP:FB PPU: 18
D2BB  20 3D F8  JSR A:69 X:33 Y:85 P:A5 SP:FB PPU: 24
F83D  38        SEC A:69 X:33 Y:85 P:A5 SP:F9 PPU: 42
F83E  24 01     BIT A:69 X:33 Y:85 P:A5 SP:F9 PPU: 48
F840  A9 00     LDA A:69 X:33 Y:85 P:E5 SP:F9 PPU: 57
F842  60        RTS A:00 X:33 Y:85 P:67 SP:F9 PPU: 63
D2BE  65 78     ADC A:00 X:33 Y:85 P:67 SP:FB PPU: 81
D2C0  20 43 F8  JSR A:6A X:33 Y:85 P:24 SP:FB PPU: 90
F843  30 09     BMI A:6A X:33 Y:85 P:24 SP:F9 PPU:108
F845  B0 07     BCS A:6A X:33 Y:85 P:24 SP:F9 PPU:114
F847  C9 6A     CMP A:6A X:33 Y:85 P:24 SP:F9 PPU:120
F849  D0 03     BNE A:6A X:33 Y:85 P:27 SP:F9 PPU:126
F84B  70 01     BVS A:6A X:33 Y:85 P:27 SP:F9 PPU:132
F84D  60        RTS A:6A X:33 Y:85 P:27 SP:F9 PPU:138
D2C3  C8        INY A:6A X:33 Y:85 P:27 SP:FB PPU:156
D2C4  A9 7F     LDA A:6A X:33 Y:86 P:A5 SP:FB PPU:162
D2C6  85 78     STA A:7F X:33 Y:86 P:25 SP:FB PPU:168
D2C8  20 51 F8  JSR A:7F X:33 Y:86 P:25 SP:FB PPU:177
F851  38        SEC A:7F X:33 Y:86 P:25 SP:F9 PPU:195
F852  B8        CLV A:7F X:33 Y:86 P:25 SP:F9 PPU:201
F853  A9 7F     LDA A:7F X:33 Y:86 P:25 SP:F9 PPU:207
F855  60        RTS A:7F X:33 Y:86 P:25 SP:F9 PPU:213
D2CB  65 78     ADC A:7F X:33 Y:86 P:25 SP:FB PPU:231
D2CD  20 56 F8  JSR A:FF X:33 Y:86 P:E4 SP:FB PPU:240
F856  10 09     BPL A:FF X:33 Y:86 P:E4 SP:F9 PPU:258
F858  B0 07     BCS A:FF X:33 Y:86 P:E4 SP:F9 PPU:264
F85A  C9 FF     CMP A:FF X:33 Y:86 P:E4 SP:F9 PPU:270
F85C  D0 03     BNE A:FF X:33 Y:86 P:67 SP:F9 PPU:276
F85E  50 01     BVC A:FF X:33 Y:86 P:67 SP:F9 PPU:282
F860  60        RTS A:FF X:33 Y:86 P:67 SP:F9 PPU:288
D2D0  C8        INY A:FF X:33 Y:86 P:67 SP:FB PPU:306
D2D1  A9 80     LDA A:FF X:33 Y:87 P:E5 SP:FB PPU:312
D2D3  85 78     STA A:80 X:33 Y:87 P:E5 SP:FB PPU:318
D2D5  20 64 F8  JSR A:80 X:33 Y:87 P:E5 SP:FB PPU:327
F864  18        CLC A:80 X:33 Y:87 P:E5 SP:F9 PPU:  4
F865  24 01     BIT A:80 X:33 Y:87 P:E4 SP:F9 PPU: 10
F867  A9 7F     LDA A:80 X:33 Y:87 P:E4 SP:F9 PPU: 19
F869  60        RTS A:7F X:33 Y:87 P:64 SP:F9 PPU: 25
D2D8  65 78     ADC A:7F X:33 Y:87 P:64 SP:FB PPU: 43
D2DA  20 6A F8  JSR A:FF X:33 Y:87 P:A4 SP:FB PPU: 52
F86A  10 09     BPL A:FF X:33 Y:87 P:A4 SP:F9 PPU: 70
F86C  B0 07     BCS A:FF X:33 Y:87 P:A4 SP:F9 PPU: 76
F86E  C9 FF     CMP A:FF X:33 Y:87 P:A4 SP:F9 PPU: 82
F870  D0 03     BNE A:FF X:33 Y:87 P:27 SP:F9 PPU: 88
F872  70 01     BVS A:FF X:33 Y:87 P:27 SP:F9 PPU: 94
F874  60        RTS A:FF X:33 Y:87 P:27 SP:F9 PPU:100
D2DD  C8        INY A:FF X:33 Y:87 P:27 SP:FB PPU:118
D2DE  20 78 F8  JSR A:FF X:33 Y:88 P:A5 SP:FB PPU:124
F878  38        SEC A:FF X:33 Y:88 P:A5 SP:F9 PPU:142
F879  B8        CLV A:FF X:33 Y:88 P:A5 SP:F9 PPU:148
F87A  A9 7F     LDA A:FF X:33 Y:88 P:A5 SP:F9 PPU:154
F87C  60        RTS A:7F X:33 Y:88 P:25 SP:F9 PPU:160
D2E1  65 78     ADC A:7F X:33 Y:88 P:25 SP:FB PPU:178
D2E3  20 7D F8  JSR A:00 X:33 Y:88 P:27 SP:FB PPU:187
F87D  D0 07     BNE A:00 X:33 Y:88 P:27 SP:F9 PPU:205
F87F  30 05     BMI A:00 X:33 Y:88 P:27 SP:F9 PPU:211
F881  70 03     BVS A:00 X:33 Y:88 P:27 SP:F9 PPU:217
F883  90 01     BCC A:00 X:33 Y:88 P:27 SP:F9 PPU:223
F885  60        RTS A:00 X:33 Y:88 P:27 SP:F9 PPU:229
D2E6  C8        INY A:00 X:33 Y:88 P:27 SP:FB PPU:247
D2E7  A9 40     LDA A:00 X:33 Y:89 P:A5 SP:FB PPU:253
D2E9  85 78     STA A:40 X:33 Y:89 P:25 SP:FB PPU:259
D2EB  20 89 F8  JSR A:40 X:33 Y:89 P:25 SP:FB PPU:268
F889  24 01     BIT A:40 X:33 Y:89 P:25 SP:F9 PPU:286
F88B  A9 40     LDA A:40 X:33 Y:89 P:E5 SP:F9 PPU:295
F88D  60        RTS A:40 X:33 Y:89 P:65 SP:F9 PPU:301
D2EE  C5 78     CMP A:40 X:33 Y:89 P:65 SP:FB PPU:319
D2F0  20 8E F8  JSR A:40 X:33 Y:89 P:67 SP:FB PPU:328
F88E  30 07     BMI A:40 X:33 Y:89 P:67 SP:F9 PPU:  5
F890  90 05     BCC A:40 X:33 Y:89 P:67 SP:F9 PPU: 11
F892  D0 03     BNE A:40 X:33 Y:89 P:67 SP:F9 PPU: 17
F894  50 01     BVC A:40 X:33 Y:89 P:67 SP:F9 PPU: 23
F896  60        RTS A:40 X:33 Y:89 P:67 SP:F9 PPU: 29
D2F3  C8        INY A:40 X:33 Y:89 P:67 SP:FB PPU: 47
D2F4  48        PHA A:40 X:33 Y:8A P:E5 SP:FB PPU: 53
D2F5  A9 3F     LDA A:40 X:33 Y:8A P:E5 SP:FA PPU: 62
D2F7  85 78     STA A:3F X:33 Y:8A P:65 SP:FA PPU: 68
D2F9  68        PLA A:3F X:33 Y:8A P:65 SP:FA PPU: 77
D2FA  20 9A F8  JSR A:40 X:33 Y:8A P:65 SP:FB PPU: 89
F89A  B8        CLV A:40 X:33 Y:8A P:65 SP:F9 PPU:107
F89B  60        RTS A:40 X:33 Y:8A P:25 SP:F9 PPU:113
D2FD  C5 78     CMP A:40 X:33 Y:8A P:25 SP:FB PPU:131
D2FF  20 9C F8  JSR A:40 X:33 Y:8A P:25 SP:FB PPU:140
F89C  F0 07     BEQ A:40 X:33 Y:8A P:25 SP:F9 PPU:158
F89E  30 05     BMI A:40 X:33 Y:8A P:25 SP:F9 PPU:164
F8A0  90 03     BCC A:40 X:33 Y:8A P:25 SP:F9 PPU:170
F8A2  70 01     BVS A:40 X:33 Y:8A P:25 SP:F9 PPU:176
F8A4  60        RTS A:40 X:33 Y:8A P:25 SP:F9 PPU:182
D302  C8        INY A:40 X:33 Y:8A P:25 SP:FB PPU:200
D303  48        PHA A:40 X:33 Y:8B P:A5 SP:FB PPU:206
D304  A9 41     LDA A:40 X:33 Y:8B P:A5 SP:FA PPU:215
D306  85 78     STA A:41 X:33 Y:8B P:25 SP:FA PPU:221
D308  68        PLA A:41 X:33 Y:8B P:25 SP:FA PPU:230
D309  C5 78     CMP A:40 X:33 Y:8B P:25 SP:FB PPU:242
D30B  20 A8 F8  JSR A:40 X:33 Y:8B P:A4 SP:FB PPU:251
F8A8  F0 05     BEQ A:40 X:33 Y:8B P:A4 SP:F9 PPU:269
F8AA  10 03     BPL A:40 X:33 Y:8B P:A4 SP:F9 PPU:275
F8AC  10 01     BPL A:40 X:33 Y:8B P:A4 SP:F9 PPU:281
F8AE  60        RTS A:40 X:33 Y:8B P:A4 SP:F9 PPU:287
D30E  C8        INY A:40 X:33 Y:8B P:A4 SP:FB PPU:305
D30F  48        PHA A:40 X:33 Y:8C P:A4 SP:FB PPU:311
D310  A9 00     LDA A:40 X:33 Y:8C P:A4 SP:FA PPU:320
D312  85 78     STA A:00 X:33 Y:8C P:26 SP:FA PPU:326
D314  68        PLA A:00 X:33 Y:8C P:26 SP:FA PPU:335
D315  20 B2 F8  JSR A:40 X:33 Y:8C P:24 SP:FB PPU:  6
F8B2  A9 80     LDA A:40 X:33 Y:8C P:24 SP:F9 PPU: 24
F8B4  60        RTS A:80 X:33 Y:8C P:A4 SP:F9 PPU: 30
D318  C5 78     CMP A:80 X:33 Y:8C P:A4 SP:FB PPU: 48
D31A  20 B5 F8  JSR A:80 X:33 Y:8C P:A5 SP:FB PPU: 57
F8B5  F0 05     BEQ A:80 X:33 Y:8C P:A5 SP:F9 PPU: 75
F8B7  10 03     BPL A:80 X:33 Y:8C P:A5 SP:F9 PPU: 81
F8B9  90 01     BCC A:80 X:33 Y:8C P:A5 SP:F9 PPU: 87
F8BB  60        RTS A:80 X:33 Y:8C P:A5 SP:F9 PPU: 93
D31D  C8        INY A:80 X:33 Y:8C P:A5 SP:FB PPU:111
D31E  48        PHA A:80 X:33 Y:8D P:A5 SP:FB PPU:117
D31F  A9 80     LDA A:80 X:33 Y:8D P:A5 SP:FA PPU:126
D321  85 78     STA A:80 X:33 Y:8D P:A5 SP:FA PPU:132
D323  68        PLA A:80 X:33 Y:8D P:A5 SP:FA PPU:141
D324  C5 78     CMP A:80 X:33 Y:8D P:A5 SP:FB PPU:153
D326  20 BF F8  JSR A:80 X:33 Y:8D P:27 SP:FB PPU:162
F8BF  D0 05     BNE A:80 X:33 Y:8D P:27 SP:F9 PPU:180
F8C1  30 03     BMI A:80 X:33 Y:8D P:27 SP:F9 PPU:186
F8C3  90 01     BCC A:80 X:33 Y:8D P:27 SP:F9 PPU:192
F8C5  60        RTS A:80 X:33 Y:8D P:27 SP:F9 PPU:198
D329  C8        INY A:80 X:33 Y:8D P:27 SP:FB PPU:216
D32A  48        PHA A:80 X:33 Y:8E P:A5 SP:FB PPU:222
D32B  A9 81     LDA A:80 X:33 Y:8E P:A5 SP:FA PPU:231
D32D  85 78     STA A:81 X:33 Y:8E P:A5 SP:FA PPU:237
D32F  68        PLA A:81 X:33 Y:8E P:A5 SP:FA PPU:246
D330  C5 78     CMP A:80 X:33 Y:8E P:A5 SP:FB PPU:258
D332  20 C9 F8  JSR A:80 X:33 Y:8E P:A4 SP:FB PPU:267
F8C9  B0 05     BCS A:80 X:33 Y:8E P:A4 SP:F9 PPU:285
F8CB  F0 03     BEQ A:80 X:33 Y:8E P:A4 SP:F9 PPU:291
F8CD  10 01     BPL A:80 X:33 Y:8E P:A4 SP:F9 PPU:297
F8CF  60        RTS A:80 X:33 Y:8E P:A4 SP:F9 PPU:303
D335  C8        INY A:80 X:33 Y:8E P:A4 SP:FB PPU:321
D336  48        PHA A:80 X:33 Y:8F P:A4 SP:FB PPU:327
D337  A9 7F     LDA A:80 X:33 Y:8F P:A4 SP:FA PPU:336
D339  85 78     STA A:7F X:33 Y:8F P:24 SP:FA PPU:  1
D33B  68        PLA A:7F X:33 Y:8F P:24 SP:FA PPU: 10
D33C  C5 78     CMP A:80 X:33 Y:8F P:A4 SP:FB PPU: 22
D33E  20 D3 F8  JSR A:80 X:33 Y:8F P:25 SP:FB PPU: 31
F8D3  90 05     BCC A:80 X:33 Y:8F P:25 SP:F9 PPU: 49
F8D5  F0 03     BEQ A:80 X:33 Y:8F P:25 SP:F9 PPU: 55
F8D7  30 01     BMI A:80 X:33 Y:8F P:25 SP:F9 PPU: 61
F8D9  60        RTS A:80 X:33 Y:8F P:25 SP:F9 PPU: 67
D341  C8        INY A:80 X:33 Y:8F P:25 SP:FB PPU: 85
D342  A9 40     LDA A:80 X:33 Y:90 P:A5 SP:FB PPU: 91
D344  85 78     STA A:40 X:33 Y:90 P:25 SP:FB PPU: 97
D346  20 31 F9  JSR A:40 X:33 Y:90 P:25 SP:FB PPU:106
F931  24 01     BIT A:40 X:33 Y:90 P:25 SP:F9 PPU:124
F933  A9 40     LDA A:40 X:33 Y:90 P:E5 SP:F9 PPU:133
F935  38        SEC A:40 X:33 Y:90 P:65 SP:F9 PPU:139
F936  60        RTS A:40 X:33 Y:90 P:65 SP:F9 PPU:145
D349  E5 78     SBC A:40 X:33 Y:90 P:65 SP:FB PPU:163
D34B  20 37 F9  JSR A:00 X:33 Y:90 P:27 SP:FB PPU:172
F937  30 0B     BMI A:00 X:33 Y:90 P:27 SP:F9 PPU:190
F939  90 09     BCC A:00 X:33 Y:90 P:27 SP:F9 PPU:196
F93B  D0 07     BNE A:00 X:33 Y:90 P:27 SP:F9 PPU:202
F93D  70 05     BVS A:00 X:33 Y:90 P:27 SP:F9 PPU:208
F93F  C9 00     CMP A:00 X:33 Y:90 P:27 SP:F9 PPU:214
F941  D0 01     BNE A:00 X:33 Y:90 P:27 SP:F9 PPU:220
F943  60        RTS A:00 X:33 Y:90 P:27 SP:F9 PPU:226
D34E  C8        INY A:00 X:33 Y:90 P:27 SP:FB PPU:244
D34F  A9 3F     LDA A:00 X:33 Y:91 P:A5 SP:FB PPU:250
D351  85 78     STA A:3F X:33 Y:91 P:25 SP:FB PPU:256
D353  20 47 F9  JSR A:3F X:33 Y:91 P:25 SP:FB PPU:265
F947  B8        CLV A:3F X:33 Y:91 P:25 SP:F9 PPU:283
F948  38        SEC A:3F X:33 Y:91 P:25 SP:F9 PPU:289
F949  A9 40     LDA A:3F X:33 Y:91 P:25 SP:F9 PPU:295
F94B  60        RTS A:40 X:33 Y:91 P:25 SP:F9 PPU:301
D356  E5 78     SBC A:40 X:33 Y:91 P:25 SP:FB PPU:319
D358  20 4C F9  JSR A:01 X:33 Y:91 P:25 SP:FB PPU:328
F94C  F0 0B     BEQ A:01 X:33 Y:91 P:25 SP:F9 PPU:  5
F94E  30 09     BMI A:01 X:33 Y:91 P:25 SP:F9 PPU: 11
F950  90 07     BCC A:01 X:33 Y:91 P:25 SP:F9 PPU: 17
F952  70 05     BVS A:01 X:33 Y:91 P:25 SP:F9 PPU: 23
F954  C9 01     CMP A:01 X:33 Y:91 P:25 SP:F9 PPU: 29
F956  D0 01     BNE A:01 X:33 Y:91 P:27 SP:F9 PPU: 35
F958  60        RTS A:01 X:33 Y:91 P:27 SP:F9 PPU: 41
D35B  C8        INY A:01 X:33 Y:91 P:27 SP:FB PPU: 59
D35C  A9 41     LDA A:01 X:33 Y:92 P:A5 SP:FB PPU: 65
D35E  85 78     STA A:41 X:33 Y:92 P:25 SP:FB PPU: 71
D360  20 5C F9  JSR A:41 X:33 Y:92 P:25 SP:FB PPU: 80
F95C  A9 40     LDA A:41 X:33 Y:92 P:25 SP:F9 PPU: 98
F95E  38        SEC A:40 X:33 Y:92 P:25 SP:F9 PPU:104
F95F  24 01     BIT A:40 X:33 Y:92 P:25 SP:F9 PPU:110
F961  60        RTS A:40 X:33 Y:92 P:E5 SP:F9 PPU:119
D363  E5 78     SBC A:40 X:33 Y:92 P:E5 SP:FB PPU:137
D365  20 62 F9  JSR A:FF X:33 Y:92 P:A4 SP:FB PPU:146
F962  B0 0B     BCS A:FF X:33 Y:92 P:A4 SP:F9 PPU:164
F964  F0 09     BEQ A:FF X:33 Y:92 P:A4 SP:F9 PPU:170
F966  10 07     BPL A:FF X:33 Y:92 P:A4 SP:F9 PPU:176
F968  70 05     BVS A:FF X:33 Y:92 P:A4 SP:F9 PPU:182
F96A  C9 FF     CMP A:FF X:33 Y:92 P:A4 SP:F9 PPU:188
F96C  D0 01     BNE A:FF X:33 Y:92 P:27 SP:F9 PPU:194
F96E  60        RTS A:FF X:33 Y:92 P:27 SP:F9 PPU:200
D368  C8        INY A:FF X:33 Y:92 P:27 SP:FB PPU:218
D369  A9 00     LDA A:FF X:33 Y:93 P:A5 SP:FB PPU:224
D36B  85 78     STA A:00 X:33 Y:93 P:27 SP:FB PPU:230
D36D  20 72 F9  JSR A:00 X:33 Y:93 P:27 SP:FB PPU:239
F972  18        CLC A:00 X:33 Y:93 P:27 SP:F9 PPU:257
F973  A9 80     LDA A:00 X:33 Y:93 P:26 SP:F9 PPU:263
F975  60        RTS A:80 X:33 Y:93 P:A4 SP:F9 PPU:269
D370  E5 78     SBC A:80 X:33 Y:93 P:A4 SP:FB PPU:287
D372  20 76 F9  JSR A:7F X:33 Y:93 P:65 SP:FB PPU:296
F976  90 05     BCC A:7F X:33 Y:93 P:65 SP:F9 PPU:314
F978  C9 7F     CMP A:7F X:33 Y:93 P:65 SP:F9 PPU:320
F97A  D0 01     BNE A:7F X:33 Y:93 P:67 SP:F9 PPU:326
F97C  60        RTS A:7F X:33 Y:93 P:67 SP:F9 PPU:332
D375  C8        INY A:7F X:33 Y:93 P:67 SP:FB PPU:  9
D376  A9 7F     LDA A:7F X:33 Y:94 P:E5 SP:FB PPU: 15
D378  85 78     STA A:7F X:33 Y:94 P:65 SP:FB PPU: 21
D37A  20 80 F9  JSR A:7F X:33 Y:94 P:65 SP:FB PPU: 30
F980  38        SEC A:7F X:33 Y:94 P:65 SP:F9 PPU: 48
F981  A9 81     LDA A:7F X:33 Y:94 P:65 SP:F9 PPU: 54
F983  60        RTS A:81 X:33 Y:94 P:E5 SP:F9 PPU: 60
D37D  E5 78     SBC A:81 X:33 Y:94 P:E5 SP:FB PPU: 78
D37F  20 84 F9  JSR A:02 X:33 Y:94 P:65 SP:FB PPU: 87
F984  50 07     BVC A:02 X:33 Y:94 P:65 SP:F9 PPU:105
F986  90 05     BCC A:02 X:33 Y:94 P:65 SP:F9 PPU:111
F988  C9 02     CMP A:02 X:33 Y:94 P:65 SP:F9 PPU:117
F98A  D0 01     BNE A:02 X:33 Y:94 P:67 SP:F9 PPU:123
F98C  60        RTS A:02 X:33 Y:94 P:67 SP:F9 PPU:129
D382  C8        INY A:02 X:33 Y:94 P:67 SP:FB PPU:147
D383  A9 40     LDA A:02 X:33 Y:95 P:E5 SP:FB PPU:153
D385  85 78     STA A:40 X:33 Y:95 P:65 SP:FB PPU:159
D387  20 89 F8  JSR A:40 X:33 Y:95 P:65 SP:FB PPU:168
F889  24 01     BIT A:40 X:33 Y:95 P:65 SP:F9 PPU:186
F88B  A9 40     LDA A:40 X:33 Y:95 P:E5 SP:F9 PPU:195
F88D  60        RTS A:40 X:33 Y:95 P:65 SP:F9 PPU:201
D38A  AA        TAX A:40 X:33 Y:95 P:65 SP:FB PPU:219
D38B  E4 78     CPX A:40 X:40 Y:95 P:65 SP:FB PPU:225
D38D  20 8E F8  JSR A:40 X:40 Y:95 P:67 SP:FB PPU:234
F88E  30 07     BMI A:40 X:40 Y:95 P:67 SP:F9 PPU:252
F890  90 05     BCC A:40 X:40 Y:95 P:67 SP:F9 PPU:258
F892  D0 03     BNE A:40 X:40 Y:95 P:67 SP:F9 PPU:264
F894  50 01     BVC A:40 X:40 Y:95 P:67 SP:F9 PPU:270
F896  60        RTS A:40 X:40 Y:95 P:67 SP:F9 PPU:276
D390  C8        INY A:40 X:40 Y:95 P:67 SP:FB PPU:294
D391  A9 3F     LDA A:40 X:40 Y:96 P:E5 SP:FB PPU:300
D393  85 78     STA A:3F X:40 Y:96 P:65 SP:FB PPU:306
D395  20 9A F8  JSR A:3F X:40 Y:96 P:65 SP:FB PPU:315
F89A  B8        CLV A:3F X:40 Y:96 P:65 SP:F9 PPU:333
F89B  60        RTS A:3F X:40 Y:96 P:25 SP:F9 PPU:339
D398  E4 78     CPX A:3F X:40 Y:96 P:25 SP:FB PPU: 16
D39A  20 9C F8  JSR A:3F X:40 Y:96 P:25 SP:FB PPU: 25
F89C  F0 07     BEQ A:3F X:40 Y:96 P:25 SP:F9 PPU: 43
F89E  30 05     BMI A:3F X:40 Y:96 P:25 SP:F9 PPU: 49
F8A0  90 03     BCC A:3F X:40 Y:96 P:25 SP:F9 PPU: 55
F8A2  70 01     BVS A:3F X:40 Y:96 P:25 SP:F9 PPU: 61
F8A4  60        RTS A:3F X:40 Y:96 P:25 SP:F9 PPU: 67
D39D  C8        INY A:3F X:40 Y:96 P:25 SP:FB PPU: 85
D39E  A9 41     LDA A:3F X:40 Y:97 P:A5 SP:FB PPU: 91
D3A0  85 78     STA A:41 X:40 Y:97 P:25 SP:FB PPU: 97
D3A2  E4 78     CPX A:41 X:40 Y:97 P:25 SP:FB PPU:106
D3A4  20 A8 F8  JSR A:41 X:40 Y:97 P:A4 SP:FB PPU:115
F8A8  F0 05     BEQ A:41 X:40 Y:97 P:A4 SP:F9 PPU:133
F8AA  10 03     BPL A:41 X:40 Y:97 P:A4 SP:F9 PPU:139
F8AC  10 01     BPL A:41 X:40 Y:97 P:A4 SP:F9 PPU:145
F8AE  60        RTS A:41 X:40 Y:97 P:A4 SP:F9 PPU:151
D3A7  C8        INY A:41 X:40 Y:97 P:A4 SP:FB PPU:169
D3A8  A9 00     LDA A:41 X:40 Y:98 P:A4 SP:FB PPU:175
D3AA  85 78     STA A:00 X:40 Y:98 P:26 SP:FB PPU:181
D3AC  20 B2 F8  JSR A:00 X:40 Y:98 P:26 SP:FB PPU:190
F8B2  A9 80     LDA A:00 X:40 Y:98 P:26 SP:F9 PPU:208
F8B4  60        RTS A:80 X:40 Y:98 P:A4 SP:F9 PPU:214
D3AF  AA        TAX A:80 X:40 Y:98 P:A4 SP:FB PPU:232
D3B0  E4 78     CPX A:80 X:80 Y:98 P:A4 SP:FB PPU:238
D3B2  20 B5 F8  JSR A:80 X:80 Y:98 P:A5 SP:FB PPU:247
F8B5  F0 05     BEQ A:80 X:80 Y:98 P:A5 SP:F9 PPU:265
F8B7  10 03     BPL A:80 X:80 Y:98 P:A5 SP:F9 PPU:271
F8B9  90 01     BCC A:80 X:80 Y:98 P:A5 SP:F9 PPU:277
F8BB  60        RTS A:80 X:80 Y:98 P:A5 SP:F9 PPU:283
D3B5  C8        INY A:80 X:80 Y:98 P:A5 SP:FB PPU:301
D3B6  A9 80     LDA A:80 X:80 Y:99 P:A5 SP:FB PPU:307
D3B8  85 78     STA A:80 X:80 Y:99 P:A5 SP:FB PPU:313
D3BA  E4 78     CPX A:80 X:80 Y:99 P:A5 SP:FB PPU:322
D3BC  20 BF F8  JSR A:80 X:80 Y:99 P:27 SP:FB PPU:331
F8BF  D0 05     BNE A:80 X:80 Y:99 P:27 SP:F9 PPU:  8
F8C1  30 03     BMI A:80 X:80 Y:99 P:27 SP:F9 PPU: 14
F8C3  90 01     BCC A:80 X:80 Y:99 P:27 SP:F9 PPU: 20
F8C5  60        RTS A:80 X:80 Y:99 P:27 SP:F9 PPU: 26
D3BF  C8        INY A:80 X:80 Y:99 P:27 SP:FB PPU: 44
D3C0  A9 81     LDA A:80 X:80 Y:9A P:A5 SP:FB PPU: 50
D3C2  85 78     STA A:81 X:80 Y:9A P:A5 SP:FB PPU: 56
D3C4  E4 78     CPX A:81 X:80 Y:9A P:A5 SP:FB PPU: 65
D3C6  20 C9 F8  JSR A:81 X:80 Y:9A P:A4 SP:FB PPU: 74
F8C9  B0 05     BCS A:81 X:80 Y:9A P:A4 SP:F9 PPU: 92
F8CB  F0 03     BEQ A:81 X:80 Y:9A P:A4 SP:F9 PPU: 98
F8CD  10 01     BPL A:81 X:80 Y:9A P:A4 SP:F9 PPU:104
F8CF  60        RTS A:81 X:80 Y:9A P:A4 SP:F9 PPU:110
D3C9  C8        INY A:81 X:80 Y:9A P:A4 SP:FB PPU:128
D3CA  A9 7F     LDA A:81 X:80 Y:9B P:A4 SP:FB PPU:134
D3CC  85 78     STA A:7F X:80 Y:9B P:24 SP:FB PPU:140
D3CE  E4 78     CPX A:7F X:80 Y:9B P:24 SP:FB PPU:149
D3D0  20 D3 F8  JSR A:7F X:80 Y:9B P:25 SP:FB PPU:158
F8D3  90 05     BCC A:7F X:80 Y:9B P:25 SP:F9 PPU:176
F8D5  F0 03     BEQ A:7F X:80 Y:9B P:25 SP:F9 PPU:182
F8D7  30 01     BMI A:7F X:80 Y:9B P:25 SP:F9 PPU:188
F8D9  60        RTS A:7F X:80 Y:9B P:25 SP:F9 PPU:194
D3D3  C8        INY A:7F X:80 Y:9B P:25 SP:FB PPU:212
D3D4  98        TYA A:7F X:80 Y:9C P:A5 SP:FB PPU:218
D3D5  AA        TAX A:9C X:80 Y:9C P:A5 SP:FB PPU:224
D3D6  A9 40     LDA A:9C X:9C Y:9C P:A5 SP:FB PPU:230
D3D8  85 78     STA A:40 X:9C Y:9C P:25 SP:FB PPU:236
D3DA  20 DD F8  JSR A:40 X:9C Y:9C P:25 SP:FB PPU:245
F8DD  24 01     BIT A:40 X:9C Y:9C P:25 SP:F9 PPU:263
F8DF  A0 40     LDY A:40 X:9C Y:9C P:E5 SP:F9 PPU:272
F8E1  60        RTS A:40 X:9C Y:40 P:65 SP:F9 PPU:278
D3DD  C4 78     CPY A:40 X:9C Y:40 P:65 SP:FB PPU:296
D3DF  20 E2 F8  JSR A:40 X:9C Y:40 P:67 SP:FB PPU:305
F8E2  30 07     BMI A:40 X:9C Y:40 P:67 SP:F9 PPU:323
F8E4  90 05     BCC A:40 X:9C Y:40 P:67 SP:F9 PPU:329
F8E6  D0 03     BNE A:40 X:9C Y:40 P:67 SP:F9 PPU:335
F8E8  50 01     BVC A:40 X:9C Y:40 P:67 SP:F9 PPU:  0
F8EA  60        RTS A:40 X:9C Y:40 P:67 SP:F9 PPU:  6
D3E2  E8        INX A:40 X:9C Y:40 P:67 SP:FB PPU: 24
D3E3  A9 3F     LDA A:40 X:9D Y:40 P:E5 SP:FB PPU: 30
D3E5  85 78     STA A:3F X:9D Y:40 P:65 SP:FB PPU: 36
D3E7  20 EE F8  JSR A:3F X:9D Y:40 P:65 SP:FB PPU: 45
F8EE  B8        CLV A:3F X:9D Y:40 P:65 SP:F9 PPU: 63
F8EF  60        RTS A:3F X:9D Y:40 P:25 SP:F9 PPU: 69
D3EA  C4 78     CPY A:3F X:9D Y:40 P:25 SP:FB PPU: 87
D3EC  20 F0 F8  JSR A:3F X:9D Y:40 P:25 SP:FB PPU: 96
F8F0  F0 07     BEQ A:3F X:9D Y:40 P:25 SP:F9 PPU:114
F8F2  30 05     BMI A:3F X:9D Y:40 P:25 SP:F9 PPU:120
F8F4  90 03     BCC A:3F X:9D Y:40 P:25 SP:F9 PPU:126
F8F6  70 01     BVS A:3F X:9D Y:40 P:25 SP:F9 PPU:132
F8F8  60        RTS A:3F X:9D Y:40 P:25 SP:F9 PPU:138
D3EF  E8        INX A:3F X:9D Y:40 P:25 SP:FB PPU:156
D3F0  A9 41     LDA A:3F X:9E Y:40 P:A5 SP:FB PPU:162
D3F2  85 78     STA A:41 X:9E Y:40 P:25 SP:FB PPU:168
D3F4  C4 78     CPY A:41 X:9E Y:40 P:25 SP:FB PPU:177
D3F6  20 FC F8  JSR A:41 X:9E Y:40 P:A4 SP:FB PPU:186
F8FC  F0 05     BEQ A:41 X:9E Y:40 P:A4 SP:F9 PPU:204
F8FE  10 03     BPL A:41 X:9E Y:40 P:A4 SP:F9 PPU:210
F900  10 01     BPL A:41 X:9E Y:40 P:A4 SP:F9 PPU:216
F902  60        RTS A:41 X:9E Y:40 P:A4 SP:F9 PPU:222
D3F9  E8        INX A:41 X:9E Y:40 P:A4 SP:FB PPU:240
D3FA  A9 00     LDA A:41 X:9F Y:40 P:A4 SP:FB PPU:246
D3FC  85 78     STA A:00 X:9F Y:40 P:26 SP:FB PPU:252
D3FE  20 06 F9  JSR A:00 X:9F Y:40 P:26 SP:FB PPU:261
F906  A0 80     LDY A:00 X:9F Y:40 P:26 SP:F9 PPU:279
F908  60        RTS A:00 X:9F Y:80 P:A4 SP:F9 PPU:285
D401  C4 78     CPY A:00 X:9F Y:80 P:A4 SP:FB PPU:303
D403  20 09 F9  JSR A:00 X:9F Y:80 P:A5 SP:FB PPU:312
F909  F0 05     BEQ A:00 X:9F Y:80 P:A5 SP:F9 PPU:330
F90B  10 03     BPL A:00 X:9F Y:80 P:A5 SP:F9 PPU:336
F90D  90 01     BCC A:00 X:9F Y:80 P:A5 SP:F9 PPU:  1
F90F  60        RTS A:00 X:9F Y:80 P:A5 SP:F9 PPU:  7
D406  E8        INX A:00 X:9F Y:80 P:A5 SP:FB PPU: 25
D407  A9 80     LDA A:00 X:A0 Y:80 P:A5 SP:FB PPU: 31
D409  85 78     STA A:80 X:A0 Y:80 P:A5 SP:FB PPU: 37
D40B  C4 78     CPY A:80 X:A0 Y:80 P:A5 SP:FB PPU: 46
D40D  20 13 F9  JSR A:80 X:A0 Y:80 P:27 SP:FB PPU: 55
F913  D0 05     BNE A:80 X:A0 Y:80 P:27 SP:F9 PPU: 73
F915  30 03     BMI A:80 X:A0 Y:80 P:27 SP:F9 PPU: 79
F917  90 01     BCC A:80 X:A0 Y:80 P:27 SP:F9 PPU: 85
F919  60        RTS A:80 X:A0 Y:80 P:27 SP:F9 PPU: 91
D410  E8        INX A:80 X:A0 Y:80 P:27 SP:FB PPU:109
D411  A9 81     LDA A:80 X:A1 Y:80 P:A5 SP:FB PPU:115
D413  85 78     STA A:81 X:A1 Y:80 P:A5 SP:FB PPU:121
D415  C4 78     CPY A:81 X:A1 Y:80 P:A5 SP:FB PPU:130
D417  20 1D F9  JSR A:81 X:A1 Y:80 P:A4 SP:FB PPU:139
F91D  B0 05     BCS A:81 X:A1 Y:80 P:A4 SP:F9 PPU:157
F91F  F0 03     BEQ A:81 X:A1 Y:80 P:A4 SP:F9 PPU:163
F921  10 01     BPL A:81 X:A1 Y:80 P:A4 SP:F9 PPU:169
F923  60        RTS A:81 X:A1 Y:80 P:A4 SP:F9 PPU:175
D41A  E8        INX A:81 X:A1 Y:80 P:A4 SP:FB PPU:193
D41B  A9 7F     LDA A:81 X:A2 Y:80 P:A4 SP:FB PPU:199
D41D  85 78     STA A:7F X:A2 Y:80 P:24 SP:FB PPU:205
D41F  C4 78     CPY A:7F X:A2 Y:80 P:24 SP:FB PPU:214
D421  20 27 F9  JSR A:7F X:A2 Y:80 P:25 SP:FB PPU:223
F927  90 05     BCC A:7F X:A2 Y:80 P:25 SP:F9 PPU:241
F929  F0 03     BEQ A:7F X:A2 Y:80 P:25 SP:F9 PPU:247
F92B  30 01     BMI A:7F X:A2 Y:80 P:25 SP:F9 PPU:253
F92D  60        RTS A:7F X:A2 Y:80 P:25 SP:F9 PPU:259
D424  E8        INX A:7F X:A2 Y:80 P:25 SP:FB PPU:277
D425  8A        TXA A:7F X:A3 Y:80 P:A5 SP:FB PPU:283
D426  A8        TAY A:A3 X:A3 Y:80 P:A5 SP:FB PPU:289
D427  20 90 F9  JSR A:A3 X:A3 Y:A3 P:A5 SP:FB PPU:295
F990  A2 55     LDX A:A3 X:A3 Y:A3 P:A5 SP:F9 PPU:313
F992  A9 FF     LDA A:A3 X:55 Y:A3 P:25 SP:F9 PPU:319
F994  85 01     STA A:FF X:55 Y:A3 P:A5 SP:F9 PPU:325
F996  EA        NOP A:FF X:55 Y:A3 P:A5 SP:F9 PPU:334
F997  24 01     BIT A:FF X:55 Y:A3 P:A5 SP:F9 PPU:340
F999  38        SEC A:FF X:55 Y:A3 P:E5 SP:F9 PPU:  8
F99A  A9 01     LDA A:FF X:55 Y:A3 P:E5 SP:F9 PPU: 14
F99C  60        RTS A:01 X:55 Y:A3 P:65 SP:F9 PPU: 20
D42A  85 78     STA A:01 X:55 Y:A3 P:65 SP:FB PPU: 38
D42C  46 78     LSR A:01 X:55 Y:A3 P:65 SP:FB PPU: 47
D42E  A5 78     LDA A:01 X:55 Y:A3 P:67 SP:FB PPU: 62
D430  20 9D F9  JSR A:00 X:55 Y:A3 P:67 SP:FB PPU: 71
F99D  90 1B     BCC A:00 X:55 Y:A3 P:67 SP:F9 PPU: 89
F99F  D0 19     BNE A:00 X:55 Y:A3 P:67 SP:F9 PPU: 95
F9A1  30 17     BMI A:00 X:55 Y:A3 P:67 SP:F9 PPU:101
F9A3  50 15     BVC A:00 X:55 Y:A3 P:67 SP:F9 PPU:107
F9A5  C9 00     CMP A:00 X:55 Y:A3 P:67 SP:F9 PPU:113
F9A7  D0 11     BNE A:00 X:55 Y:A3 P:67 SP:F9 PPU:119
F9A9  B8        CLV A:00 X:55 Y:A3 P:67 SP:F9 PPU:125
F9AA  A9 AA     LDA A:00 X:55 Y:A3 P:27 SP:F9 PPU:131
F9AC  60        RTS A:AA X:55 Y:A3 P:A5 SP:F9 PPU:137
D433  C8        INY A:AA X:55 Y:A3 P:A5 SP:FB PPU:155
D434  85 78     STA A:AA X:55 Y:A4 P:A5 SP:FB PPU:161
D436  46 78     LSR A:AA X:55 Y:A4 P:A5 SP:FB PPU:170
D438  A5 78     LDA A:AA X:55 Y:A4 P:24 SP:FB PPU:185
D43A  20 AD F9  JSR A:55 X:55 Y:A4 P:24 SP:FB PPU:194
F9AD  B0 0B     BCS A:55 X:55 Y:A4 P:24 SP:F9 PPU:212
F9AF  F0 09     BEQ A:55 X:55 Y:A4 P:24 SP:F9 PPU:218
F9B1  30 07     BMI A:55 X:55 Y:A4 P:24 SP:F9 PPU:224
F9B3  70 05     BVS A:55 X:55 Y:A4 P:24 SP:F9 PPU:230
F9B5  C9 55     CMP A:55 X:55 Y:A4 P:24 SP:F9 PPU:236
F9B7  D0 01     BNE A:55 X:55 Y:A4 P:27 SP:F9 PPU:242
F9B9  60        RTS A:55 X:55 Y:A4 P:27 SP:F9 PPU:248
D43D  C8        INY A:55 X:55 Y:A4 P:27 SP:FB PPU:266
D43E  20 BD F9  JSR A:55 X:55 Y:A5 P:A5 SP:FB PPU:272
F9BD  24 01     BIT A:55 X:55 Y:A5 P:A5 SP:F9 PPU:290
F9BF  38        SEC A:55 X:55 Y:A5 P:E5 SP:F9 PPU:299
F9C0  A9 80     LDA A:55 X:55 Y:A5 P:E5 SP:F9 PPU:305
F9C2  60        RTS A:80 X:55 Y:A5 P:E5 SP:F9 PPU:311
D441  85 78     STA A:80 X:55 Y:A5 P:E5 SP:FB PPU:329
D443  06 78     ASL A:80 X:55 Y:A5 P:E5 SP:FB PPU:338
D445  A5 78     LDA A:80 X:55 Y:A5 P:67 SP:FB PPU: 12
D447  20 C3 F9  JSR A:00 X:55 Y:A5 P:67 SP:FB PPU: 21
F9C3  90 1C     BCC A:00 X:55 Y:A5 P:67 SP:F9 PPU: 39
F9C5  D0 1A     BNE A:00 X:55 Y:A5 P:67 SP:F9 PPU: 45
F9C7  30 18     BMI A:00 X:55 Y:A5 P:67 SP:F9 PPU: 51
F9C9  50 16     BVC A:00 X:55 Y:A5 P:67 SP:F9 PPU: 57
F9CB  C9 00     CMP A:00 X:55 Y:A5 P:67 SP:F9 PPU: 63
F9CD  D0 12     BNE A:00 X:55 Y:A5 P:67 SP:F9 PPU: 69
F9CF  B8        CLV A:00 X:55 Y:A5 P:67 SP:F9 PPU: 75
F9D0  A9 55     LDA A:00 X:55 Y:A5 P:27 SP:F9 PPU: 81
F9D2  38        SEC A:55 X:55 Y:A5 P:25 SP:F9 PPU: 87
F9D3  60        RTS A:55 X:55 Y:A5 P:25 SP:F9 PPU: 93
D44A  C8        INY A:55 X:55 Y:A5 P:25 SP:FB PPU:111
D44B  85 78     STA A:55 X:55 Y:A6 P:A5 SP:FB PPU:117
D44D  06 78     ASL A:55 X:55 Y:A6 P:A5 SP:FB PPU:126
D44F  A5 78     LDA A:55 X:55 Y:A6 P:A4 SP:FB PPU:141
D451  20 D4 F9  JSR A:AA X:55 Y:A6 P:A4 SP:FB PPU:150
F9D4  B0 0B     BCS A:AA X:55 Y:A6 P:A4 SP:F9 PPU:168
F9D6  F0 09     BEQ A:AA X:55 Y:A6 P:A4 SP:F9 PPU:174
F9D8  10 07     BPL A:AA X:55 Y:A6 P:A4 SP:F9 PPU:180
F9DA  70 05     BVS A:AA X:55 Y:A6 P:A4 SP:F9 PPU:186
F9DC  C9 AA     CMP A:AA X:55 Y:A6 P:A4 SP:F9 PPU:192
F9DE  D0 01     BNE A:AA X:55 Y:A6 P:27 SP:F9 PPU:198
F9E0  60        RTS A:AA X:55 Y:A6 P:27 SP:F9 PPU:204
D454  C8        INY A:AA X:55 Y:A6 P:27 SP:FB PPU:222
D455  20 E4 F9  JSR A:AA X:55 Y:A7 P:A5 SP:FB PPU:228
F9E4  24 01     BIT A:AA X:55 Y:A7 P:A5 SP:F9 PPU:246
F9E6  38        SEC A:AA X:55 Y:A7 P:E5 SP:F9 PPU:255
F9E7  A9 01     LDA A:AA X:55 Y:A7 P:E5 SP:F9 PPU:261
F9E9  60        RTS A:01 X:55 Y:A7 P:65 SP:F9 PPU:267
D458  85 78     STA A:01 X:55 Y:A7 P:65 SP:FB PPU:285
D45A  66 78     ROR A:01 X:55 Y:A7 P:65 SP:FB PPU:294
D45C  A5 78     LDA A:01 X:55 Y:A7 P:E5 SP:FB PPU:309
D45E  20 EA F9  JSR A:80 X:55 Y:A7 P:E5 SP:FB PPU:318
F9EA  90 1C     BCC A:80 X:55 Y:A7 P:E5 SP:F9 PPU:336
F9EC  F0 1A     BEQ A:80 X:55 Y:A7 P:E5 SP:F9 PPU:  1
F9EE  10 18     BPL A:80 X:55 Y:A7 P:E5 SP:F9 PPU:  7
F9F0  50 16     BVC A:80 X:55 Y:A7 P:E5 SP:F9 PPU: 13
F9F2  C9 80     CMP A:80 X:55 Y:A7 P:E5 SP:F9 PPU: 19
F9F4  D0 12     BNE A:80 X:55 Y:A7 P:67 SP:F9 PPU: 25
F9F6  B8        CLV A:80 X:55 Y:A7 P:67 SP:F9 PPU: 31
F9F7  18        CLC A:80 X:55 Y:A7 P:27 SP:F9 PPU: 37
F9F8  A9 55     LDA A:80 X:55 Y:A7 P:26 SP:F9 PPU: 43
F9FA  60        RTS A:55 X:55 Y:A7 P:24 SP:F9 PPU: 49
D461  C8        INY A:55 X:55 Y:A7 P:24 SP:FB PPU: 67
D462  85 78     STA A:55 X:55 Y:A8 P:A4 SP:FB PPU: 73
D464  66 78     ROR A:55 X:55 Y:A8 P:A4 SP:FB PPU: 82
D466  A5 78     LDA A:55 X:55 Y:A8 P:25 SP:FB PPU: 97
D468  20 FB F9  JSR A:2A X:55 Y:A8 P:25 SP:FB PPU:106
F9FB  90 0B     BCC A:2A X:55 Y:A8 P:25 SP:F9 PPU:124
F9FD  F0 09     BEQ A:2A X:55 Y:A8 P:25 SP:F9 PPU:130
F9FF  30 07     BMI A:2A X:55 Y:A8 P:25 SP:F9 PPU:136
FA01  70 05     BVS A:2A X:55 Y:A8 P:25 SP:F9 PPU:142
FA03  C9 2A     CMP A:2A X:55 Y:A8 P:25 SP:F9 PPU:148
FA05  D0 01     BNE A:2A X:55 Y:A8 P:27 SP:F9 PPU:154
FA07  60        RTS A:2A X:55 Y:A8 P:27 SP:F9 PPU:160
D46B  C8        INY A:2A X:55 Y:A8 P:27 SP:FB PPU:178
D46C  20 0A FA  JSR A:2A X:55 Y:A9 P:A5 SP:FB PPU:184
FA0A  24 01     BIT A:2A X:55 Y:A9 P:A5 SP:F9 PPU:202
FA0C  38        SEC A:2A X:55 Y:A9 P:E5 SP:F9 PPU:211
FA0D  A9 80     LDA A:2A X:55 Y:A9 P:E5 SP:F9 PPU:217
FA0F  60        RTS A:80 X:55 Y:A9 P:E5 SP:F9 PPU:223
D46F  85 78     STA A:80 X:55 Y:A9 P:E5 SP:FB PPU:241
D471  26 78     ROL A:80 X:55 Y:A9 P:E5 SP:FB PPU:250
D473  A5 78     LDA A:80 X:55 Y:A9 P:65 SP:FB PPU:265
D475  20 10 FA  JSR A:01 X:55 Y:A9 P:65 SP:FB PPU:274
FA10  90 1C     BCC A:01 X:55 Y:A9 P:65 SP:F9 PPU:292
FA12  F0 1A     BEQ A:01 X:55 Y:A9 P:65 SP:F9 PPU:298
FA14  30 18     BMI A:01 X:55 Y:A9 P:65 SP:F9 PPU:304
FA16  50 16     BVC A:01 X:55 Y:A9 P:65 SP:F9 PPU:310
FA18  C9 01     CMP A:01 X:55 Y:A9 P:65 SP:F9 PPU:316
FA1A  D0 12     BNE A:01 X:55 Y:A9 P:67 SP:F9 PPU:322
FA1C  B8        CLV A:01 X:55 Y:A9 P:67 SP:F9 PPU:328
FA1D  18        CLC A:01 X:55 Y:A9 P:27 SP:F9 PPU:334
FA1E  A9 55     LDA A:01 X:55 Y:A9 P:26 SP:F9 PPU:340
FA20  60        RTS A:55 X:55 Y:A9 P:24 SP:F9 PPU:  5
D478  C8        INY A:55 X:55 Y:A9 P:24 SP:FB PPU: 23
D479  85 78     STA A:55 X:55 Y:AA P:A4 SP:FB PPU: 29
D47B  26 78     ROL A:55 X:55 Y:AA P:A4 SP:FB PPU: 38
D47D  A5 78     LDA A:55 X:55 Y:AA P:A4 SP:FB PPU: 53
D47F  20 21 FA  JSR A:AA X:55 Y:AA P:A4 SP:FB PPU: 62
FA21  B0 0B     BCS A:AA X:55 Y:AA P:A4 SP:F9 PPU: 80
FA23  F0 09     BEQ A:AA X:55 Y:AA P:A4 SP:F9 PPU: 86
FA25  10 07     BPL A:AA X:55 Y:AA P:A4 SP:F9 PPU: 92
FA27  70 05     BVS A:AA X:55 Y:AA P:A4 SP:F9 PPU: 98
FA29  C9 AA     CMP A:AA X:55 Y:AA P:A4 SP:F9 PPU:104
FA2B  D0 01     BNE A:AA X:55 Y:AA P:27 SP:F9 PPU:110
FA2D  60        RTS A:AA X:55 Y:AA P:27 SP:F9 PPU:116
D482  A9 FF     LDA A:AA X:55 Y:AA P:27 SP:FB PPU:134
D484  85 78     STA A:FF X:55 Y:AA P:A5 SP:FB PPU:140
D486  85 01     STA A:FF X:55 Y:AA P:A5 SP:FB PPU:149
D488  24 01     BIT A:FF X:55 Y:AA P:A5 SP:FB PPU:158
D48A  38        SEC A:FF X:55 Y:AA P:E5 SP:FB PPU:167
D48B  E6 78     INC A:FF X:55 Y:AA P:E5 SP:FB PPU:173
D48D  D0 0C     BNE A:FF X:55 Y:AA P:67 SP:FB PPU:188
D48F  30 0A     BMI A:FF X:55 Y:AA P:67 SP:FB PPU:194
D491  50 08     BVC A:FF X:55 Y:AA P:67 SP:FB PPU:200
D493  90 06     BCC A:FF X:55 Y:AA P:67 SP:FB PPU:206
D495  A5 78     LDA A:FF X:55 Y:AA P:67 SP:FB PPU:212
D497  C9 00     CMP A:00 X:55 Y:AA P:67 SP:FB PPU:221
D499  F0 04     BEQ A:00 X:55 Y:AA P:67 SP:FB PPU:227
D49F  A9 7F     LDA A:00 X:55 Y:AA P:67 SP:FB PPU:236
D4A1  85 78     STA A:7F X:55 Y:AA P:65 SP:FB PPU:242
D4A3  B8        CLV A:7F X:55 Y:AA P:65 SP:FB PPU:251
D4A4  18        CLC A:7F X:55 Y:AA P:25 SP:FB PPU:257
D4A5  E6 78     INC A:7F X:55 Y:AA P:24 SP:FB PPU:263
D4A7  F0 0C     BEQ A:7F X:55 Y:AA P:A4 SP:FB PPU:278
D4A9  10 0A     BPL A:7F X:55 Y:AA P:A4 SP:FB PPU:284
D4AB  70 08     BVS A:7F X:55 Y:AA P:A4 SP:FB PPU:290
D4AD  B0 06     BCS A:7F X:55 Y:AA P:A4 SP:FB PPU:296
D4AF  A5 78     LDA A:7F X:55 Y:AA P:A4 SP:FB PPU:302
D4B1  C9 80     CMP A:80 X:55 Y:AA P:A4 SP:FB PPU:311
D4B3  F0 04     BEQ A:80 X:55 Y:AA P:27 SP:FB PPU:317
D4B9  A9 00     LDA A:80 X:55 Y:AA P:27 SP:FB PPU:326
D4BB  85 78     STA A:00 X:55 Y:AA P:27 SP:FB PPU:332
D4BD  24 01     BIT A:00 X:55 Y:AA P:27 SP:FB PPU:  0
D4BF  38        SEC A:00 X:55 Y:AA P:E7 SP:FB PPU:  9
D4C0  C6 78     DEC A:00 X:55 Y:AA P:E7 SP:FB PPU: 15
D4C2  F0 0C     BEQ A:00 X:55 Y:AA P:E5 SP:FB PPU: 30
D4C4  10 0A     BPL A:00 X:55 Y:AA P:E5 SP:FB PPU: 36
D4C6  50 08     BVC A:00 X:55 Y:AA P:E5 SP:FB PPU: 42
D4C8  90 06     BCC A:00 X:55 Y:AA P:E5 SP:FB PPU: 48
D4CA  A5 78     LDA A:00 X:55 Y:AA P:E5 SP:FB PPU: 54
D4CC  C9 FF     CMP A:FF X:55 Y:AA P:E5 SP:FB PPU: 63
D4CE  F0 04     BEQ A:FF X:55 Y:AA P:67 SP:FB PPU: 69
D4D4  A9 80     LDA A:FF X:55 Y:AA P:67 SP:FB PPU: 78
D4D6  85 78     STA A:80 X:55 Y:AA P:E5 SP:FB PPU: 84
D4D8  B8        CLV A:80 X:55 Y:AA P:E5 SP:FB PPU: 93
D4D9  18        CLC A:80 X:55 Y:AA P:A5 SP:FB PPU: 99
D4DA  C6 78     DEC A:80 X:55 Y:AA P:A4 SP:FB PPU:105
D4DC  F0 0C     BEQ A:80 X:55 Y:AA P:24 SP:FB PPU:120
D4DE  30 0A     BMI A:80 X:55 Y:AA P:24 SP:FB PPU:126
D4E0  70 08     BVS A:80 X:55 Y:AA P:24 SP:FB PPU:132
D4E2  B0 06     BCS A:80 X:55 Y:AA P:24 SP:FB PPU:138
D4E4  A5 78     LDA A:80 X:55 Y:AA P:24 SP:FB PPU:144
D4E6  C9 7F     CMP A:7F X:55 Y:AA P:24 SP:FB PPU:153
D4E8  F0 04     BEQ A:7F X:55 Y:AA P:27 SP:FB PPU:159
D4EE  A9 01     LDA A:7F X:55 Y:AA P:27 SP:FB PPU:168
D4F0  85 78     STA A:01 X:55 Y:AA P:25 SP:FB PPU:174
D4F2  C6 78     DEC A:01 X:55 Y:AA P:25 SP:FB PPU:183
D4F4  F0 04     BEQ A:01 X:55 Y:AA P:27 SP:FB PPU:198
D4FA  60        RTS A:01 X:55 Y:AA P:27 SP:FB PPU:207
C615  20 FB D4  JSR A:01 X:55 Y:AA P:27 SP:FD PPU:225
D4FB  A9 55     LDA A:01 X:55 Y:AA P:27 SP:FB PPU:243
D4FD  8D 78 06  STA A:55 X:55 Y:AA P:25 SP:FB PPU:249
D500  A9 FF     LDA A:55 X:55 Y:AA P:25 SP:FB PPU:261
D502  85 01     STA A:FF X:55 Y:AA P:A5 SP:FB PPU:267
D504  24 01     BIT A:FF X:55 Y:AA P:A5 SP:FB PPU:276
D506  A0 11     LDY A:FF X:55 Y:AA P:E5 SP:FB PPU:285
D508  A2 23     LDX A:FF X:55 Y:11 P:65 SP:FB PPU:291
D50A  A9 00     LDA A:FF X:23 Y:11 P:65 SP:FB PPU:297
D50C  AD 78 06  LDA A:00 X:23 Y:11 P:67 SP:FB PPU:303
D50F  F0 10     BEQ A:55 X:23 Y:11 P:65 SP:FB PPU:315
D511  30 0E     BMI A:55 X:23 Y:11 P:65 SP:FB PPU:321
D513  C9 55     CMP A:55 X:23 Y:11 P:65 SP:FB PPU:327
D515  D0 0A     BNE A:55 X:23 Y:11 P:67 SP:FB PPU:333
D517  C0 11     CPY A:55 X:23 Y:11 P:67 SP:FB PPU:339
D519  D0 06     BNE A:55 X:23 Y:11 P:67 SP:FB PPU:  4
D51B  E0 23     CPX A:55 X:23 Y:11 P:67 SP:FB PPU: 10
D51D  50 02     BVC A:55 X:23 Y:11 P:67 SP:FB PPU: 16
D51F  F0 04     BEQ A:55 X:23 Y:11 P:67 SP:FB PPU: 22
D525  A9 46     LDA A:55 X:23 Y:11 P:67 SP:FB PPU: 31
D527  24 01     BIT A:46 X:23 Y:11 P:65 SP:FB PPU: 37
D529  8D 78 06  STA A:46 X:23 Y:11 P:E5 SP:FB PPU: 46
D52C  F0 0B     BEQ A:46 X:23 Y:11 P:E5 SP:FB PPU: 58
D52E  10 09     BPL A:46 X:23 Y:11 P:E5 SP:FB PPU: 64
D530  50 07     BVC A:46 X:23 Y:11 P:E5 SP:FB PPU: 70
D532  AD 78 06  LDA A:46 X:23 Y:11 P:E5 SP:FB PPU: 76
D535  C9 46     CMP A:46 X:23 Y:11 P:65 SP:FB PPU: 88
D537  F0 04     BEQ A:46 X:23 Y:11 P:67 SP:FB PPU: 94
D53D  A9 55     LDA A:46 X:23 Y:11 P:67 SP:FB PPU:103
D53F  8D 78 06  STA A:55 X:23 Y:11 P:65 SP:FB PPU:109
D542  24 01     BIT A:55 X:23 Y:11 P:65 SP:FB PPU:121
D544  A9 11     LDA A:55 X:23 Y:11 P:E5 SP:FB PPU:130
D546  A2 23     LDX A:11 X:23 Y:11 P:65 SP:FB PPU:136
D548  A0 00     LDY A:11 X:23 Y:11 P:65 SP:FB PPU:142
D54A  AC 78 06  LDY A:11 X:23 Y:00 P:67 SP:FB PPU:148
D54D  F0 10     BEQ A:11 X:23 Y:55 P:65 SP:FB PPU:160
D54F  30 0E     BMI A:11 X:23 Y:55 P:65 SP:FB PPU:166
D551  C0 55     CPY A:11 X:23 Y:55 P:65 SP:FB PPU:172
D553  D0 0A     BNE A:11 X:23 Y:55 P:67 SP:FB PPU:178
D555  C9 11     CMP A:11 X:23 Y:55 P:67 SP:FB PPU:184
D557  D0 06     BNE A:11 X:23 Y:55 P:67 SP:FB PPU:190
D559  E0 23     CPX A:11 X:23 Y:55 P:67 SP:FB PPU:196
D55B  50 02     BVC A:11 X:23 Y:55 P:67 SP:FB PPU:202
D55D  F0 04     BEQ A:11 X:23 Y:55 P:67 SP:FB PPU:208
D563  A0 46     LDY A:11 X:23 Y:55 P:67 SP:FB PPU:217
D565  24 01     BIT A:11 X:23 Y:46 P:65 SP:FB PPU:223
D567  8C 78 06  STY A:11 X:23 Y:46 P:E5 SP:FB PPU:232
D56A  F0 0B     BEQ A:11 X:23 Y:46 P:E5 SP:FB PPU:244
D56C  10 09     BPL A:11 X:23 Y:46 P:E5 SP:FB PPU:250
D56E  50 07     BVC A:11 X:23 Y:46 P:E5 SP:FB PPU:256
D570  AC 78 06  LDY A:11 X:23 Y:46 P:E5 SP:FB PPU:262
D573  C0 46     CPY A:11 X:23 Y:46 P:65 SP:FB PPU:274
D575  F0 04     BEQ A:11 X:23 Y:46 P:67 SP:FB PPU:280
D57B  24 01     BIT A:11 X:23 Y:46 P:67 SP:FB PPU:289
D57D  A9 55     LDA A:11 X:23 Y:46 P:E5 SP:FB PPU:298
D57F  8D 78 06  STA A:55 X:23 Y:46 P:65 SP:FB PPU:304
D582  A0 11     LDY A:55 X:23 Y:46 P:65 SP:FB PPU:316
D584  A9 23     LDA A:55 X:23 Y:11 P:65 SP:FB PPU:322
D586  A2 00     LDX A:23 X:23 Y:11 P:65 SP:FB PPU:328
D588  AE 78 06  LDX A:23 X:00 Y:11 P:67 SP:FB PPU:334
D58B  F0 10     BEQ A:23 X:55 Y:11 P:65 SP:FB PPU:  5
D58D  30 0E     BMI A:23 X:55 Y:11 P:65 SP:FB PPU: 11
D58F  E0 55     CPX A:23 X:55 Y:11 P:65 SP:FB PPU: 17
D591  D0 0A     BNE A:23 X:55 Y:11 P:67 SP:FB PPU: 23
D593  C0 11     CPY A:23 X:55 Y:11 P:67 SP:FB PPU: 29
D595  D0 06     BNE A:23 X:55 Y:11 P:67 SP:FB PPU: 35
D597  C9 23     CMP A:23 X:55 Y:11 P:67 SP:FB PPU: 41
D599  50 02     BVC A:23 X:55 Y:11 P:67 SP:FB PPU: 47
D59B  F0 04     BEQ A:23 X:55 Y:11 P:67 SP:FB PPU: 53
D5A1  A2 46     LDX A:23 X:55 Y:11 P:67 SP:FB PPU: 62
D5A3  24 01     BIT A:23 X:46 Y:11 P:65 SP:FB PPU: 68
D5A5  8E 78 06  STX A:23 X:46 Y:11 P:E5 SP:FB PPU: 77
D5A8  F0 0B     BEQ A:23 X:46 Y:11 P:E5 SP:FB PPU: 89
D5AA  10 09     BPL A:23 X:46 Y:11 P:E5 SP:FB PPU: 95
D5AC  50 07     BVC A:23 X:46 Y:11 P:E5 SP:FB PPU:101
D5AE  AE 78 06  LDX A:23 X:46 Y:11 P:E5 SP:FB PPU:107
D5B1  E0 46     CPX A:23 X:46 Y:11 P:65 SP:FB PPU:119
D5B3  F0 04     BEQ A:23 X:46 Y:11 P:67 SP:FB PPU:125
D5B9  A9 C0     LDA A:23 X:46 Y:11 P:67 SP:FB PPU:134
D5BB  8D 78 06  STA A:C0 X:46 Y:11 P:E5 SP:FB PPU:140
D5BE  A2 33     LDX A:C0 X:46 Y:11 P:E5 SP:FB PPU:152
D5C0  A0 88     LDY A:C0 X:33 Y:11 P:65 SP:FB PPU:158
D5C2  A9 05     LDA A:C0 X:33 Y:88 P:E5 SP:FB PPU:164
D5C4  2C 78 06  BIT A:05 X:33 Y:88 P:65 SP:FB PPU:170
D5C7  10 10     BPL A:05 X:33 Y:88 P:E7 SP:FB PPU:182
D5C9  50 0E     BVC A:05 X:33 Y:88 P:E7 SP:FB PPU:188
D5CB  D0 0C     BNE A:05 X:33 Y:88 P:E7 SP:FB PPU:194
D5CD  C9 05     CMP A:05 X:33 Y:88 P:E7 SP:FB PPU:200
D5CF  D0 08     BNE A:05 X:33 Y:88 P:67 SP:FB PPU:206
D5D1  E0 33     CPX A:05 X:33 Y:88 P:67 SP:FB PPU:212
D5D3  D0 04     BNE A:05 X:33 Y:88 P:67 SP:FB PPU:218
D5D5  C0 88     CPY A:05 X:33 Y:88 P:67 SP:FB PPU:224
D5D7  F0 04     BEQ A:05 X:33 Y:88 P:67 SP:FB PPU:230
D5DD  A9 03     LDA A:05 X:33 Y:88 P:67 SP:FB PPU:239
D5DF  8D 78 06  STA A:03 X:33 Y:88 P:65 SP:FB PPU:245
D5E2  A9 01     LDA A:03 X:33 Y:88 P:65 SP:FB PPU:257
D5E4  2C 78 06  BIT A:01 X:33 Y:88 P:65 SP:FB PPU:263
D5E7  30 08     BMI A:01 X:33 Y:88 P:25 SP:FB PPU:275
D5E9  70 06     BVS A:01 X:33 Y:88 P:25 SP:FB PPU:281
D5EB  F0 04     BEQ A:01 X:33 Y:88 P:25 SP:FB PPU:287
D5ED  C9 01     CMP A:01 X:33 Y:88 P:25 SP:FB PPU:293
D5EF  F0 04     BEQ A:01 X:33 Y:88 P:27 SP:FB PPU:299
D5F5  A0 B8     LDY A:01 X:33 Y:88 P:27 SP:FB PPU:308
D5F7  A9 AA     LDA A:01 X:33 Y:B8 P:A5 SP:FB PPU:314
D5F9  8D 78 06  STA A:AA X:33 Y:B8 P:A5 SP:FB PPU:320
D5FC  20 B6 F7  JSR A:AA X:33 Y:B8 P:A5 SP:FB PPU:332
F7B6  18        CLC A:AA X:33 Y:B8 P:A5 SP:F9 PPU:  9
F7B7  A9 FF     LDA A:AA X:33 Y:B8 P:A4 SP:F9 PPU: 15
F7B9  85 01     STA A:FF X:33 Y:B8 P:A4 SP:F9 PPU: 21
F7BB  24 01     BIT A:FF X:33 Y:B8 P:A4 SP:F9 PPU: 30
F7BD  A9 55     LDA A:FF X:33 Y:B8 P:E4 SP:F9 PPU: 39
F7BF  60        RTS A:55 X:33 Y:B8 P:64 SP:F9 PPU: 45
D5FF  0D 78 06  ORA A:55 X:33 Y:B8 P:64 SP:FB PPU: 63
D602  20 C0 F7  JSR A:FF X:33 Y:B8 P:E4 SP:FB PPU: 75
F7C0  B0 09     BCS A:FF X:33 Y:B8 P:E4 SP:F9 PPU: 93
F7C2  10 07     BPL A:FF X:33 Y:B8 P:E4 SP:F9 PPU: 99
F7C4  C9 FF     CMP A:FF X:33 Y:B8 P:E4 SP:F9 PPU:105
F7C6  D0 03     BNE A:FF X:33 Y:B8 P:67 SP:F9 PPU:111
F7C8  50 01     BVC A:FF X:33 Y:B8 P:67 SP:F9 PPU:117
F7CA  60        RTS A:FF X:33 Y:B8 P:67 SP:F9 PPU:123
D605  C8        INY A:FF X:33 Y:B8 P:67 SP:FB PPU:141
D606  A9 00     LDA A:FF X:33 Y:B9 P:E5 SP:FB PPU:147
D608  8D 78 06  STA A:00 X:33 Y:B9 P:67 SP:FB PPU:153
D60B  20 CE F7  JSR A:00 X:33 Y:B9 P:67 SP:FB PPU:165
F7CE  38        SEC A:00 X:33 Y:B9 P:67 SP:F9 PPU:183
F7CF  B8        CLV A:00 X:33 Y:B9 P:67 SP:F9 PPU:189
F7D0  A9 00     LDA A:00 X:33 Y:B9 P:27 SP:F9 PPU:195
F7D2  60        RTS A:00 X:33 Y:B9 P:27 SP:F9 PPU:201
D60E  0D 78 06  ORA A:00 X:33 Y:B9 P:27 SP:FB PPU:219
D611  20 D3 F7  JSR A:00 X:33 Y:B9 P:27 SP:FB PPU:231
F7D3  D0 07     BNE A:00 X:33 Y:B9 P:27 SP:F9 PPU:249
F7D5  70 05     BVS A:00 X:33 Y:B9 P:27 SP:F9 PPU:255
F7D7  90 03     BCC A:00 X:33 Y:B9 P:27 SP:F9 PPU:261
F7D9  30 01     BMI A:00 X:33 Y:B9 P:27 SP:F9 PPU:267
F7DB  60        RTS A:00 X:33 Y:B9 P:27 SP:F9 PPU:273
D614  C8        INY A:00 X:33 Y:B9 P:27 SP:FB PPU:291
D615  A9 AA     LDA A:00 X:33 Y:BA P:A5 SP:FB PPU:297
D617  8D 78 06  STA A:AA X:33 Y:BA P:A5 SP:FB PPU:303
D61A  20 DF F7  JSR A:AA X:33 Y:BA P:A5 SP:FB PPU:315
F7DF  18        CLC A:AA X:33 Y:BA P:A5 SP:F9 PPU:333
F7E0  24 01     BIT A:AA X:33 Y:BA P:A4 SP:F9 PPU:339
F7E2  A9 55     LDA A:AA X:33 Y:BA P:E4 SP:F9 PPU:  7
F7E4  60        RTS A:55 X:33 Y:BA P:64 SP:F9 PPU: 13
D61D  2D 78 06  AND A:55 X:33 Y:BA P:64 SP:FB PPU: 31
D620  20 E5 F7  JSR A:00 X:33 Y:BA P:66 SP:FB PPU: 43
F7E5  D0 07     BNE A:00 X:33 Y:BA P:66 SP:F9 PPU: 61
F7E7  50 05     BVC A:00 X:33 Y:BA P:66 SP:F9 PPU: 67
F7E9  B0 03     BCS A:00 X:33 Y:BA P:66 SP:F9 PPU: 73
F7EB  30 01     BMI A:00 X:33 Y:BA P:66 SP:F9 PPU: 79
F7ED  60        RTS A:00 X:33 Y:BA P:66 SP:F9 PPU: 85
D623  C8        INY A:00 X:33 Y:BA P:66 SP:FB PPU:103
D624  A9 EF     LDA A:00 X:33 Y:BB P:E4 SP:FB PPU:109
D626  8D 78 06  STA A:EF X:33 Y:BB P:E4 SP:FB PPU:115
D629  20 F1 F7  JSR A:EF X:33 Y:BB P:E4 SP:FB PPU:127
F7F1  38        SEC A:EF X:33 Y:BB P:E4 SP:F9 PPU:145
F7F2  B8        CLV A:EF X:33 Y:BB P:E5 SP:F9 PPU:151
F7F3  A9 F8     LDA A:EF X:33 Y:BB P:A5 SP:F9 PPU:157
F7F5  60        RTS A:F8 X:33 Y:BB P:A5 SP:F9 PPU:163
D62C  2D 78 06  AND A:F8 X:33 Y:BB P:A5 SP:FB PPU:181
D62F  20 F6 F7  JSR A:E8 X:33 Y:BB P:A5 SP:FB PPU:193
F7F6  90 09     BCC A:E8 X:33 Y:BB P:A5 SP:F9 PPU:211
F7F8  10 07     BPL A:E8 X:33 Y:BB P:A5 SP:F9 PPU:217
F7FA  C9 E8     CMP A:E8 X:33 Y:BB P:A5 SP:F9 PPU:223
F7FC  D0 03     BNE A:E8 X:33 Y:BB P:27 SP:F9 PPU:229
F7FE  70 01     BVS A:E8 X:33 Y:BB P:27 SP:F9 PPU:235
F800  60        RTS A:E8 X:33 Y:BB P:27 SP:F9 PPU:241
D632  C8        INY A:E8 X:33 Y:BB P:27 SP:FB PPU:259
D633  A9 AA     LDA A:E8 X:33 Y:BC P:A5 SP:FB PPU:265
D635  8D 78 06  STA A:AA X:33 Y:BC P:A5 SP:FB PPU:271
D638  20 04 F8  JSR A:AA X:33 Y:BC P:A5 SP:FB PPU:283
F804  18        CLC A:AA X:33 Y:BC P:A5 SP:F9 PPU:301
F805  24 01     BIT A:AA X:33 Y:BC P:A4 SP:F9 PPU:307
F807  A9 5F     LDA A:AA X:33 Y:BC P:E4 SP:F9 PPU:316
F809  60        RTS A:5F X:33 Y:BC P:64 SP:F9 PPU:322
D63B  4D 78 06  EOR A:5F X:33 Y:BC P:64 SP:FB PPU:340
D63E  20 0A F8  JSR A:F5 X:33 Y:BC P:E4 SP:FB PPU: 11
F80A  B0 09     BCS A:F5 X:33 Y:BC P:E4 SP:F9 PPU: 29
F80C  10 07     BPL A:F5 X:33 Y:BC P:E4 SP:F9 PPU: 35
F80E  C9 F5     CMP A:F5 X:33 Y:BC P:E4 SP:F9 PPU: 41
F810  D0 03     BNE A:F5 X:33 Y:BC P:67 SP:F9 PPU: 47
F812  50 01     BVC A:F5 X:33 Y:BC P:67 SP:F9 PPU: 53
F814  60        RTS A:F5 X:33 Y:BC P:67 SP:F9 PPU: 59
D641  C8        INY A:F5 X:33 Y:BC P:67 SP:FB PPU: 77
D642  A9 70     LDA A:F5 X:33 Y:BD P:E5 SP:FB PPU: 83
D644  8D 78 06  STA A:70 X:33 Y:BD P:65 SP:FB PPU: 89
D647  20 18 F8  JSR A:70 X:33 Y:BD P:65 SP:FB PPU:101
F818  38        SEC A:70 X:33 Y:BD P:65 SP:F9 PPU:119
F819  B8        CLV A:70 X:33 Y:BD P:65 SP:F9 PPU:125
F81A  A9 70     LDA A:70 X:33 Y:BD P:25 SP:F9 PPU:131
F81C  60        RTS A:70 X:33 Y:BD P:25 SP:F9 PPU:137
D64A  4D 78 06  EOR A:70 X:33 Y:BD P:25 SP:FB PPU:155
D64D  20 1D F8  JSR A:00 X:33 Y:BD P:27 SP:FB PPU:167
F81D  D0 07     BNE A:00 X:33 Y:BD P:27 SP:F9 PPU:185
F81F  70 05     BVS A:00 X:33 Y:BD P:27 SP:F9 PPU:191
F821  90 03     BCC A:00 X:33 Y:BD P:27 SP:F9 PPU:197
F823  30 01     BMI A:00 X:33 Y:BD P:27 SP:F9 PPU:203
F825  60        RTS A:00 X:33 Y:BD P:27 SP:F9 PPU:209
D650  C8        INY A:00 X:33 Y:BD P:27 SP:FB PPU:227
D651  A9 69     LDA A:00 X:33 Y:BE P:A5 SP:FB PPU:233
D653  8D 78 06  STA A:69 X:33 Y:BE P:25 SP:FB PPU:239
D656  20 29 F8  JSR A:69 X:33 Y:BE P:25 SP:FB PPU:251
F829  18        CLC A:69 X:33 Y:BE P:25 SP:F9 PPU:269
F82A  24 01     BIT A:69 X:33 Y:BE P:24 SP:F9 PPU:275
F82C  A9 00     LDA A:69 X:33 Y:BE P:E4 SP:F9 PPU:284
F82E  60        RTS A:00 X:33 Y:BE P:66 SP:F9 PPU:290
D659  6D 78 06  ADC A:00 X:33 Y:BE P:66 SP:FB PPU:308
D65C  20 2F F8  JSR A:69 X:33 Y:BE P:24 SP:FB PPU:320
F82F  30 09     BMI A:69 X:33 Y:BE P:24 SP:F9 PPU:338
F831  B0 07     BCS A:69 X:33 Y:BE P:24 SP:F9 PPU:  3
F833  C9 69     CMP A:69 X:33 Y:BE P:24 SP:F9 PPU:  9
F835  D0 03     BNE A:69 X:33 Y:BE P:27 SP:F9 PPU: 15
F837  70 01     BVS A:69 X:33 Y:BE P:27 SP:F9 PPU: 21
F839  60        RTS A:69 X:33 Y:BE P:27 SP:F9 PPU: 27
D65F  C8        INY A:69 X:33 Y:BE P:27 SP:FB PPU: 45
D660  20 3D F8  JSR A:69 X:33 Y:BF P:A5 SP:FB PPU: 51
F83D  38        SEC A:69 X:33 Y:BF P:A5 SP:F9 PPU: 69
F83E  24 01     BIT A:69 X:33 Y:BF P:A5 SP:F9 PPU: 75
F840  A9 00     LDA A:69 X:33 Y:BF P:E5 SP:F9 PPU: 84
F842  60        RTS A:00 X:33 Y:BF P:67 SP:F9 PPU: 90
D663  6D 78 06  ADC A:00 X:33 Y:BF P:67 SP:FB PPU:108
D666  20 43 F8  JSR A:6A X:33 Y:BF P:24 SP:FB PPU:120
F843  30 09     BMI A:6A X:33 Y:BF P:24 SP:F9 PPU:138
F845  B0 07     BCS A:6A X:33 Y:BF P:24 SP:F9 PPU:144
F847  C9 6A     CMP A:6A X:33 Y:BF P:24 SP:F9 PPU:150
F849  D0 03     BNE A:6A X:33 Y:BF P:27 SP:F9 PPU:156
F84B  70 01     BVS A:6A X:33 Y:BF P:27 SP:F9 PPU:162
F84D  60        RTS A:6A X:33 Y:BF P:27 SP:F9 PPU:168
D669  C8        INY A:6A X:33 Y:BF P:27 SP:FB PPU:186
D66A  A9 7F     LDA A:6A X:33 Y:C0 P:A5 SP:FB PPU:192
D66C  8D 78 06  STA A:7F X:33 Y:C0 P:25 SP:FB PPU:198
D66F  20 51 F8  JSR A:7F X:33 Y:C0 P:25 SP:FB PPU:210
F851  38        SEC A:7F X:33 Y:C0 P:25 SP:F9 PPU:228
F852  B8        CLV A:7F X:33 Y:C0 P:25 SP:F9 PPU:234
F853  A9 7F     LDA A:7F X:33 Y:C0 P:25 SP:F9 PPU:240
F855  60        RTS A:7F X:33 Y:C0 P:25 SP:F9 PPU:246
D672  6D 78 06  ADC A:7F X:33 Y:C0 P:25 SP:FB PPU:264
D675  20 56 F8  JSR A:FF X:33 Y:C0 P:E4 SP:FB PPU:276
F856  10 09     BPL A:FF X:33 Y:C0 P:E4 SP:F9 PPU:294
F858  B0 07     BCS A:FF X:33 Y:C0 P:E4 SP:F9 PPU:300
F85A  C9 FF     CMP A:FF X:33 Y:C0 P:E4 SP:F9 PPU:306
F85C  D0 03     BNE A:FF X:33 Y:C0 P:67 SP:F9 PPU:312
F85E  50 01     BVC A:FF X:33 Y:C0 P:67 SP:F9 PPU:318
F860  60        RTS A:FF X:33 Y:C0 P:67 SP:F9 PPU:324
D678  C8        INY A:FF X:33 Y:C0 P:67 SP:FB PPU:  1
D679  A9 80     LDA A:FF X:33 Y:C1 P:E5 SP:FB PPU:  7
D67B  8D 78 06  STA A:80 X:33 Y:C1 P:E5 SP:FB PPU: 13
D67E  20 64 F8  JSR A:80 X:33 Y:C1 P:E5 SP:FB PPU: 25
F864  18        CLC A:80 X:33 Y:C1 P:E5 SP:F9 PPU: 43
F865  24 01     BIT A:80 X:33 Y:C1 P:E4 SP:F9 PPU: 49
F867  A9 7F     LDA A:80 X:33 Y:C1 P:E4 SP:F9 PPU: 58
F869  60        RTS A:7F X:33 Y:C1 P:64 SP:F9 PPU: 64
D681  6D 78 06  ADC A:7F X:33 Y:C1 P:64 SP:FB PPU: 82
D684  20 6A F8  JSR A:FF X:33 Y:C1 P:A4 SP:FB PPU: 94
F86A  10 09     BPL A:FF X:33 Y:C1 P:A4 SP:F9 PPU:112
F86C  B0 07     BCS A:FF X:33 Y:C1 P:A4 SP:F9 PPU:118
F86E  C9 FF     CMP A:FF X:33 Y:C1 P:A4 SP:F9 PPU:124
F870  D0 03     BNE A:FF X:33 Y:C1 P:27 SP:F9 PPU:130
F872  70 01     BVS A:FF X:33 Y:C1 P:27 SP:F9 PPU:136
F874  60        RTS A:FF X:33 Y:C1 P:27 SP:F9 PPU:142
D687  C8        INY A:FF X:33 Y:C1 P:27 SP:FB PPU:160
D688  20 78 F8  JSR A:FF X:33 Y:C2 P:A5 SP:FB PPU:166
F878  38        SEC A:FF X:33 Y:C2 P:A5 SP:F9 PPU:184
F879  B8        CLV A:FF X:33 Y:C2 P:A5 SP:F9 PPU:190
F87A  A9 7F     LDA A:FF X:33 Y:C2 P:A5 SP:F9 PPU:196
F87C  60        RTS A:7F X:33 Y:C2 P:25 SP:F9 PPU:202
D68B  6D 78 06  ADC A:7F X:33 Y:C2 P:25 SP:FB PPU:220
D68E  20 7D F8  JSR A:00 X:33 Y:C2 P:27 SP:FB PPU:232
F87D  D0 07     BNE A:00 X:33 Y:C2 P:27 SP:F9 PPU:250
F87F  30 05     BMI A:00 X:33 Y:C2 P:27 SP:F9 PPU:256
F881  70 03     BVS A:00 X:33 Y:C2 P:27 SP:F9 PPU:262
F883  90 01     BCC A:00 X:33 Y:C2 P:27 SP:F9 PPU:268
F885  60        RTS A:00 X:33 Y:C2 P:27 SP:F9 PPU:274
D691  C8        INY A:00 X:33 Y:C2 P:27 SP:FB PPU:292
D692  A9 40     LDA A:00 X:33 Y:C3 P:A5 SP:FB PPU:298
D694  8D 78 06  STA A:40 X:33 Y:C3 P:25 SP:FB PPU:304
D697  20 89 F8  JSR A:40 X:33 Y:C3 P:25 SP:FB PPU:316
F889  24 01     BIT A:40 X:33 Y:C3 P:25 SP:F9 PPU:334
F88B  A9 40     LDA A:40 X:33 Y:C3 P:E5 SP:F9 PPU:  2
F88D  60        RTS A:40 X:33 Y:C3 P:65 SP:F9 PPU:  8
D69A  CD 78 06  CMP A:40 X:33 Y:C3 P:65 SP:FB PPU: 26
D69D  20 8E F8  JSR A:40 X:33 Y:C3 P:67 SP:FB PPU: 38
F88E  30 07     BMI A:40 X:33 Y:C3 P:67 SP:F9 PPU: 56
F890  90 05     BCC A:40 X:33 Y:C3 P:67 SP:F9 PPU: 62
F892  D0 03     BNE A:40 X:33 Y:C3 P:67 SP:F9 PPU: 68
F894  50 01     BVC A:40 X:33 Y:C3 P:67 SP:F9 PPU: 74
F896  60        RTS A:40 X:33 Y:C3 P:67 SP:F9 PPU: 80
D6A0  C8        INY A:40 X:33 Y:C3 P:67 SP:FB PPU: 98
D6A1  48        PHA A:40 X:33 Y:C4 P:E5 SP:FB PPU:104
D6A2  A9 3F     LDA A:40 X:33 Y:C4 P:E5 SP:FA PPU:113
D6A4  8D 78 06  STA A:3F X:33 Y:C4 P:65 SP:FA PPU:119
D6A7  68        PLA A:3F X:33 Y:C4 P:65 SP:FA PPU:131
D6A8  20 9A F8  JSR A:40 X:33 Y:C4 P:65 SP:FB PPU:143
F89A  B8        CLV A:40 X:33 Y:C4 P:65 SP:F9 PPU:161
F89B  60        RTS A:40 X:33 Y:C4 P:25 SP:F9 PPU:167
D6AB  CD 78 06  CMP A:40 X:33 Y:C4 P:25 SP:FB PPU:185
D6AE  20 9C F8  JSR A:40 X:33 Y:C4 P:25 SP:FB PPU:197
F89C  F0 07     BEQ A:40 X:33 Y:C4 P:25 SP:F9 PPU:215
F89E  30 05     BMI A:40 X:33 Y:C4 P:25 SP:F9 PPU:221
F8A0  90 03     BCC A:40 X:33 Y:C4 P:25 SP:F9 PPU:227
F8A2  70 01     BVS A:40 X:33 Y:C4 P:25 SP:F9 PPU:233
F8A4  60        RTS A:40 X:33 Y:C4 P:25 SP:F9 PPU:239
D6B1  C8        INY A:40 X:33 Y:C4 P:25 SP:FB PPU:257
D6B2  48        PHA A:40 X:33 Y:C5 P:A5 SP:FB PPU:263
D6B3  A9 41     LDA A:40 X:33 Y:C5 P:A5 SP:FA PPU:272
D6B5  8D 78 06  STA A:41 X:33 Y:C5 P:25 SP:FA PPU:278
D6B8  68        PLA A:41 X:33 Y:C5 P:25 SP:FA PPU:290
D6B9  CD 78 06  CMP A:40 X:33 Y:C5 P:25 SP:FB PPU:302
D6BC  20 A8 F8  JSR A:40 X:33 Y:C5 P:A4 SP:FB PPU:314
F8A8  F0 05     BEQ A:40 X:33 Y:C5 P:A4 SP:F9 PPU:332
F8AA  10 03     BPL A:40 X:33 Y:C5 P:A4 SP:F9 PPU:338
F8AC  10 01     BPL A:40 X:33 Y:C5 P:A4 SP:F9 PPU:  3
F8AE  60        RTS A:40 X:33 Y:C5 P:A4 SP:F9 PPU:  9
D6BF  C8        INY A:40 X:33 Y:C5 P:A4 SP:FB PPU: 27
D6C0  48        PHA A:40 X:33 Y:C6 P:A4 SP:FB PPU: 33
D6C1  A9 00     LDA A:40 X:33 Y:C6 P:A4 SP:FA PPU: 42
D6C3  8D 78 06  STA A:00 X:33 Y:C6 P:26 SP:FA PPU: 48
D6C6  68        PLA A:00 X:33 Y:C6 P:26 SP:FA PPU: 60
D6C7  20 B2 F8  JSR A:40 X:33 Y:C6 P:24 SP:FB PPU: 72
F8B2  A9 80     LDA A:40 X:33 Y:C6 P:24 SP:F9 PPU: 90
F8B4  60        RTS A:80 X:33 Y:C6 P:A4 SP:F9 PPU: 96
D6CA  CD 78 06  CMP A:80 X:33 Y:C6 P:A4 SP:FB PPU:114
D6CD  20 B5 F8  JSR A:80 X:33 Y:C6 P:A5 SP:FB PPU:126
F8B5  F0 05     BEQ A:80 X:33 Y:C6 P:A5 SP:F9 PPU:144
F8B7  10 03     BPL A:80 X:33 Y:C6 P:A5 SP:F9 PPU:150
F8B9  90 01     BCC A:80 X:33 Y:C6 P:A5 SP:F9 PPU:156
F8BB  60        RTS A:80 X:33 Y:C6 P:A5 SP:F9 PPU:162
D6D0  C8        INY A:80 X:33 Y:C6 P:A5 SP:FB PPU:180
D6D1  48        PHA A:80 X:33 Y:C7 P:A5 SP:FB PPU:186
D6D2  A9 80     LDA A:80 X:33 Y:C7 P:A5 SP:FA PPU:195
D6D4  8D 78 06  STA A:80 X:33 Y:C7 P:A5 SP:FA PPU:201
D6D7  68        PLA A:80 X:33 Y:C7 P:A5 SP:FA PPU:213
D6D8  CD 78 06  CMP A:80 X:33 Y:C7 P:A5 SP:FB PPU:225
D6DB  20 BF F8  JSR A:80 X:33 Y:C7 P:27 SP:FB PPU:237
F8BF  D0 05     BNE A:80 X:33 Y:C7 P:27 SP:F9 PPU:255
F8C1  30 03     BMI A:80 X:33 Y:C7 P:27 SP:F9 PPU:261
F8C3  90 01     BCC A:80 X:33 Y:C7 P:27 SP:F9 PPU:267
F8C5  60        RTS A:80 X:33 Y:C7 P:27 SP:F9 PPU:273
D6DE  C8        INY A:80 X:33 Y:C7 P:27 SP:FB PPU:291
D6DF  48        PHA A:80 X:33 Y:C8 P:A5 SP:FB PPU:297
D6E0  A9 81     LDA A:80 X:33 Y:C8 P:A5 SP:FA PPU:306
D6E2  8D 78 06  STA A:81 X:33 Y:C8 P:A5 SP:FA PPU:312
D6E5  68        PLA A:81 X:33 Y:C8 P:A5 SP:FA PPU:324
D6E6  CD 78 06  CMP A:80 X:33 Y:C8 P:A5 SP:FB PPU:336
D6E9  20 C9 F8  JSR A:80 X:33 Y:C8 P:A4 SP:FB PPU:  7
F8C9  B0 05     BCS A:80 X:33 Y:C8 P:A4 SP:F9 PPU: 25
F8CB  F0 03     BEQ A:80 X:33 Y:C8 P:A4 SP:F9 PPU: 31
F8CD  10 01     BPL A:80 X:33 Y:C8 P:A4 SP:F9 PPU: 37
F8CF  60        RTS A:80 X:33 Y:C8 P:A4 SP:F9 PPU: 43
D6EC  C8        INY A:80 X:33 Y:C8 P:A4 SP:FB PPU: 61
D6ED  48        PHA A:80 X:33 Y:C9 P:A4 SP:FB PPU: 67
D6EE  A9 7F     LDA A:80 X:33 Y:C9 P:A4 SP:FA PPU: 76
D6F0  8D 78 06  STA A:7F X:33 Y:C9 P:24 SP:FA PPU: 82
D6F3  68        PLA A:7F X:33 Y:C9 P:24 SP:FA PPU: 94
D6F4  CD 78 06  CMP A:80 X:33 Y:C9 P:A4 SP:FB PPU:106
D6F7  20 D3 F8  JSR A:80 X:33 Y:C9 P:25 SP:FB PPU:118
F8D3  90 05     BCC A:80 X:33 Y:C9 P:25 SP:F9 PPU:136
F8D5  F0 03     BEQ A:80 X:33 Y:C9 P:25 SP:F9 PPU:142
F8D7  30 01     BMI A:80 X:33 Y:C9 P:25 SP:F9 PPU:148
F8D9  60        RTS A:80 X:33 Y:C9 P:25 SP:F9 PPU:154
D6FA  C8        INY A:80 X:33 Y:C9 P:25 SP:FB PPU:172
D6FB  A9 40     LDA A:80 X:33 Y:CA P:A5 SP:FB PPU:178
D6FD  8D 78 06  STA A:40 X:33 Y:CA P:25 SP:FB PPU:184
D700  20 31 F9  JSR A:40 X:33 Y:CA P:25 SP:FB PPU:196
F931  24 01     BIT A:40 X:33 Y:CA P:25 SP:F9 PPU:214
F933  A9 40     LDA A:40 X:33 Y:CA P:E5 SP:F9 PPU:223
F935  38        SEC A:40 X:33 Y:CA P:65 SP:F9 PPU:229
F936  60        RTS A:40 X:33 Y:CA P:65 SP:F9 PPU:235
D703  ED 78 06  SBC A:40 X:33 Y:CA P:65 SP:FB PPU:253
D706  20 37 F9  JSR A:00 X:33 Y:CA P:27 SP:FB PPU:265
F937  30 0B     BMI A:00 X:33 Y:CA P:27 SP:F9 PPU:283
F939  90 09     BCC A:00 X:33 Y:CA P:27 SP:F9 PPU:289
F93B  D0 07     BNE A:00 X:33 Y:CA P:27 SP:F9 PPU:295
F93D  70 05     BVS A:00 X:33 Y:CA P:27 SP:F9 PPU:301
F93F  C9 00     CMP A:00 X:33 Y:CA P:27 SP:F9 PPU:307
F941  D0 01     BNE A:00 X:33 Y:CA P:27 SP:F9 PPU:313
F943  60        RTS A:00 X:33 Y:CA P:27 SP:F9 PPU:319
D709  C8        INY A:00 X:33 Y:CA P:27 SP:FB PPU:337
D70A  A9 3F     LDA A:00 X:33 Y:CB P:A5 SP:FB PPU:  2
D70C  8D 78 06  STA A:3F X:33 Y:CB P:25 SP:FB PPU:  8
D70F  20 47 F9  JSR A:3F X:33 Y:CB P:25 SP:FB PPU: 20
F947  B8        CLV A:3F X:33 Y:CB P:25 SP:F9 PPU: 38
F948  38        SEC A:3F X:33 Y:CB P:25 SP:F9 PPU: 44
F949  A9 40     LDA A:3F X:33 Y:CB P:25 SP:F9 PPU: 50
F94B  60        RTS A:40 X:33 Y:CB P:25 SP:F9 PPU: 56
D712  ED 78 06  SBC A:40 X:33 Y:CB P:25 SP:FB PPU: 74
D715  20 4C F9  JSR A:01 X:33 Y:CB P:25 SP:FB PPU: 86
F94C  F0 0B     BEQ A:01 X:33 Y:CB P:25 SP:F9 PPU:104
F94E  30 09     BMI A:01 X:33 Y:CB P:25 SP:F9 PPU:110
F950  90 07     BCC A:01 X:33 Y:CB P:25 SP:F9 PPU:116
F952  70 05     BVS A:01 X:33 Y:CB P:25 SP:F9 PPU:122
F954  C9 01     CMP A:01 X:33 Y:CB P:25 SP:F9 PPU:128
F956  D0 01     BNE A:01 X:33 Y:CB P:27 SP:F9 PPU:134
F958  60        RTS A:01 X:33 Y:CB P:27 SP:F9 PPU:140
D718  C8        INY A:01 X:33 Y:CB P:27 SP:FB PPU:158
D719  A9 41     LDA A:01 X:33 Y:CC P:A5 SP:FB PPU:164
D71B  8D 78 06  STA A:41 X:33 Y:CC P:25 SP:FB PPU:170
D71E  20 5C F9  JSR A:41 X:33 Y:CC P:25 SP:FB PPU:182
F95C  A9 40     LDA A:41 X:33 Y:CC P:25 SP:F9 PPU:200
F95E  38        SEC A:40 X:33 Y:CC P:25 SP:F9 PPU:206
F95F  24 01     BIT A:40 X:33 Y:CC P:25 SP:F9 PPU:212
F961  60        RTS A:40 X:33 Y:CC P:E5 SP:F9 PPU:221
D721  ED 78 06  SBC A:40 X:33 Y:CC P:E5 SP:FB PPU:239
D724  20 62 F9  JSR A:FF X:33 Y:CC P:A4 SP:FB PPU:251
F962  B0 0B     BCS A:FF X:33 Y:CC P:A4 SP:F9 PPU:269
F964  F0 09     BEQ A:FF X:33 Y:CC P:A4 SP:F9 PPU:275
F966  10 07     BPL A:FF X:33 Y:CC P:A4 SP:F9 PPU:281
F968  70 05     BVS A:FF X:33 Y:CC P:A4 SP:F9 PPU:287
F96A  C9 FF     CMP A:FF X:33 Y:CC P:A4 SP:F9 PPU:293
F96C  D0 01     BNE A:FF X:33 Y:CC P:27 SP:F9 PPU:299
F96E  60        RTS A:FF X:33 Y:CC P:27 SP:F9 PPU:305
D727  C8        INY A:FF X:33 Y:CC P:27 SP:FB PPU:323
D728  A9 00     LDA A:FF X:33 Y:CD P:A5 SP:FB PPU:329
D72A  8D 78 06  STA A:00 X:33 Y:CD P:27 SP:FB PPU:335
D72D  20 72 F9  JSR A:00 X:33 Y:CD P:27 SP:FB PPU:  6
F972  18        CLC A:00 X:33 Y:CD P:27 SP:F9 PPU: 24
F973  A9 80     LDA A:00 X:33 Y:CD P:26 SP:F9 PPU: 30
F975  60        RTS A:80 X:33 Y:CD P:A4 SP:F9 PPU: 36
D730  ED 78 06  SBC A:80 X:33 Y:CD P:A4 SP:FB PPU: 54
D733  20 76 F9  JSR A:7F X:33 Y:CD P:65 SP:FB PPU: 66
F976  90 05     BCC A:7F X:33 Y:CD P:65 SP:F9 PPU: 84
F978  C9 7F     CMP A:7F X:33 Y:CD P:65 SP:F9 PPU: 90
F97A  D0 01     BNE A:7F X:33 Y:CD P:67 SP:F9 PPU: 96
F97C  60        RTS A:7F X:33 Y:CD P:67 SP:F9 PPU:102
D736  C8        INY A:7F X:33 Y:CD P:67 SP:FB PPU:120
D737  A9 7F     LDA A:7F X:33 Y:CE P:E5 SP:FB PPU:126
D739  8D 78 06  STA A:7F X:33 Y:CE P:65 SP:FB PPU:132
D73C  20 80 F9  JSR A:7F X:33 Y:CE P:65 SP:FB PPU:144
F980  38        SEC A:7F X:33 Y:CE P:65 SP:F9 PPU:162
F981  A9 81     LDA A:7F X:33 Y:CE P:65 SP:F9 PPU:168
F983  60        RTS A:81 X:33 Y:CE P:E5 SP:F9 PPU:174
D73F  ED 78 06  SBC A:81 X:33 Y:CE P:E5 SP:FB PPU:192
D742  20 84 F9  JSR A:02 X:33 Y:CE P:65 SP:FB PPU:204
F984  50 07     BVC A:02 X:33 Y:CE P:65 SP:F9 PPU:222
F986  90 05     BCC A:02 X:33 Y:CE P:65 SP:F9 PPU:228
F988  C9 02     CMP A:02 X:33 Y:CE P:65 SP:F9 PPU:234
F98A  D0 01     BNE A:02 X:33 Y:CE P:67 SP:F9 PPU:240
F98C  60        RTS A:02 X:33 Y:CE P:67 SP:F9 PPU:246
D745  C8        INY A:02 X:33 Y:CE P:67 SP:FB PPU:264
D746  A9 40     LDA A:02 X:33 Y:CF P:E5 SP:FB PPU:270
D748  8D 78 06  STA A:40 X:33 Y:CF P:65 SP:FB PPU:276
D74B  20 89 F8  JSR A:40 X:33 Y:CF P:65 SP:FB PPU:288
F889  24 01     BIT A:40 X:33 Y:CF P:65 SP:F9 PPU:306
F88B  A9 40     LDA A:40 X:33 Y:CF P:E5 SP:F9 PPU:315
F88D  60        RTS A:40 X:33 Y:CF P:65 SP:F9 PPU:321
D74E  AA        TAX A:40 X:33 Y:CF P:65 SP:FB PPU:339
D74F  EC 78 06  CPX A:40 X:40 Y:CF P:65 SP:FB PPU:  4
D752  20 8E F8  JSR A:40 X:40 Y:CF P:67 SP:FB PPU: 16
F88E  30 07     BMI A:40 X:40 Y:CF P:67 SP:F9 PPU: 34
F890  90 05     BCC A:40 X:40 Y:CF P:67 SP:F9 PPU: 40
F892  D0 03     BNE A:40 X:40 Y:CF P:67 SP:F9 PPU: 46
F894  50 01     BVC A:40 X:40 Y:CF P:67 SP:F9 PPU: 52
F896  60        RTS A:40 X:40 Y:CF P:67 SP:F9 PPU: 58
D755  C8        INY A:40 X:40 Y:CF P:67 SP:FB PPU: 76
D756  A9 3F     LDA A:40 X:40 Y:D0 P:E5 SP:FB PPU: 82
D758  8D 78 06  STA A:3F X:40 Y:D0 P:65 SP:FB PPU: 88
D75B  20 9A F8  JSR A:3F X:40 Y:D0 P:65 SP:FB PPU:100
F89A  B8        CLV A:3F X:40 Y:D0 P:65 SP:F9 PPU:118
F89B  60        RTS A:3F X:40 Y:D0 P:25 SP:F9 PPU:124
D75E  EC 78 06  CPX A:3F X:40 Y:D0 P:25 SP:FB PPU:142
D761  20 9C F8  JSR A:3F X:40 Y:D0 P:25 SP:FB PPU:154
F89C  F0 07     BEQ A:3F X:40 Y:D0 P:25 SP:F9 PPU:172
F89E  30 05     BMI A:3F X:40 Y:D0 P:25 SP:F9 PPU:178
F8A0  90 03     BCC A:3F X:40 Y:D0 P:25 SP:F9 PPU:184
F8A2  70 01     BVS A:3F X:40 Y:D0 P:25 SP:F9 PPU:190
F8A4  60        RTS A:3F X:40 Y:D0 P:25 SP:F9 PPU:196
D764  C8        INY A:3F X:40 Y:D0 P:25 SP:FB PPU:214
D765  A9 41     LDA A:3F X:40 Y:D1 P:A5 SP:FB PPU:220
D767  8D 78 06  STA A:41 X:40 Y:D1 P:25 SP:FB PPU:226
D76A  EC 78 06  CPX A:41 X:40 Y:D1 P:25 SP:FB PPU:238
D76D  20 A8 F8  JSR A:41 X:40 Y:D1 P:A4 SP:FB PPU:250
F8A8  F0 05     BEQ A:41 X:40 Y:D1 P:A4 SP:F9 PPU:268
F8AA  10 03     BPL A:41 X:40 Y:D1 P:A4 SP:F9 PPU:274
F8AC  10 01     BPL A:41 X:40 Y:D1 P:A4 SP:F9 PPU:280
F8AE  60        RTS A:41 X:40 Y:D1 P:A4 SP:F9 PPU:286
D770  C8        INY A:41 X:40 Y:D1 P:A4 SP:FB PPU:304
D771  A9 00     LDA A:41 X:40 Y:D2 P:A4 SP:FB PPU:310
D773  8D 78 06  STA A:00 X:40 Y:D2 P:26 SP:FB PPU:316
D776  20 B2 F8  JSR A:00 X:40 Y:D2 P:26 SP:FB PPU:328
F8B2  A9 80     LDA A:00 X:40 Y:D2 P:26 SP:F9 PPU:  5
F8B4  60        RTS A:80 X:40 Y:D2 P:A4 SP:F9 PPU: 11
D779  AA        TAX A:80 X:40 Y:D2 P:A4 SP:FB PPU: 29
D77A  EC 78 06  CPX A:80 X:80 Y:D2 P:A4 SP:FB PPU: 35
D77D  20 B5 F8  JSR A:80 X:80 Y:D2 P:A5 SP:FB PPU: 47
F8B5  F0 05     BEQ A:80 X:80 Y:D2 P:A5 SP:F9 PPU: 65
F8B7  10 03     BPL A:80 X:80 Y:D2 P:A5 SP:F9 PPU: 71
F8B9  90 01     BCC A:80 X:80 Y:D2 P:A5 SP:F9 PPU: 77
F8BB  60        RTS A:80 X:80 Y:D2 P:A5 SP:F9 PPU: 83
D780  C8        INY A:80 X:80 Y:D2 P:A5 SP:FB PPU:101
D781  A9 80     LDA A:80 X:80 Y:D3 P:A5 SP:FB PPU:107
D783  8D 78 06  STA A:80 X:80 Y:D3 P:A5 SP:FB PPU:113
D786  EC 78 06  CPX A:80 X:80 Y:D3 P:A5 SP:FB PPU:125
D789  20 BF F8  JSR A:80 X:80 Y:D3 P:27 SP:FB PPU:137
F8BF  D0 05     BNE A:80 X:80 Y:D3 P:27 SP:F9 PPU:155
F8C1  30 03     BMI A:80 X:80 Y:D3 P:27 SP:F9 PPU:161
F8C3  90 01     BCC A:80 X:80 Y:D3 P:27 SP:F9 PPU:167
F8C5  60        RTS A:80 X:80 Y:D3 P:27 SP:F9 PPU:173
D78C  C8        INY A:80 X:80 Y:D3 P:27 SP:FB PPU:191
D78D  A9 81     LDA A:80 X:80 Y:D4 P:A5 SP:FB PPU:197
D78F  8D 78 06  STA A:81 X:80 Y:D4 P:A5 SP:FB PPU:203
D792  EC 78 06  CPX A:81 X:80 Y:D4 P:A5 SP:FB PPU:215
D795  20 C9 F8  JSR A:81 X:80 Y:D4 P:A4 SP:FB PPU:227
F8C9  B0 05     BCS A:81 X:80 Y:D4 P:A4 SP:F9 PPU:245
F8CB  F0 03     BEQ A:81 X:80 Y:D4 P:A4 SP:F9 PPU:251
F8CD  10 01     BPL A:81 X:80 Y:D4 P:A4 SP:F9 PPU:257
F8CF  60        RTS A:81 X:80 Y:D4 P:A4 SP:F9 PPU:263
D798  C8        INY A:81 X:80 Y:D4 P:A4 SP:FB PPU:281
D799  A9 7F     LDA A:81 X:80 Y:D5 P:A4 SP:FB PPU:287
D79B  8D 78 06  STA A:7F X:80 Y:D5 P:24 SP:FB PPU:293
D79E  EC 78 06  CPX A:7F X:80 Y:D5 P:24 SP:FB PPU:305
D7A1  20 D3 F8  JSR A:7F X:80 Y:D5 P:25 SP:FB PPU:317
F8D3  90 05     BCC A:7F X:80 Y:D5 P:25 SP:F9 PPU:335
F8D5  F0 03     BEQ A:7F X:80 Y:D5 P:25 SP:F9 PPU:  0
F8D7  30 01     BMI A:7F X:80 Y:D5 P:25 SP:F9 PPU:  6
F8D9  60        RTS A:7F X:80 Y:D5 P:25 SP:F9 PPU: 12
D7A4  C8        INY A:7F X:80 Y:D5 P:25 SP:FB PPU: 30
D7A5  98        TYA A:7F X:80 Y:D6 P:A5 SP:FB PPU: 36
D7A6  AA        TAX A:D6 X:80 Y:D6 P:A5 SP:FB PPU: 42
D7A7  A9 40     LDA A:D6 X:D6 Y:D6 P:A5 SP:FB PPU: 48
D7A9  8D 78 06  STA A:40 X:D6 Y:D6 P:25 SP:FB PPU: 54
D7AC  20 DD F8  JSR A:40 X:D6 Y:D6 P:25 SP:FB PPU: 66
F8DD  24 01     BIT A:40 X:D6 Y:D6 P:25 SP:F9 PPU: 84
F8DF  A0 40     LDY A:40 X:D6 Y:D6 P:E5 SP:F9 PPU: 93
F8E1  60        RTS A:40 X:D6 Y:40 P:65 SP:F9 PPU: 99
D7AF  CC 78 06  CPY A:40 X:D6 Y:40 P:65 SP:FB PPU:117
D7B2  20 E2 F8  JSR A:40 X:D6 Y:40 P:67 SP:FB PPU:129
F8E2  30 07     BMI A:40 X:D6 Y:40 P:67 SP:F9 PPU:147
F8E4  90 05     BCC A:40 X:D6 Y:40 P:67 SP:F9 PPU:153
F8E6  D0 03     BNE A:40 X:D6 Y:40 P:67 SP:F9 PPU:159
F8E8  50 01     BVC A:40 X:D6 Y:40 P:67 SP:F9 PPU:165
F8EA  60        RTS A:40 X:D6 Y:40 P:67 SP:F9 PPU:171
D7B5  E8        INX A:40 X:D6 Y:40 P:67 SP:FB PPU:189
D7B6  A9 3F     LDA A:40 X:D7 Y:40 P:E5 SP:FB PPU:195
D7B8  8D 78 06  STA A:3F X:D7 Y:40 P:65 SP:FB PPU:201
D7BB  20 EE F8  JSR A:3F X:D7 Y:40 P:65 SP:FB PPU:213
F8EE  B8        CLV A:3F X:D7 Y:40 P:65 SP:F9 PPU:231
F8EF  60        RTS A:3F X:D7 Y:40 P:25 SP:F9 PPU:237
D7BE  CC 78 06  CPY A:3F X:D7 Y:40 P:25 SP:FB PPU:255
D7C1  20 F0 F8  JSR A:3F X:D7 Y:40 P:25 SP:FB PPU:267
F8F0  F0 07     BEQ A:3F X:D7 Y:40 P:25 SP:F9 PPU:285
F8F2  30 05     BMI A:3F X:D7 Y:40 P:25 SP:F9 PPU:291
F8F4  90 03     BCC A:3F X:D7 Y:40 P:25 SP:F9 PPU:297
F8F6  70 01     BVS A:3F X:D7 Y:40 P:25 SP:F9 PPU:303
F8F8  60        RTS A:3F X:D7 Y:40 P:25 SP:F9 PPU:309
D7C4  E8        INX A:3F X:D7 Y:40 P:25 SP:FB PPU:327
D7C5  A9 41     LDA A:3F X:D8 Y:40 P:A5 SP:FB PPU:333
D7C7  8D 78 06  STA A:41 X:D8 Y:40 P:25 SP:FB PPU:339
D7CA  CC 78 06  CPY A:41 X:D8 Y:40 P:25 SP:FB PPU: 10
D7CD  20 FC F8  JSR A:41 X:D8 Y:40 P:A4 SP:FB PPU: 22
F8FC  F0 05     BEQ A:41 X:D8 Y:40 P:A4 SP:F9 PPU: 40
F8FE  10 03     BPL A:41 X:D8 Y:40 P:A4 SP:F9 PPU: 46
F900  10 01     BPL A:41 X:D8 Y:40 P:A4 SP:F9 PPU: 52
F902  60        RTS A:41 X:D8 Y:40 P:A4 SP:F9 PPU: 58
D7D0  E8        INX A:41 X:D8 Y:40 P:A4 SP:FB PPU: 76
D7D1  A9 00     LDA A:41 X:D9 Y:40 P:A4 SP:FB PPU: 82
D7D3  8D 78 06  STA A:00 X:D9 Y:40 P:26 SP:FB PPU: 88
D7D6  20 06 F9  JSR A:00 X:D9 Y:40 P:26 SP:FB PPU:100
F906  A0 80     LDY A:00 X:D9 Y:40 P:26 SP:F9 PPU:118
F908  60        RTS A:00 X:D9 Y:80 P:A4 SP:F9 PPU:124
D7D9  CC 78 06  CPY A:00 X:D9 Y:80 P:A4 SP:FB PPU:142
D7DC  20 09 F9  JSR A:00 X:D9 Y:80 P:A5 SP:FB PPU:154
F909  F0 05     BEQ A:00 X:D9 Y:80 P:A5 SP:F9 PPU:172
F90B  10 03     BPL A:00 X:D9 Y:80 P:A5 SP:F9 PPU:178
F90D  90 01     BCC A:00 X:D9 Y:80 P:A5 SP:F9 PPU:184
F90F  60        RTS A:00 X:D9 Y:80 P:A5 SP:F9 PPU:190
D7DF  E8        INX A:00 X:D9 Y:80 P:A5 SP:FB PPU:208
D7E0  A9 80     LDA A:00 X:DA Y:80 P:A5 SP:FB PPU:214
D7E2  8D 78 06  STA A:80 X:DA Y:80 P:A5 SP:FB PPU:220
D7E5  CC 78 06  CPY A:80 X:DA Y:80 P:A5 SP:FB PPU:232
D7E8  20 13 F9  JSR A:80 X:DA Y:80 P:27 SP:FB PPU:244
F913  D0 05     BNE A:80 X:DA Y:80 P:27 SP:F9 PPU:262
F915  30 03     BMI A:80 X:DA Y:80 P:27 SP:F9 PPU:268
F917  90 01     BCC A:80 X:DA Y:80 P:27 SP:F9 PPU:274
F919  60        RTS A:80 X:DA Y:80 P:27 SP:F9 PPU:280
D7EB  E8        INX A:80 X:DA Y:80 P:27 SP:FB PPU:298
D7EC  A9 81     LDA A:80 X:DB Y:80 P:A5 SP:FB PPU:304
D7EE  8D 78 06  STA A:81 X:DB Y:80 P:A5 SP:FB PPU:310
D7F1  CC 78 06  CPY A:81 X:DB Y:80 P:A5 SP:FB PPU:322
D7F4  20 1D F9  JSR A:81 X:DB Y:80 P:A4 SP:FB PPU:334
F91D  B0 05     BCS A:81 X:DB Y:80 P:A4 SP:F9 PPU: 11
F91F  F0 03     BEQ A:81 X:DB Y:80 P:A4 SP:F9 PPU: 17
F921  10 01     BPL A:81 X:DB Y:80 P:A4 SP:F9 PPU: 23
F923  60        RTS A:81 X:DB Y:80 P:A4 SP:F9 PPU: 29
D7F7  E8        INX A:81 X:DB Y:80 P:A4 SP:FB PPU: 47
D7F8  A9 7F     LDA A:81 X:DC Y:80 P:A4 SP:FB PPU: 53
D7FA  8D 78 06  STA A:7F X:DC Y:80 P:24 SP:FB PPU: 59
D7FD  CC 78 06  CPY A:7F X:DC Y:80 P:24 SP:FB PPU: 71
D800  20 27 F9  JSR A:7F X:DC Y:80 P:25 SP:FB PPU: 83
F927  90 05     BCC A:7F X:DC Y:80 P:25 SP:F9 PPU:101
F929  F0 03     BEQ A:7F X:DC Y:80 P:25 SP:F9 PPU:107
F92B  30 01     BMI A:7F X:DC Y:80 P:25 SP:F9 PPU:113
F92D  60        RTS A:7F X:DC Y:80 P:25 SP:F9 PPU:119
D803  E8        INX A:7F X:DC Y:80 P:25 SP:FB PPU:137
D804  8A        TXA A:7F X:DD Y:80 P:A5 SP:FB PPU:143
D805  A8        TAY A:DD X:DD Y:80 P:A5 SP:FB PPU:149
D806  20 90 F9  JSR A:DD X:DD Y:DD P:A5 SP:FB PPU:155
F990  A2 55     LDX A:DD X:DD Y:DD P:A5 SP:F9 PPU:173
F992  A9 FF     LDA A:DD X:55 Y:DD P:25 SP:F9 PPU:179
F994  85 01     STA A:FF X:55 Y:DD P:A5 SP:F9 PPU:185
F996  EA        NOP A:FF X:55 Y:DD P:A5 SP:F9 PPU:194
F997  24 01     BIT A:FF X:55 Y:DD P:A5 SP:F9 PPU:200
F999  38        SEC A:FF X:55 Y:DD P:E5 SP:F9 PPU:209
F99A  A9 01     LDA A:FF X:55 Y:DD P:E5 SP:F9 PPU:215
F99C  60        RTS A:01 X:55 Y:DD P:65 SP:F9 PPU:221
D809  8D 78 06  STA A:01 X:55 Y:DD P:65 SP:FB PPU:239
D80C  4E 78 06  LSR A:01 X:55 Y:DD P:65 SP:FB PPU:251
D80F  AD 78 06  LDA A:01 X:55 Y:DD P:67 SP:FB PPU:269
D812  20 9D F9  JSR A:00 X:55 Y:DD P:67 SP:FB PPU:281
F99D  90 1B     BCC A:00 X:55 Y:DD P:67 SP:F9 PPU:299
F99F  D0 19     BNE A:00 X:55 Y:DD P:67 SP:F9 PPU:305
F9A1  30 17     BMI A:00 X:55 Y:DD P:67 SP:F9 PPU:311
F9A3  50 15     BVC A:00 X:55 Y:DD P:67 SP:F9 PPU:317
F9A5  C9 00     CMP A:00 X:55 Y:DD P:67 SP:F9 PPU:323
F9A7  D0 11     BNE A:00 X:55 Y:DD P:67 SP:F9 PPU:329
F9A9  B8        CLV A:00 X:55 Y:DD P:67 SP:F9 PPU:335
F9AA  A9 AA     LDA A:00 X:55 Y:DD P:27 SP:F9 PPU:  0
F9AC  60        RTS A:AA X:55 Y:DD P:A5 SP:F9 PPU:  6
D815  C8        INY A:AA X:55 Y:DD P:A5 SP:FB PPU: 24
D816  8D 78 06  STA A:AA X:55 Y:DE P:A5 SP:FB PPU: 30
D819  4E 78 06  LSR A:AA X:55 Y:DE P:A5 SP:FB PPU: 42
D81C  AD 78 06  LDA A:AA X:55 Y:DE P:24 SP:FB PPU: 60
D81F  20 AD F9  JSR A:55 X:55 Y:DE P:24 SP:FB PPU: 72
F9AD  B0 0B     BCS A:55 X:55 Y:DE P:24 SP:F9 PPU: 90
F9AF  F0 09     BEQ A:55 X:55 Y:DE P:24 SP:F9 PPU: 96
F9B1  30 07     BMI A:55 X:55 Y:DE P:24 SP:F9 PPU:102
F9B3  70 05     BVS A:55 X:55 Y:DE P:24 SP:F9 PPU:108
F9B5  C9 55     CMP A:55 X:55 Y:DE P:24 SP:F9 PPU:114
F9B7  D0 01     BNE A:55 X:55 Y:DE P:27 SP:F9 PPU:120
F9B9  60        RTS A:55 X:55 Y:DE P:27 SP:F9 PPU:126
D822  C8        INY A:55 X:55 Y:DE P:27 SP:FB PPU:144
D823  20 BD F9  JSR A:55 X:55 Y:DF P:A5 SP:FB PPU:150
F9BD  24 01     BIT A:55 X:55 Y:DF P:A5 SP:F9 PPU:168
F9BF  38        SEC A:55 X:55 Y:DF P:E5 SP:F9 PPU:177
F9C0  A9 80     LDA A:55 X:55 Y:DF P:E5 SP:F9 PPU:183
F9C2  60        RTS A:80 X:55 Y:DF P:E5 SP:F9 PPU:189
D826  8D 78 06  STA A:80 X:55 Y:DF P:E5 SP:FB PPU:207
D829  0E 78 06  ASL A:80 X:55 Y:DF P:E5 SP:FB PPU:219
D82C  AD 78 06  LDA A:80 X:55 Y:DF P:67 SP:FB PPU:237
D82F  20 C3 F9  JSR A:00 X:55 Y:DF P:67 SP:FB PPU:249
F9C3  90 1C     BCC A:00 X:55 Y:DF P:67 SP:F9 PPU:267
F9C5  D0 1A     BNE A:00 X:55 Y:DF P:67 SP:F9 PPU:273
F9C7  30 18     BMI A:00 X:55 Y:DF P:67 SP:F9 PPU:279
F9C9  50 16     BVC A:00 X:55 Y:DF P:67 SP:F9 PPU:285
F9CB  C9 00     CMP A:00 X:55 Y:DF P:67 SP:F9 PPU:291
F9CD  D0 12     BNE A:00 X:55 Y:DF P:67 SP:F9 PPU:297
F9CF  B8        CLV A:00 X:55 Y:DF P:67 SP:F9 PPU:303
F9D0  A9 55     LDA A:00 X:55 Y:DF P:27 SP:F9 PPU:309
F9D2  38        SEC A:55 X:55 Y:DF P:25 SP:F9 PPU:315
F9D3  60        RTS A:55 X:55 Y:DF P:25 SP:F9 PPU:321
D832  C8        INY A:55 X:55 Y:DF P:25 SP:FB PPU:339
D833  8D 78 06  STA A:55 X:55 Y:E0 P:A5 SP:FB PPU:  4
D836  0E 78 06  ASL A:55 X:55 Y:E0 P:A5 SP:FB PPU: 16
D839  AD 78 06  LDA A:55 X:55 Y:E0 P:A4 SP:FB PPU: 34
D83C  20 D4 F9  JSR A:AA X:55 Y:E0 P:A4 SP:FB PPU: 46
F9D4  B0 0B     BCS A:AA X:55 Y:E0 P:A4 SP:F9 PPU: 64
F9D6  F0 09     BEQ A:AA X:55 Y:E0 P:A4 SP:F9 PPU: 70
F9D8  10 07     BPL A:AA X:55 Y:E0 P:A4 SP:F9 PPU: 76
F9DA  70 05     BVS A:AA X:55 Y:E0 P:A4 SP:F9 PPU: 82
F9DC  C9 AA     CMP A:AA X:55 Y:E0 P:A4 SP:F9 PPU: 88
F9DE  D0 01     BNE A:AA X:55 Y:E0 P:27 SP:F9 PPU: 94
F9E0  60        RTS A:AA X:55 Y:E0 P:27 SP:F9 PPU:100
D83F  C8        INY A:AA X:55 Y:E0 P:27 SP:FB PPU:118
D840  20 E4 F9  JSR A:AA X:55 Y:E1 P:A5 SP:FB PPU:124
F9E4  24 01     BIT A:AA X:55 Y:E1 P:A5 SP:F9 PPU:142
F9E6  38        SEC A:AA X:55 Y:E1 P:E5 SP:F9 PPU:151
F9E7  A9 01     LDA A:AA X:55 Y:E1 P:E5 SP:F9 PPU:157
F9E9  60        RTS A:01 X:55 Y:E1 P:65 SP:F9 PPU:163
D843  8D 78 06  STA A:01 X:55 Y:E1 P:65 SP:FB PPU:181
D846  6E 78 06  ROR A:01 X:55 Y:E1 P:65 SP:FB PPU:193
D849  AD 78 06  LDA A:01 X:55 Y:E1 P:E5 SP:FB PPU:211
D84C  20 EA F9  JSR A:80 X:55 Y:E1 P:E5 SP:FB PPU:223
F9EA  90 1C     BCC A:80 X:55 Y:E1 P:E5 SP:F9 PPU:241
F9EC  F0 1A     BEQ A:80 X:55 Y:E1 P:E5 SP:F9 PPU:247
F9EE  10 18     BPL A:80 X:55 Y:E1 P:E5 SP:F9 PPU:253
F9F0  50 16     BVC A:80 X:55 Y:E1 P:E5 SP:F9 PPU:259
F9F2  C9 80     CMP A:80 X:55 Y:E1 P:E5 SP:F9 PPU:265
F9F4  D0 12     BNE A:80 X:55 Y:E1 P:67 SP:F9 PPU:271
F9F6  B8        CLV A:80 X:55 Y:E1 P:67 SP:F9 PPU:277
F9F7  18        CLC A:80 X:55 Y:E1 P:27 SP:F9 PPU:283
F9F8  A9 55     LDA A:80 X:55 Y:E1 P:26 SP:F9 PPU:289
F9FA  60        RTS A:55 X:55 Y:E1 P:24 SP:F9 PPU:295
D84F  C8        INY A:55 X:55 Y:E1 P:24 SP:FB PPU:313
D850  8D 78 06  STA A:55 X:55 Y:E2 P:A4 SP:FB PPU:319
D853  6E 78 06  ROR A:55 X:55 Y:E2 P:A4 SP:FB PPU:331
D856  AD 78 06  LDA A:55 X:55 Y:E2 P:25 SP:FB PPU:  8
D859  20 FB F9  JSR A:2A X:55 Y:E2 P:25 SP:FB PPU: 20
F9FB  90 0B     BCC A:2A X:55 Y:E2 P:25 SP:F9 PPU: 38
F9FD  F0 09     BEQ A:2A X:55 Y:E2 P:25 SP:F9 PPU: 44
F9FF  30 07     BMI A:2A X:55 Y:E2 P:25 SP:F9 PPU: 50
FA01  70 05     BVS A:2A X:55 Y:E2 P:25 SP:F9 PPU: 56
FA03  C9 2A     CMP A:2A X:55 Y:E2 P:25 SP:F9 PPU: 62
FA05  D0 01     BNE A:2A X:55 Y:E2 P:27 SP:F9 PPU: 68
FA07  60        RTS A:2A X:55 Y:E2 P:27 SP:F9 PPU: 74
D85C  C8        INY A:2A X:55 Y:E2 P:27 SP:FB PPU: 92
D85D  20 0A FA  JSR A:2A X:55 Y:E3 P:A5 SP:FB PPU: 98
FA0A  24 01     BIT A:2A X:55 Y:E3 P:A5 SP:F9 PPU:116
FA0C  38        SEC A:2A X:55 Y:E3 P:E5 SP:F9 PPU:125
FA0D  A9 80     LDA A:2A X:55 Y:E3 P:E5 SP:F9 PPU:131
FA0F  60        RTS A:80 X:55 Y:E3 P:E5 SP:F9 PPU:137
D860  8D 78 06  STA A:80 X:55 Y:E3 P:E5 SP:FB PPU:155
D863  2E 78 06  ROL A:80 X:55 Y:E3 P:E5 SP:FB PPU:167
D866  AD 78 06  LDA A:80 X:55 Y:E3 P:65 SP:FB PPU:185
D869  20 10 FA  JSR A:01 X:55 Y:E3 P:65 SP:FB PPU:197
FA10  90 1C     BCC A:01 X:55 Y:E3 P:65 SP:F9 PPU:215
FA12  F0 1A     BEQ A:01 X:55 Y:E3 P:65 SP:F9 PPU:221
FA14  30 18     BMI A:01 X:55 Y:E3 P:65 SP:F9 PPU:227
FA16  50 16     BVC A:01 X:55 Y:E3 P:65 SP:F9 PPU:233
FA18  C9 01     CMP A:01 X:55 Y:E3 P:65 SP:F9 PPU:239
FA1A  D0 12     BNE A:01 X:55 Y:E3 P:67 SP:F9 PPU:245
FA1C  B8        CLV A:01 X:55 Y:E3 P:67 SP:F9 PPU:251
FA1D  18        CLC A:01 X:55 Y:E3 P:27 SP:F9 PPU:257
FA1E  A9 55     LDA A:01 X:55 Y:E3 P:26 SP:F9 PPU:263
FA20  60        RTS A:55 X:55 Y:E3 P:24 SP:F9 PPU:269
D86C  C8        INY A:55 X:55 Y:E3 P:24 SP:FB PPU:287
D86D  8D 78 06  STA A:55 X:55 Y:E4 P:A4 SP:FB PPU:293
D870  2E 78 06  ROL A:55 X:55 Y:E4 P:A4 SP:FB PPU:305
D873  AD 78 06  LDA A:55 X:55 Y:E4 P:A4 SP:FB PPU:323
D876  20 21 FA  JSR A:AA X:55 Y:E4 P:A4 SP:FB PPU:335
FA21  B0 0B     BCS A:AA X:55 Y:E4 P:A4 SP:F9 PPU: 12
FA23  F0 09     BEQ A:AA X:55 Y:E4 P:A4 SP:F9 PPU: 18
FA25  10 07     BPL A:AA X:55 Y:E4 P:A4 SP:F9 PPU: 24
FA27  70 05     BVS A:AA X:55 Y:E4 P:A4 SP:F9 PPU: 30
FA29  C9 AA     CMP A:AA X:55 Y:E4 P:A4 SP:F9 PPU: 36
FA2B  D0 01     BNE A:AA X:55 Y:E4 P:27 SP:F9 PPU: 42
FA2D  60        RTS A:AA X:55 Y:E4 P:27 SP:F9 PPU: 48
D879  A9 FF     LDA A:AA X:55 Y:E4 P:27 SP:FB PPU: 66
D87B  8D 78 06  STA A:FF X:55 Y:E4 P:A5 SP:FB PPU: 72
D87E  85 01     STA A:FF X:55 Y:E4 P:A5 SP:FB PPU: 84
D880  24 01     BIT A:FF X:55 Y:E4 P:A5 SP:FB PPU: 93
D882  38        SEC A:FF X:55 Y:E4 P:E5 SP:FB PPU:102
D883  EE 78 06  INC A:FF X:55 Y:E4 P:E5 SP:FB PPU:108
D886  D0 0D     BNE A:FF X:55 Y:E4 P:67 SP:FB PPU:126
D888  30 0B     BMI A:FF X:55 Y:E4 P:67 SP:FB PPU:132
D88A  50 09     BVC A:FF X:55 Y:E4 P:67 SP:FB PPU:138
D88C  90 07     BCC A:FF X:55 Y:E4 P:67 SP:FB PPU:144
D88E  AD 78 06  LDA A:FF X:55 Y:E4 P:67 SP:FB PPU:150
D891  C9 00     CMP A:00 X:55 Y:E4 P:67 SP:FB PPU:162
D893  F0 04     BEQ A:00 X:55 Y:E4 P:67 SP:FB PPU:168
D899  A9 7F     LDA A:00 X:55 Y:E4 P:67 SP:FB PPU:177
D89B  8D 78 06  STA A:7F X:55 Y:E4 P:65 SP:FB PPU:183
D89E  B8        CLV A:7F X:55 Y:E4 P:65 SP:FB PPU:195
D89F  18        CLC A:7F X:55 Y:E4 P:25 SP:FB PPU:201
D8A0  EE 78 06  INC A:7F X:55 Y:E4 P:24 SP:FB PPU:207
D8A3  F0 0D     BEQ A:7F X:55 Y:E4 P:A4 SP:FB PPU:225
D8A5  10 0B     BPL A:7F X:55 Y:E4 P:A4 SP:FB PPU:231
D8A7  70 09     BVS A:7F X:55 Y:E4 P:A4 SP:FB PPU:237
D8A9  B0 07     BCS A:7F X:55 Y:E4 P:A4 SP:FB PPU:243
D8AB  AD 78 06  LDA A:7F X:55 Y:E4 P:A4 SP:FB PPU:249
D8AE  C9 80     CMP A:80 X:55 Y:E4 P:A4 SP:FB PPU:261
D8B0  F0 04     BEQ A:80 X:55 Y:E4 P:27 SP:FB PPU:267
D8B6  A9 00     LDA A:80 X:55 Y:E4 P:27 SP:FB PPU:276
D8B8  8D 78 06  STA A:00 X:55 Y:E4 P:27 SP:FB PPU:282
D8BB  24 01     BIT A:00 X:55 Y:E4 P:27 SP:FB PPU:294
D8BD  38        SEC A:00 X:55 Y:E4 P:E7 SP:FB PPU:303
D8BE  CE 78 06  DEC A:00 X:55 Y:E4 P:E7 SP:FB PPU:309
D8C1  F0 0D     BEQ A:00 X:55 Y:E4 P:E5 SP:FB PPU:327
D8C3  10 0B     BPL A:00 X:55 Y:E4 P:E5 SP:FB PPU:333
D8C5  50 09     BVC A:00 X:55 Y:E4 P:E5 SP:FB PPU:339
D8C7  90 07     BCC A:00 X:55 Y:E4 P:E5 SP:FB PPU:  4
D8C9  AD 78 06  LDA A:00 X:55 Y:E4 P:E5 SP:FB PPU: 10
D8CC  C9 FF     CMP A:FF X:55 Y:E4 P:E5 SP:FB PPU: 22
D8CE  F0 04     BEQ A:FF X:55 Y:E4 P:67 SP:FB PPU: 28
D8D4  A9 80     LDA A:FF X:55 Y:E4 P:67 SP:FB PPU: 37
D8D6  8D 78 06  STA A:80 X:55 Y:E4 P:E5 SP:FB PPU: 43
D8D9  B8        CLV A:80 X:55 Y:E4 P:E5 SP:FB PPU: 55
D8DA  18        CLC A:80 X:55 Y:E4 P:A5 SP:FB PPU: 61
D8DB  CE 78 06  DEC A:80 X:55 Y:E4 P:A4 SP:FB PPU: 67
D8DE  F0 0D     BEQ A:80 X:55 Y:E4 P:24 SP:FB PPU: 85
D8E0  30 0B     BMI A:80 X:55 Y:E4 P:24 SP:FB PPU: 91
D8E2  70 09     BVS A:80 X:55 Y:E4 P:24 SP:FB PPU: 97
D8E4  B0 07     BCS A:80 X:55 Y:E4 P:24 SP:FB PPU:103
D8E6  AD 78 06  LDA A:80 X:55 Y:E4 P:24 SP:FB PPU:109
D8E9  C9 7F     CMP A:7F X:55 Y:E4 P:24 SP:FB PPU:121
D8EB  F0 04     BEQ A:7F X:55 Y:E4 P:27 SP:FB PPU:127
D8F1  A9 01     LDA A:7F X:55 Y:E4 P:27 SP:FB PPU:136
D8F3  8D 78 06  STA A:01 X:55 Y:E4 P:25 SP:FB PPU:142
D8F6  CE 78 06  DEC A:01 X:55 Y:E4 P:25 SP:FB PPU:154
D8F9  F0 04     BEQ A:01 X:55 Y:E4 P:27 SP:FB PPU:172
D8FF  60        RTS A:01 X:55 Y:E4 P:27 SP:FB PPU:181
C618  20 00 D9  JSR A:01 X:55 Y:E4 P:27 SP:FD PPU:199
D900  A9 A3     LDA A:01 X:55 Y:E4 P:27 SP:FB PPU:217
D902  85 33     STA A:A3 X:55 Y:E4 P:A5 SP:FB PPU:223
D904  A9 89     LDA A:A3 X:55 Y:E4 P:A5 SP:FB PPU:232
D906  8D 00 03  STA A:89 X:55 Y:E4 P:A5 SP:FB PPU:238
D909  A9 12     LDA A:89 X:55 Y:E4 P:A5 SP:FB PPU:250
D90B  8D 45 02  STA A:12 X:55 Y:E4 P:25 SP:FB PPU:256
D90E  A9 FF     LDA A:12 X:55 Y:E4 P:25 SP:FB PPU:268
D910  85 01     STA A:FF X:55 Y:E4 P:A5 SP:FB PPU:274
D912  A2 65     LDX A:FF X:55 Y:E4 P:A5 SP:FB PPU:283
D914  A9 00     LDA A:FF X:65 Y:E4 P:25 SP:FB PPU:289
D916  85 89     STA A:00 X:65 Y:E4 P:27 SP:FB PPU:295
D918  A9 03     LDA A:00 X:65 Y:E4 P:27 SP:FB PPU:304
D91A  85 8A     STA A:03 X:65 Y:E4 P:25 SP:FB PPU:310
D91C  A0 00     LDY A:03 X:65 Y:E4 P:25 SP:FB PPU:319
D91E  38        SEC A:03 X:65 Y:00 P:27 SP:FB PPU:325
D91F  A9 00     LDA A:03 X:65 Y:00 P:27 SP:FB PPU:331
D921  B8        CLV A:00 X:65 Y:00 P:27 SP:FB PPU:337
D922  B1 89     LDA A:00 X:65 Y:00 P:27 SP:FB PPU:  2
D924  F0 0C     BEQ A:89 X:65 Y:00 P:A5 SP:FB PPU: 17
D926  90 0A     BCC A:89 X:65 Y:00 P:A5 SP:FB PPU: 23
D928  70 08     BVS A:89 X:65 Y:00 P:A5 SP:FB PPU: 29
D92A  C9 89     CMP A:89 X:65 Y:00 P:A5 SP:FB PPU: 35
D92C  D0 04     BNE A:89 X:65 Y:00 P:27 SP:FB PPU: 41
D92E  E0 65     CPX A:89 X:65 Y:00 P:27 SP:FB PPU: 47
D930  F0 04     BEQ A:89 X:65 Y:00 P:27 SP:FB PPU: 53
D936  A9 FF     LDA A:89 X:65 Y:00 P:27 SP:FB PPU: 62
D938  85 97     STA A:FF X:65 Y:00 P:A5 SP:FB PPU: 68
D93A  85 98     STA A:FF X:65 Y:00 P:A5 SP:FB PPU: 77
D93C  24 98     BIT A:FF X:65 Y:00 P:A5 SP:FB PPU: 86
D93E  A0 34     LDY A:FF X:65 Y:00 P:E5 SP:FB PPU: 95
D940  B1 97     LDA A:FF X:65 Y:34 P:65 SP:FB PPU:101
D942  C9 A3     CMP A:A3 X:65 Y:34 P:E5 SP:FB PPU:119
D944  D0 02     BNE A:A3 X:65 Y:34 P:67 SP:FB PPU:125
D946  B0 04     BCS A:A3 X:65 Y:34 P:67 SP:FB PPU:131
D94C  A5 00     LDA A:A3 X:65 Y:34 P:67 SP:FB PPU:140
D94E  48        PHA A:00 X:65 Y:34 P:67 SP:FB PPU:149
D94F  A9 46     LDA A:00 X:65 Y:34 P:67 SP:FA PPU:158
D951  85 FF     STA A:46 X:65 Y:34 P:65 SP:FA PPU:164
D953  A9 01     LDA A:46 X:65 Y:34 P:65 SP:FA PPU:173
D955  85 00     STA A:01 X:65 Y:34 P:65 SP:FA PPU:179
D957  A0 FF     LDY A:01 X:65 Y:34 P:65 SP:FA PPU:188
D959  B1 FF     LDA A:01 X:65 Y:FF P:E5 SP:FA PPU:194
D95B  C9 12     CMP A:12 X:65 Y:FF P:65 SP:FA PPU:212
D95D  F0 04     BEQ A:12 X:65 Y:FF P:67 SP:FA PPU:218
D963  68        PLA A:12 X:65 Y:FF P:67 SP:FA PPU:227
D964  85 00     STA A:00 X:65 Y:FF P:67 SP:FB PPU:239
D966  A2 ED     LDX A:00 X:65 Y:FF P:67 SP:FB PPU:248
D968  A9 00     LDA A:00 X:ED Y:FF P:E5 SP:FB PPU:254
D96A  85 33     STA A:00 X:ED Y:FF P:67 SP:FB PPU:260
D96C  A9 04     LDA A:00 X:ED Y:FF P:67 SP:FB PPU:269
D96E  85 34     STA A:04 X:ED Y:FF P:65 SP:FB PPU:275
D970  A0 00     LDY A:04 X:ED Y:FF P:65 SP:FB PPU:284
D972  18        CLC A:04 X:ED Y:00 P:67 SP:FB PPU:290
D973  A9 FF     LDA A:04 X:ED Y:00 P:66 SP:FB PPU:296
D975  85 01     STA A:FF X:ED Y:00 P:E4 SP:FB PPU:302
D977  24 01     BIT A:FF X:ED Y:00 P:E4 SP:FB PPU:311
D979  A9 AA     LDA A:FF X:ED Y:00 P:E4 SP:FB PPU:320
D97B  8D 00 04  STA A:AA X:ED Y:00 P:E4 SP:FB PPU:326
D97E  A9 55     LDA A:AA X:ED Y:00 P:E4 SP:FB PPU:338
D980  11 33     ORA A:55 X:ED Y:00 P:64 SP:FB PPU:  3
D982  B0 08     BCS A:FF X:ED Y:00 P:E4 SP:FB PPU: 18
D984  10 06     BPL A:FF X:ED Y:00 P:E4 SP:FB PPU: 24
D986  C9 FF     CMP A:FF X:ED Y:00 P:E4 SP:FB PPU: 30
D988  D0 02     BNE A:FF X:ED Y:00 P:67 SP:FB PPU: 36
D98A  70 02     BVS A:FF X:ED Y:00 P:67 SP:FB PPU: 42
D98E  E8        INX A:FF X:ED Y:00 P:67 SP:FB PPU: 51
D98F  38        SEC A:FF X:EE Y:00 P:E5 SP:FB PPU: 57
D990  B8        CLV A:FF X:EE Y:00 P:E5 SP:FB PPU: 63
D991  A9 00     LDA A:FF X:EE Y:00 P:A5 SP:FB PPU: 69
D993  11 33     ORA A:00 X:EE Y:00 P:27 SP:FB PPU: 75
D995  F0 06     BEQ A:AA X:EE Y:00 P:A5 SP:FB PPU: 90
D997  70 04     BVS A:AA X:EE Y:00 P:A5 SP:FB PPU: 96
D999  90 02     BCC A:AA X:EE Y:00 P:A5 SP:FB PPU:102
D99B  30 02     BMI A:AA X:EE Y:00 P:A5 SP:FB PPU:108
D99F  E8        INX A:AA X:EE Y:00 P:A5 SP:FB PPU:117
D9A0  18        CLC A:AA X:EF Y:00 P:A5 SP:FB PPU:123
D9A1  24 01     BIT A:AA X:EF Y:00 P:A4 SP:FB PPU:129
D9A3  A9 55     LDA A:AA X:EF Y:00 P:E4 SP:FB PPU:138
D9A5  31 33     AND A:55 X:EF Y:00 P:64 SP:FB PPU:144
D9A7  D0 06     BNE A:00 X:EF Y:00 P:66 SP:FB PPU:159
D9A9  50 04     BVC A:00 X:EF Y:00 P:66 SP:FB PPU:165
D9AB  B0 02     BCS A:00 X:EF Y:00 P:66 SP:FB PPU:171
D9AD  10 02     BPL A:00 X:EF Y:00 P:66 SP:FB PPU:177
D9B1  E8        INX A:00 X:EF Y:00 P:66 SP:FB PPU:186
D9B2  38        SEC A:00 X:F0 Y:00 P:E4 SP:FB PPU:192
D9B3  B8        CLV A:00 X:F0 Y:00 P:E5 SP:FB PPU:198
D9B4  A9 EF     LDA A:00 X:F0 Y:00 P:A5 SP:FB PPU:204
D9B6  8D 00 04  STA A:EF X:F0 Y:00 P:A5 SP:FB PPU:210
D9B9  A9 F8     LDA A:EF X:F0 Y:00 P:A5 SP:FB PPU:222
D9BB  31 33     AND A:F8 X:F0 Y:00 P:A5 SP:FB PPU:228
D9BD  90 08     BCC A:E8 X:F0 Y:00 P:A5 SP:FB PPU:243
D9BF  10 06     BPL A:E8 X:F0 Y:00 P:A5 SP:FB PPU:249
D9C1  C9 E8     CMP A:E8 X:F0 Y:00 P:A5 SP:FB PPU:255
D9C3  D0 02     BNE A:E8 X:F0 Y:00 P:27 SP:FB PPU:261
D9C5  50 02     BVC A:E8 X:F0 Y:00 P:27 SP:FB PPU:267
D9C9  E8        INX A:E8 X:F0 Y:00 P:27 SP:FB PPU:276
D9CA  18        CLC A:E8 X:F1 Y:00 P:A5 SP:FB PPU:282
D9CB  24 01     BIT A:E8 X:F1 Y:00 P:A4 SP:FB PPU:288
D9CD  A9 AA     LDA A:E8 X:F1 Y:00 P:E4 SP:FB PPU:297
D9CF  8D 00 04  STA A:AA X:F1 Y:00 P:E4 SP:FB PPU:303
D9D2  A9 5F     LDA A:AA X:F1 Y:00 P:E4 SP:FB PPU:315
D9D4  51 33     EOR A:5F X:F1 Y:00 P:64 SP:FB PPU:321
D9D6  B0 08     BCS A:F5 X:F1 Y:00 P:E4 SP:FB PPU:336
D9D8  10 06     BPL A:F5 X:F1 Y:00 P:E4 SP:FB PPU:  1
D9DA  C9 F5     CMP A:F5 X:F1 Y:00 P:E4 SP:FB PPU:  7
D9DC  D0 02     BNE A:F5 X:F1 Y:00 P:67 SP:FB PPU: 13
D9DE  70 02     BVS A:F5 X:F1 Y:00 P:67 SP:FB PPU: 19
D9E2  E8        INX A:F5 X:F1 Y:00 P:67 SP:FB PPU: 28
D9E3  38        SEC A:F5 X:F2 Y:00 P:E5 SP:FB PPU: 34
D9E4  B8        CLV A:F5 X:F2 Y:00 P:E5 SP:FB PPU: 40
D9E5  A9 70     LDA A:F5 X:F2 Y:00 P:A5 SP:FB PPU: 46
D9E7  8D 00 04  STA A:70 X:F2 Y:00 P:25 SP:FB PPU: 52
D9EA  51 33     EOR A:70 X:F2 Y:00 P:25 SP:FB PPU: 64
D9EC  D0 06     BNE A:00 X:F2 Y:00 P:27 SP:FB PPU: 79
D9EE  70 04     BVS A:00 X:F2 Y:00 P:27 SP:FB PPU: 85
D9F0  90 02     BCC A:00 X:F2 Y:00 P:27 SP:FB PPU: 91
D9F2  10 02     BPL A:00 X:F2 Y:00 P:27 SP:FB PPU: 97
D9F6  E8        INX A:00 X:F2 Y:00 P:27 SP:FB PPU:106
D9F7  18        CLC A:00 X:F3 Y:00 P:A5 SP:FB PPU:112
D9F8  24 01     BIT A:00 X:F3 Y:00 P:A4 SP:FB PPU:118
D9FA  A9 69     LDA A:00 X:F3 Y:00 P:E6 SP:FB PPU:127
D9FC  8D 00 04  STA A:69 X:F3 Y:00 P:64 SP:FB PPU:133
D9FF  A9 00     LDA A:69 X:F3 Y:00 P:64 SP:FB PPU:145
DA01  71 33     ADC A:00 X:F3 Y:00 P:66 SP:FB PPU:151
DA03  30 08     BMI A:69 X:F3 Y:00 P:24 SP:FB PPU:166
DA05  B0 06     BCS A:69 X:F3 Y:00 P:24 SP:FB PPU:172
DA07  C9 69     CMP A:69 X:F3 Y:00 P:24 SP:FB PPU:178
DA09  D0 02     BNE A:69 X:F3 Y:00 P:27 SP:FB PPU:184
DA0B  50 02     BVC A:69 X:F3 Y:00 P:27 SP:FB PPU:190
DA0F  E8        INX A:69 X:F3 Y:00 P:27 SP:FB PPU:199
DA10  38        SEC A:69 X:F4 Y:00 P:A5 SP:FB PPU:205
DA11  24 01     BIT A:69 X:F4 Y:00 P:A5 SP:FB PPU:211
DA13  A9 00     LDA A:69 X:F4 Y:00 P:E5 SP:FB PPU:220
DA15  71 33     ADC A:00 X:F4 Y:00 P:67 SP:FB PPU:226
DA17  30 08     BMI A:6A X:F4 Y:00 P:24 SP:FB PPU:241
DA19  B0 06     BCS A:6A X:F4 Y:00 P:24 SP:FB PPU:247
DA1B  C9 6A     CMP A:6A X:F4 Y:00 P:24 SP:FB PPU:253
DA1D  D0 02     BNE A:6A X:F4 Y:00 P:27 SP:FB PPU:259
DA1F  50 02     BVC A:6A X:F4 Y:00 P:27 SP:FB PPU:265
DA23  E8        INX A:6A X:F4 Y:00 P:27 SP:FB PPU:274
DA24  38        SEC A:6A X:F5 Y:00 P:A5 SP:FB PPU:280
DA25  B8        CLV A:6A X:F5 Y:00 P:A5 SP:FB PPU:286
DA26  A9 7F     LDA A:6A X:F5 Y:00 P:A5 SP:FB PPU:292
DA28  8D 00 04  STA A:7F X:F5 Y:00 P:25 SP:FB PPU:298
DA2B  71 33     ADC A:7F X:F5 Y:00 P:25 SP:FB PPU:310
DA2D  10 08     BPL A:FF X:F5 Y:00 P:E4 SP:FB PPU:325
DA2F  B0 06     BCS A:FF X:F5 Y:00 P:E4 SP:FB PPU:331
DA31  C9 FF     CMP A:FF X:F5 Y:00 P:E4 SP:FB PPU:337
DA33  D0 02     BNE A:FF X:F5 Y:00 P:67 SP:FB PPU:  2
DA35  70 02     BVS A:FF X:F5 Y:00 P:67 SP:FB PPU:  8
DA39  E8        INX A:FF X:F5 Y:00 P:67 SP:FB PPU: 17
DA3A  18        CLC A:FF X:F6 Y:00 P:E5 SP:FB PPU: 23
DA3B  24 01     BIT A:FF X:F6 Y:00 P:E4 SP:FB PPU: 29
DA3D  A9 80     LDA A:FF X:F6 Y:00 P:E4 SP:FB PPU: 38
DA3F  8D 00 04  STA A:80 X:F6 Y:00 P:E4 SP:FB PPU: 44
DA42  A9 7F     LDA A:80 X:F6 Y:00 P:E4 SP:FB PPU: 56
DA44  71 33     ADC A:7F X:F6 Y:00 P:64 SP:FB PPU: 62
DA46  10 08     BPL A:FF X:F6 Y:00 P:A4 SP:FB PPU: 77
DA48  B0 06     BCS A:FF X:F6 Y:00 P:A4 SP:FB PPU: 83
DA4A  C9 FF     CMP A:FF X:F6 Y:00 P:A4 SP:FB PPU: 89
DA4C  D0 02     BNE A:FF X:F6 Y:00 P:27 SP:FB PPU: 95
DA4E  50 02     BVC A:FF X:F6 Y:00 P:27 SP:FB PPU:101
DA52  E8        INX A:FF X:F6 Y:00 P:27 SP:FB PPU:110
DA53  38        SEC A:FF X:F7 Y:00 P:A5 SP:FB PPU:116
DA54  B8        CLV A:FF X:F7 Y:00 P:A5 SP:FB PPU:122
DA55  A9 80     LDA A:FF X:F7 Y:00 P:A5 SP:FB PPU:128
DA57  8D 00 04  STA A:80 X:F7 Y:00 P:A5 SP:FB PPU:134
DA5A  A9 7F     LDA A:80 X:F7 Y:00 P:A5 SP:FB PPU:146
DA5C  71 33     ADC A:7F X:F7 Y:00 P:25 SP:FB PPU:152
DA5E  D0 06     BNE A:00 X:F7 Y:00 P:27 SP:FB PPU:167
DA60  30 04     BMI A:00 X:F7 Y:00 P:27 SP:FB PPU:173
DA62  70 02     BVS A:00 X:F7 Y:00 P:27 SP:FB PPU:179
DA64  B0 02     BCS A:00 X:F7 Y:00 P:27 SP:FB PPU:185
DA68  E8        INX A:00 X:F7 Y:00 P:27 SP:FB PPU:194
DA69  24 01     BIT A:00 X:F8 Y:00 P:A5 SP:FB PPU:200
DA6B  A9 40     LDA A:00 X:F8 Y:00 P:E7 SP:FB PPU:209
DA6D  8D 00 04  STA A:40 X:F8 Y:00 P:65 SP:FB PPU:215
DA70  D1 33     CMP A:40 X:F8 Y:00 P:65 SP:FB PPU:227
DA72  30 06     BMI A:40 X:F8 Y:00 P:67 SP:FB PPU:242
DA74  90 04     BCC A:40 X:F8 Y:00 P:67 SP:FB PPU:248
DA76  D0 02     BNE A:40 X:F8 Y:00 P:67 SP:FB PPU:254
DA78  70 02     BVS A:40 X:F8 Y:00 P:67 SP:FB PPU:260
DA7C  E8        INX A:40 X:F8 Y:00 P:67 SP:FB PPU:269
DA7D  B8        CLV A:40 X:F9 Y:00 P:E5 SP:FB PPU:275
DA7E  CE 00 04  DEC A:40 X:F9 Y:00 P:A5 SP:FB PPU:281
DA81  D1 33     CMP A:40 X:F9 Y:00 P:25 SP:FB PPU:299
DA83  F0 06     BEQ A:40 X:F9 Y:00 P:25 SP:FB PPU:314
DA85  30 04     BMI A:40 X:F9 Y:00 P:25 SP:FB PPU:320
DA87  90 02     BCC A:40 X:F9 Y:00 P:25 SP:FB PPU:326
DA89  50 02     BVC A:40 X:F9 Y:00 P:25 SP:FB PPU:332
DA8D  E8        INX A:40 X:F9 Y:00 P:25 SP:FB PPU:  0
DA8E  EE 00 04  INC A:40 X:FA Y:00 P:A5 SP:FB PPU:  6
DA91  EE 00 04  INC A:40 X:FA Y:00 P:25 SP:FB PPU: 24
DA94  D1 33     CMP A:40 X:FA Y:00 P:25 SP:FB PPU: 42
DA96  F0 02     BEQ A:40 X:FA Y:00 P:A4 SP:FB PPU: 57
DA98  30 02     BMI A:40 X:FA Y:00 P:A4 SP:FB PPU: 63
DA9C  E8        INX A:40 X:FA Y:00 P:A4 SP:FB PPU: 72
DA9D  A9 00     LDA A:40 X:FB Y:00 P:A4 SP:FB PPU: 78
DA9F  8D 00 04  STA A:00 X:FB Y:00 P:26 SP:FB PPU: 84
DAA2  A9 80     LDA A:00 X:FB Y:00 P:26 SP:FB PPU: 96
DAA4  D1 33     CMP A:80 X:FB Y:00 P:A4 SP:FB PPU:102
DAA6  F0 04     BEQ A:80 X:FB Y:00 P:A5 SP:FB PPU:117
DAA8  10 02     BPL A:80 X:FB Y:00 P:A5 SP:FB PPU:123
DAAA  B0 02     BCS A:80 X:FB Y:00 P:A5 SP:FB PPU:129
DAAE  E8        INX A:80 X:FB Y:00 P:A5 SP:FB PPU:138
DAAF  A0 80     LDY A:80 X:FC Y:00 P:A5 SP:FB PPU:144
DAB1  8C 00 04  STY A:80 X:FC Y:80 P:A5 SP:FB PPU:150
DAB4  A0 00     LDY A:80 X:FC Y:80 P:A5 SP:FB PPU:162
DAB6  D1 33     CMP A:80 X:FC Y:00 P:27 SP:FB PPU:168
DAB8  D0 04     BNE A:80 X:FC Y:00 P:27 SP:FB PPU:183
DABA  30 02     BMI A:80 X:FC Y:00 P:27 SP:FB PPU:189
DABC  B0 02     BCS A:80 X:FC Y:00 P:27 SP:FB PPU:195
DAC0  E8        INX A:80 X:FC Y:00 P:27 SP:FB PPU:204
DAC1  EE 00 04  INC A:80 X:FD Y:00 P:A5 SP:FB PPU:210
DAC4  D1 33     CMP A:80 X:FD Y:00 P:A5 SP:FB PPU:228
DAC6  B0 04     BCS A:80 X:FD Y:00 P:A4 SP:FB PPU:243
DAC8  F0 02     BEQ A:80 X:FD Y:00 P:A4 SP:FB PPU:249
DACA  30 02     BMI A:80 X:FD Y:00 P:A4 SP:FB PPU:255
DACE  E8        INX A:80 X:FD Y:00 P:A4 SP:FB PPU:264
DACF  CE 00 04  DEC A:80 X:FE Y:00 P:A4 SP:FB PPU:270
DAD2  CE 00 04  DEC A:80 X:FE Y:00 P:A4 SP:FB PPU:288
DAD5  D1 33     CMP A:80 X:FE Y:00 P:24 SP:FB PPU:306
DAD7  90 04     BCC A:80 X:FE Y:00 P:25 SP:FB PPU:321
DAD9  F0 02     BEQ A:80 X:FE Y:00 P:25 SP:FB PPU:327
DADB  10 02     BPL A:80 X:FE Y:00 P:25 SP:FB PPU:333
DADF  60        RTS A:80 X:FE Y:00 P:25 SP:FB PPU:  1
C61B  A5 00     LDA A:80 X:FE Y:00 P:25 SP:FD PPU: 19
C61D  85 10     STA A:00 X:FE Y:00 P:27 SP:FD PPU: 28
C61F  A9 00     LDA A:00 X:FE Y:00 P:27 SP:FD PPU: 37
C621  85 00     STA A:00 X:FE Y:00 P:27 SP:FD PPU: 43
C623  20 E0 DA  JSR A:00 X:FE Y:00 P:27 SP:FD PPU: 52
DAE0  A9 00     LDA A:00 X:FE Y:00 P:27 SP:FB PPU: 70
DAE2  85 33     STA A:00 X:FE Y:00 P:27 SP:FB PPU: 76
DAE4  A9 04     LDA A:00 X:FE Y:00 P:27 SP:FB PPU: 85
DAE6  85 34     STA A:04 X:FE Y:00 P:25 SP:FB PPU: 91
DAE8  A0 00     LDY A:04 X:FE Y:00 P:25 SP:FB PPU:100
DAEA  A2 01     LDX A:04 X:FE Y:00 P:27 SP:FB PPU:106
DAEC  24 01     BIT A:04 X:01 Y:00 P:25 SP:FB PPU:112
DAEE  A9 40     LDA A:04 X:01 Y:00 P:E5 SP:FB PPU:121
DAF0  8D 00 04  STA A:40 X:01 Y:00 P:65 SP:FB PPU:127
DAF3  38        SEC A:40 X:01 Y:00 P:65 SP:FB PPU:139
DAF4  F1 33     SBC A:40 X:01 Y:00 P:65 SP:FB PPU:145
DAF6  30 0A     BMI A:00 X:01 Y:00 P:27 SP:FB PPU:160
DAF8  90 08     BCC A:00 X:01 Y:00 P:27 SP:FB PPU:166
DAFA  D0 06     BNE A:00 X:01 Y:00 P:27 SP:FB PPU:172
DAFC  70 04     BVS A:00 X:01 Y:00 P:27 SP:FB PPU:178
DAFE  C9 00     CMP A:00 X:01 Y:00 P:27 SP:FB PPU:184
DB00  F0 02     BEQ A:00 X:01 Y:00 P:27 SP:FB PPU:190
DB04  E8        INX A:00 X:01 Y:00 P:27 SP:FB PPU:199
DB05  B8        CLV A:00 X:02 Y:00 P:25 SP:FB PPU:205
DB06  38        SEC A:00 X:02 Y:00 P:25 SP:FB PPU:211
DB07  A9 40     LDA A:00 X:02 Y:00 P:25 SP:FB PPU:217
DB09  CE 00 04  DEC A:40 X:02 Y:00 P:25 SP:FB PPU:223
DB0C  F1 33     SBC A:40 X:02 Y:00 P:25 SP:FB PPU:241
DB0E  F0 0A     BEQ A:01 X:02 Y:00 P:25 SP:FB PPU:256
DB10  30 08     BMI A:01 X:02 Y:00 P:25 SP:FB PPU:262
DB12  90 06     BCC A:01 X:02 Y:00 P:25 SP:FB PPU:268
DB14  70 04     BVS A:01 X:02 Y:00 P:25 SP:FB PPU:274
DB16  C9 01     CMP A:01 X:02 Y:00 P:25 SP:FB PPU:280
DB18  F0 02     BEQ A:01 X:02 Y:00 P:27 SP:FB PPU:286
DB1C  E8        INX A:01 X:02 Y:00 P:27 SP:FB PPU:295
DB1D  A9 40     LDA A:01 X:03 Y:00 P:25 SP:FB PPU:301
DB1F  38        SEC A:40 X:03 Y:00 P:25 SP:FB PPU:307
DB20  24 01     BIT A:40 X:03 Y:00 P:25 SP:FB PPU:313
DB22  EE 00 04  INC A:40 X:03 Y:00 P:E5 SP:FB PPU:322
DB25  EE 00 04  INC A:40 X:03 Y:00 P:65 SP:FB PPU:340
DB28  F1 33     SBC A:40 X:03 Y:00 P:65 SP:FB PPU: 17
DB2A  B0 0A     BCS A:FF X:03 Y:00 P:A4 SP:FB PPU: 32
DB2C  F0 08     BEQ A:FF X:03 Y:00 P:A4 SP:FB PPU: 38
DB2E  10 06     BPL A:FF X:03 Y:00 P:A4 SP:FB PPU: 44
DB30  70 04     BVS A:FF X:03 Y:00 P:A4 SP:FB PPU: 50
DB32  C9 FF     CMP A:FF X:03 Y:00 P:A4 SP:FB PPU: 56
DB34  F0 02     BEQ A:FF X:03 Y:00 P:27 SP:FB PPU: 62
DB38  E8        INX A:FF X:03 Y:00 P:27 SP:FB PPU: 71
DB39  18        CLC A:FF X:04 Y:00 P:25 SP:FB PPU: 77
DB3A  A9 00     LDA A:FF X:04 Y:00 P:24 SP:FB PPU: 83
DB3C  8D 00 04  STA A:00 X:04 Y:00 P:26 SP:FB PPU: 89
DB3F  A9 80     LDA A:00 X:04 Y:00 P:26 SP:FB PPU:101
DB41  F1 33     SBC A:80 X:04 Y:00 P:A4 SP:FB PPU:107
DB43  90 04     BCC A:7F X:04 Y:00 P:65 SP:FB PPU:122
DB45  C9 7F     CMP A:7F X:04 Y:00 P:65 SP:FB PPU:128
DB47  F0 02     BEQ A:7F X:04 Y:00 P:67 SP:FB PPU:134
DB4B  E8        INX A:7F X:04 Y:00 P:67 SP:FB PPU:143
DB4C  38        SEC A:7F X:05 Y:00 P:65 SP:FB PPU:149
DB4D  A9 7F     LDA A:7F X:05 Y:00 P:65 SP:FB PPU:155
DB4F  8D 00 04  STA A:7F X:05 Y:00 P:65 SP:FB PPU:161
DB52  A9 81     LDA A:7F X:05 Y:00 P:65 SP:FB PPU:173
DB54  F1 33     SBC A:81 X:05 Y:00 P:E5 SP:FB PPU:179
DB56  50 06     BVC A:02 X:05 Y:00 P:65 SP:FB PPU:194
DB58  90 04     BCC A:02 X:05 Y:00 P:65 SP:FB PPU:200
DB5A  C9 02     CMP A:02 X:05 Y:00 P:65 SP:FB PPU:206
DB5C  F0 02     BEQ A:02 X:05 Y:00 P:67 SP:FB PPU:212
DB60  E8        INX A:02 X:05 Y:00 P:67 SP:FB PPU:221
DB61  A9 00     LDA A:02 X:06 Y:00 P:65 SP:FB PPU:227
DB63  A9 87     LDA A:00 X:06 Y:00 P:67 SP:FB PPU:233
DB65  91 33     STA A:87 X:06 Y:00 P:E5 SP:FB PPU:239
DB67  AD 00 04  LDA A:87 X:06 Y:00 P:E5 SP:FB PPU:257
DB6A  C9 87     CMP A:87 X:06 Y:00 P:E5 SP:FB PPU:269
DB6C  F0 02     BEQ A:87 X:06 Y:00 P:67 SP:FB PPU:275
DB70  E8        INX A:87 X:06 Y:00 P:67 SP:FB PPU:284
DB71  A9 7E     LDA A:87 X:07 Y:00 P:65 SP:FB PPU:290
DB73  8D 00 02  STA A:7E X:07 Y:00 P:65 SP:FB PPU:296
DB76  A9 DB     LDA A:7E X:07 Y:00 P:65 SP:FB PPU:308
DB78  8D 01 02  STA A:DB X:07 Y:00 P:E5 SP:FB PPU:314
DB7B  6C 00 02  JMP A:DB X:07 Y:00 P:E5 SP:FB PPU:326
DB7E  A9 00     LDA A:DB X:07 Y:00 P:E5 SP:FB PPU:  0
DB80  8D FF 02  STA A:00 X:07 Y:00 P:67 SP:FB PPU:  6
DB83  A9 01     LDA A:00 X:07 Y:00 P:67 SP:FB PPU: 18
DB85  8D 00 03  STA A:01 X:07 Y:00 P:65 SP:FB PPU: 24
DB88  A9 03     LDA A:01 X:07 Y:00 P:65 SP:FB PPU: 36
DB8A  8D 00 02  STA A:03 X:07 Y:00 P:65 SP:FB PPU: 42
DB8D  A9 A9     LDA A:03 X:07 Y:00 P:65 SP:FB PPU: 54
DB8F  8D 00 01  STA A:A9 X:07 Y:00 P:E5 SP:FB PPU: 60
DB92  A9 55     LDA A:A9 X:07 Y:00 P:E5 SP:FB PPU: 72
DB94  8D 01 01  STA A:55 X:07 Y:00 P:65 SP:FB PPU: 78
DB97  A9 60     LDA A:55 X:07 Y:00 P:65 SP:FB PPU: 90
DB99  8D 02 01  STA A:60 X:07 Y:00 P:65 SP:FB PPU: 96
DB9C  A9 A9     LDA A:60 X:07 Y:00 P:65 SP:FB PPU:108
DB9E  8D 00 03  STA A:A9 X:07 Y:00 P:E5 SP:FB PPU:114
DBA1  A9 AA     LDA A:A9 X:07 Y:00 P:E5 SP:FB PPU:126
DBA3  8D 01 03  STA A:AA X:07 Y:00 P:E5 SP:FB PPU:132
DBA6  A9 60     LDA A:AA X:07 Y:00 P:E5 SP:FB PPU:144
DBA8  8D 02 03  STA A:60 X:07 Y:00 P:65 SP:FB PPU:150
DBAB  20 B5 DB  JSR A:60 X:07 Y:00 P:65 SP:FB PPU:162
DBB5  6C FF 02  JMP A:60 X:07 Y:00 P:65 SP:F9 PPU:180
0300  A9 AA     LDA A:60 X:07 Y:00 P:65 SP:F9 PPU:195
0302  60        RTS A:AA X:07 Y:00 P:E5 SP:F9 PPU:201
DBAE  C9 AA     CMP A:AA X:07 Y:00 P:E5 SP:FB PPU:219
DBB0  F0 02     BEQ A:AA X:07 Y:00 P:67 SP:FB PPU:225
DBB4  60        RTS A:AA X:07 Y:00 P:67 SP:FB PPU:234
C626  20 4A DF  JSR A:AA X:07 Y:00 P:67 SP:FD PPU:252
DF4A  A9 89     LDA A:AA X:07 Y:00 P:67 SP:FB PPU:270
DF4C  8D 00 03  STA A:89 X:07 Y:00 P:E5 SP:FB PPU:276
DF4F  A9 A3     LDA A:89 X:07 Y:00 P:E5 SP:FB PPU:288
DF51  85 33     STA A:A3 X:07 Y:00 P:E5 SP:FB PPU:294
DF53  A9 12     LDA A:A3 X:07 Y:00 P:E5 SP:FB PPU:303
DF55  8D 45 02  STA A:12 X:07 Y:00 P:65 SP:FB PPU:309
DF58  A2 65     LDX A:12 X:07 Y:00 P:65 SP:FB PPU:321
DF5A  A0 00     LDY A:12 X:65 Y:00 P:65 SP:FB PPU:327
DF5C  38        SEC A:12 X:65 Y:00 P:67 SP:FB PPU:333
DF5D  A9 00     LDA A:12 X:65 Y:00 P:67 SP:FB PPU:339
DF5F  B8        CLV A:00 X:65 Y:00 P:67 SP:FB PPU:  4
DF60  B9 00 03  LDA A:00 X:65 Y:00 P:27 SP:FB PPU: 10
DF63  F0 0C     BEQ A:89 X:65 Y:00 P:A5 SP:FB PPU: 22
DF65  90 0A     BCC A:89 X:65 Y:00 P:A5 SP:FB PPU: 28
DF67  70 08     BVS A:89 X:65 Y:00 P:A5 SP:FB PPU: 34
DF69  C9 89     CMP A:89 X:65 Y:00 P:A5 SP:FB PPU: 40
DF6B  D0 04     BNE A:89 X:65 Y:00 P:27 SP:FB PPU: 46
DF6D  E0 65     CPX A:89 X:65 Y:00 P:27 SP:FB PPU: 52
DF6F  F0 04     BEQ A:89 X:65 Y:00 P:27 SP:FB PPU: 58
DF75  A9 FF     LDA A:89 X:65 Y:00 P:27 SP:FB PPU: 67
DF77  85 01     STA A:FF X:65 Y:00 P:A5 SP:FB PPU: 73
DF79  24 01     BIT A:FF X:65 Y:00 P:A5 SP:FB PPU: 82
DF7B  A0 34     LDY A:FF X:65 Y:00 P:E5 SP:FB PPU: 91
DF7D  B9 FF FF  LDA A:FF X:65 Y:34 P:65 SP:FB PPU: 97
DF80  C9 A3     CMP A:A3 X:65 Y:34 P:E5 SP:FB PPU:112
DF82  D0 02     BNE A:A3 X:65 Y:34 P:67 SP:FB PPU:118
DF84  B0 04     BCS A:A3 X:65 Y:34 P:67 SP:FB PPU:124
DF8A  A9 46     LDA A:A3 X:65 Y:34 P:67 SP:FB PPU:133
DF8C  85 FF     STA A:46 X:65 Y:34 P:65 SP:FB PPU:139
DF8E  A0 FF     LDY A:46 X:65 Y:34 P:65 SP:FB PPU:148
DF90  B9 46 01  LDA A:46 X:65 Y:FF P:E5 SP:FB PPU:154
DF93  C9 12     CMP A:12 X:65 Y:FF P:65 SP:FB PPU:169
DF95  F0 04     BEQ A:12 X:65 Y:FF P:67 SP:FB PPU:175
DF9B  A2 39     LDX A:12 X:65 Y:FF P:67 SP:FB PPU:184
DF9D  18        CLC A:12 X:39 Y:FF P:65 SP:FB PPU:190
DF9E  A9 FF     LDA A:12 X:39 Y:FF P:64 SP:FB PPU:196
DFA0  85 01     STA A:FF X:39 Y:FF P:E4 SP:FB PPU:202
DFA2  24 01     BIT A:FF X:39 Y:FF P:E4 SP:FB PPU:211
DFA4  A9 AA     LDA A:FF X:39 Y:FF P:E4 SP:FB PPU:220
DFA6  8D 00 04  STA A:AA X:39 Y:FF P:E4 SP:FB PPU:226
DFA9  A9 55     LDA A:AA X:39 Y:FF P:E4 SP:FB PPU:238
DFAB  A0 00     LDY A:55 X:39 Y:FF P:64 SP:FB PPU:244
DFAD  19 00 04  ORA A:55 X:39 Y:00 P:66 SP:FB PPU:250
DFB0  B0 08     BCS A:FF X:39 Y:00 P:E4 SP:FB PPU:262
DFB2  10 06     BPL A:FF X:39 Y:00 P:E4 SP:FB PPU:268
DFB4  C9 FF     CMP A:FF X:39 Y:00 P:E4 SP:FB PPU:274
DFB6  D0 02     BNE A:FF X:39 Y:00 P:67 SP:FB PPU:280
DFB8  70 02     BVS A:FF X:39 Y:00 P:67 SP:FB PPU:286
DFBC  E8        INX A:FF X:39 Y:00 P:67 SP:FB PPU:295
DFBD  38        SEC A:FF X:3A Y:00 P:65 SP:FB PPU:301
DFBE  B8        CLV A:FF X:3A Y:00 P:65 SP:FB PPU:307
DFBF  A9 00     LDA A:FF X:3A Y:00 P:25 SP:FB PPU:313
DFC1  19 00 04  ORA A:00 X:3A Y:00 P:27 SP:FB PPU:319
DFC4  F0 06     BEQ A:AA X:3A Y:00 P:A5 SP:FB PPU:331
DFC6  70 04     BVS A:AA X:3A Y:00 P:A5 SP:FB PPU:337
DFC8  90 02     BCC A:AA X:3A Y:00 P:A5 SP:FB PPU:  2
DFCA  30 02     BMI A:AA X:3A Y:00 P:A5 SP:FB PPU:  8
DFCE  E8        INX A:AA X:3A Y:00 P:A5 SP:FB PPU: 17
DFCF  18        CLC A:AA X:3B Y:00 P:25 SP:FB PPU: 23
DFD0  24 01     BIT A:AA X:3B Y:00 P:24 SP:FB PPU: 29
DFD2  A9 55     LDA A:AA X:3B Y:00 P:E4 SP:FB PPU: 38
DFD4  39 00 04  AND A:55 X:3B Y:00 P:64 SP:FB PPU: 44
DFD7  D0 06     BNE A:00 X:3B Y:00 P:66 SP:FB PPU: 56
DFD9  50 04     BVC A:00 X:3B Y:00 P:66 SP:FB PPU: 62
DFDB  B0 02     BCS A:00 X:3B Y:00 P:66 SP:FB PPU: 68
DFDD  10 02     BPL A:00 X:3B Y:00 P:66 SP:FB PPU: 74
DFE1  E8        INX A:00 X:3B Y:00 P:66 SP:FB PPU: 83
DFE2  38        SEC A:00 X:3C Y:00 P:64 SP:FB PPU: 89
DFE3  B8        CLV A:00 X:3C Y:00 P:65 SP:FB PPU: 95
DFE4  A9 EF     LDA A:00 X:3C Y:00 P:25 SP:FB PPU:101
DFE6  8D 00 04  STA A:EF X:3C Y:00 P:A5 SP:FB PPU:107
DFE9  A9 F8     LDA A:EF X:3C Y:00 P:A5 SP:FB PPU:119
DFEB  39 00 04  AND A:F8 X:3C Y:00 P:A5 SP:FB PPU:125
DFEE  90 08     BCC A:E8 X:3C Y:00 P:A5 SP:FB PPU:137
DFF0  10 06     BPL A:E8 X:3C Y:00 P:A5 SP:FB PPU:143
DFF2  C9 E8     CMP A:E8 X:3C Y:00 P:A5 SP:FB PPU:149
DFF4  D0 02     BNE A:E8 X:3C Y:00 P:27 SP:FB PPU:155
DFF6  50 02     BVC A:E8 X:3C Y:00 P:27 SP:FB PPU:161
DFFA  E8        INX A:E8 X:3C Y:00 P:27 SP:FB PPU:170
DFFB  18        CLC A:E8 X:3D Y:00 P:25 SP:FB PPU:176
DFFC  24 01     BIT A:E8 X:3D Y:00 P:24 SP:FB PPU:182
DFFE  A9 AA     LDA A:E8 X:3D Y:00 P:E4 SP:FB PPU:191
E000  8D 00 04  STA A:AA X:3D Y:00 P:E4 SP:FB PPU:197
E003  A9 5F     LDA A:AA X:3D Y:00 P:E4 SP:FB PPU:209
E005  59 00 04  EOR A:5F X:3D Y:00 P:64 SP:FB PPU:215
E008  B0 08     BCS A:F5 X:3D Y:00 P:E4 SP:FB PPU:227
E00A  10 06     BPL A:F5 X:3D Y:00 P:E4 SP:FB PPU:233
E00C  C9 F5     CMP A:F5 X:3D Y:00 P:E4 SP:FB PPU:239
E00E  D0 02     BNE A:F5 X:3D Y:00 P:67 SP:FB PPU:245
E010  70 02     BVS A:F5 X:3D Y:00 P:67 SP:FB PPU:251
E014  E8        INX A:F5 X:3D Y:00 P:67 SP:FB PPU:260
E015  38        SEC A:F5 X:3E Y:00 P:65 SP:FB PPU:266
E016  B8        CLV A:F5 X:3E Y:00 P:65 SP:FB PPU:272
E017  A9 70     LDA A:F5 X:3E Y:00 P:25 SP:FB PPU:278
E019  8D 00 04  STA A:70 X:3E Y:00 P:25 SP:FB PPU:284
E01C  59 00 04  EOR A:70 X:3E Y:00 P:25 SP:FB PPU:296
E01F  D0 06     BNE A:00 X:3E Y:00 P:27 SP:FB PPU:308
E021  70 04     BVS A:00 X:3E Y:00 P:27 SP:FB PPU:314
E023  90 02     BCC A:00 X:3E Y:00 P:27 SP:FB PPU:320
E025  10 02     BPL A:00 X:3E Y:00 P:27 SP:FB PPU:326
E029  E8        INX A:00 X:3E Y:00 P:27 SP:FB PPU:335
E02A  18        CLC A:00 X:3F Y:00 P:25 SP:FB PPU:  0
E02B  24 01     BIT A:00 X:3F Y:00 P:24 SP:FB PPU:  6
E02D  A9 69     LDA A:00 X:3F Y:00 P:E6 SP:FB PPU: 15
E02F  8D 00 04  STA A:69 X:3F Y:00 P:64 SP:FB PPU: 21
E032  A9 00     LDA A:69 X:3F Y:00 P:64 SP:FB PPU: 33
E034  79 00 04  ADC A:00 X:3F Y:00 P:66 SP:FB PPU: 39
E037  30 08     BMI A:69 X:3F Y:00 P:24 SP:FB PPU: 51
E039  B0 06     BCS A:69 X:3F Y:00 P:24 SP:FB PPU: 57
E03B  C9 69     CMP A:69 X:3F Y:00 P:24 SP:FB PPU: 63
E03D  D0 02     BNE A:69 X:3F Y:00 P:27 SP:FB PPU: 69
E03F  50 02     BVC A:69 X:3F Y:00 P:27 SP:FB PPU: 75
E043  E8        INX A:69 X:3F Y:00 P:27 SP:FB PPU: 84
E044  38        SEC A:69 X:40 Y:00 P:25 SP:FB PPU: 90
E045  24 01     BIT A:69 X:40 Y:00 P:25 SP:FB PPU: 96
E047  A9 00     LDA A:69 X:40 Y:00 P:E5 SP:FB PPU:105
E049  79 00 04  ADC A:00 X:40 Y:00 P:67 SP:FB PPU:111
E04C  30 08     BMI A:6A X:40 Y:00 P:24 SP:FB PPU:123
E04E  B0 06     BCS A:6A X:40 Y:00 P:24 SP:FB PPU:129
E050  C9 6A     CMP A:6A X:40 Y:00 P:24 SP:FB PPU:135
E052  D0 02     BNE A:6A X:40 Y:00 P:27 SP:FB PPU:141
E054  50 02     BVC A:6A X:40 Y:00 P:27 SP:FB PPU:147
E058  E8        INX A:6A X:40 Y:00 P:27 SP:FB PPU:156
E059  38        SEC A:6A X:41 Y:00 P:25 SP:FB PPU:162
E05A  B8        CLV A:6A X:41 Y:00 P:25 SP:FB PPU:168
E05B  A9 7F     LDA A:6A X:41 Y:00 P:25 SP:FB PPU:174
E05D  8D 00 04  STA A:7F X:41 Y:00 P:25 SP:FB PPU:180
E060  79 00 04  ADC A:7F X:41 Y:00 P:25 SP:FB PPU:192
E063  10 08     BPL A:FF X:41 Y:00 P:E4 SP:FB PPU:204
E065  B0 06     BCS A:FF X:41 Y:00 P:E4 SP:FB PPU:210
E067  C9 FF     CMP A:FF X:41 Y:00 P:E4 SP:FB PPU:216
E069  D0 02     BNE A:FF X:41 Y:00 P:67 SP:FB PPU:222
E06B  70 02     BVS A:FF X:41 Y:00 P:67 SP:FB PPU:228
E06F  E8        INX A:FF X:41 Y:00 P:67 SP:FB PPU:237
E070  18        CLC A:FF X:42 Y:00 P:65 SP:FB PPU:243
E071  24 01     BIT A:FF X:42 Y:00 P:64 SP:FB PPU:249
E073  A9 80     LDA A:FF X:42 Y:00 P:E4 SP:FB PPU:258
E075  8D 00 04  STA A:80 X:42 Y:00 P:E4 SP:FB PPU:264
E078  A9 7F     LDA A:80 X:42 Y:00 P:E4 SP:FB PPU:276
E07A  79 00 04  ADC A:7F X:42 Y:00 P:64 SP:FB PPU:282
E07D  10 08     BPL A:FF X:42 Y:00 P:A4 SP:FB PPU:294
E07F  B0 06     BCS A:FF X:42 Y:00 P:A4 SP:FB PPU:300
E081  C9 FF     CMP A:FF X:42 Y:00 P:A4 SP:FB PPU:306
E083  D0 02     BNE A:FF X:42 Y:00 P:27 SP:FB PPU:312
E085  50 02     BVC A:FF X:42 Y:00 P:27 SP:FB PPU:318
E089  E8        INX A:FF X:42 Y:00 P:27 SP:FB PPU:327
E08A  38        SEC A:FF X:43 Y:00 P:25 SP:FB PPU:333
E08B  B8        CLV A:FF X:43 Y:00 P:25 SP:FB PPU:339
E08C  A9 80     LDA A:FF X:43 Y:00 P:25 SP:FB PPU:  4
E08E  8D 00 04  STA A:80 X:43 Y:00 P:A5 SP:FB PPU: 10
E091  A9 7F     LDA A:80 X:43 Y:00 P:A5 SP:FB PPU: 22
E093  79 00 04  ADC A:7F X:43 Y:00 P:25 SP:FB PPU: 28
E096  D0 06     BNE A:00 X:43 Y:00 P:27 SP:FB PPU: 40
E098  30 04     BMI A:00 X:43 Y:00 P:27 SP:FB PPU: 46
E09A  70 02     BVS A:00 X:43 Y:00 P:27 SP:FB PPU: 52
E09C  B0 02     BCS A:00 X:43 Y:00 P:27 SP:FB PPU: 58
E0A0  E8        INX A:00 X:43 Y:00 P:27 SP:FB PPU: 67
E0A1  24 01     BIT A:00 X:44 Y:00 P:25 SP:FB PPU: 73
E0A3  A9 40     LDA A:00 X:44 Y:00 P:E7 SP:FB PPU: 82
E0A5  8D 00 04  STA A:40 X:44 Y:00 P:65 SP:FB PPU: 88
E0A8  D9 00 04  CMP A:40 X:44 Y:00 P:65 SP:FB PPU:100
E0AB  30 06     BMI A:40 X:44 Y:00 P:67 SP:FB PPU:112
E0AD  90 04     BCC A:40 X:44 Y:00 P:67 SP:FB PPU:118
E0AF  D0 02     BNE A:40 X:44 Y:00 P:67 SP:FB PPU:124
E0B1  70 02     BVS A:40 X:44 Y:00 P:67 SP:FB PPU:130
E0B5  E8        INX A:40 X:44 Y:00 P:67 SP:FB PPU:139
E0B6  B8        CLV A:40 X:45 Y:00 P:65 SP:FB PPU:145
E0B7  CE 00 04  DEC A:40 X:45 Y:00 P:25 SP:FB PPU:151
E0BA  D9 00 04  CMP A:40 X:45 Y:00 P:25 SP:FB PPU:169
E0BD  F0 06     BEQ A:40 X:45 Y:00 P:25 SP:FB PPU:181
E0BF  30 04     BMI A:40 X:45 Y:00 P:25 SP:FB PPU:187
E0C1  90 02     BCC A:40 X:45 Y:00 P:25 SP:FB PPU:193
E0C3  50 02     BVC A:40 X:45 Y:00 P:25 SP:FB PPU:199
E0C7  E8        INX A:40 X:45 Y:00 P:25 SP:FB PPU:208
E0C8  EE 00 04  INC A:40 X:46 Y:00 P:25 SP:FB PPU:214
E0CB  EE 00 04  INC A:40 X:46 Y:00 P:25 SP:FB PPU:232
E0CE  D9 00 04  CMP A:40 X:46 Y:00 P:25 SP:FB PPU:250
E0D1  F0 02     BEQ A:40 X:46 Y:00 P:A4 SP:FB PPU:262
E0D3  30 02     BMI A:40 X:46 Y:00 P:A4 SP:FB PPU:268
E0D7  E8        INX A:40 X:46 Y:00 P:A4 SP:FB PPU:277
E0D8  A9 00     LDA A:40 X:47 Y:00 P:24 SP:FB PPU:283
E0DA  8D 00 04  STA A:00 X:47 Y:00 P:26 SP:FB PPU:289
E0DD  A9 80     LDA A:00 X:47 Y:00 P:26 SP:FB PPU:301
E0DF  D9 00 04  CMP A:80 X:47 Y:00 P:A4 SP:FB PPU:307
E0E2  F0 04     BEQ A:80 X:47 Y:00 P:A5 SP:FB PPU:319
E0E4  10 02     BPL A:80 X:47 Y:00 P:A5 SP:FB PPU:325
E0E6  B0 02     BCS A:80 X:47 Y:00 P:A5 SP:FB PPU:331
E0EA  E8        INX A:80 X:47 Y:00 P:A5 SP:FB PPU:340
E0EB  A0 80     LDY A:80 X:48 Y:00 P:25 SP:FB PPU:  5
E0ED  8C 00 04  STY A:80 X:48 Y:80 P:A5 SP:FB PPU: 11
E0F0  A0 00     LDY A:80 X:48 Y:80 P:A5 SP:FB PPU: 23
E0F2  D9 00 04  CMP A:80 X:48 Y:00 P:27 SP:FB PPU: 29
E0F5  D0 04     BNE A:80 X:48 Y:00 P:27 SP:FB PPU: 41
E0F7  30 02     BMI A:80 X:48 Y:00 P:27 SP:FB PPU: 47
E0F9  B0 02     BCS A:80 X:48 Y:00 P:27 SP:FB PPU: 53
E0FD  E8        INX A:80 X:48 Y:00 P:27 SP:FB PPU: 62
E0FE  EE 00 04  INC A:80 X:49 Y:00 P:25 SP:FB PPU: 68
E101  D9 00 04  CMP A:80 X:49 Y:00 P:A5 SP:FB PPU: 86
E104  B0 04     BCS A:80 X:49 Y:00 P:A4 SP:FB PPU: 98
E106  F0 02     BEQ A:80 X:49 Y:00 P:A4 SP:FB PPU:104
E108  30 02     BMI A:80 X:49 Y:00 P:A4 SP:FB PPU:110
E10C  E8        INX A:80 X:49 Y:00 P:A4 SP:FB PPU:119
E10D  CE 00 04  DEC A:80 X:4A Y:00 P:24 SP:FB PPU:125
E110  CE 00 04  DEC A:80 X:4A Y:00 P:A4 SP:FB PPU:143
E113  D9 00 04  CMP A:80 X:4A Y:00 P:24 SP:FB PPU:161
E116  90 04     BCC A:80 X:4A Y:00 P:25 SP:FB PPU:173
E118  F0 02     BEQ A:80 X:4A Y:00 P:25 SP:FB PPU:179
E11A  10 02     BPL A:80 X:4A Y:00 P:25 SP:FB PPU:185
E11E  E8        INX A:80 X:4A Y:00 P:25 SP:FB PPU:194
E11F  24 01     BIT A:80 X:4B Y:00 P:25 SP:FB PPU:200
E121  A9 40     LDA A:80 X:4B Y:00 P:E5 SP:FB PPU:209
E123  8D 00 04  STA A:40 X:4B Y:00 P:65 SP:FB PPU:215
E126  38        SEC A:40 X:4B Y:00 P:65 SP:FB PPU:227
E127  F9 00 04  SBC A:40 X:4B Y:00 P:65 SP:FB PPU:233
E12A  30 0A     BMI A:00 X:4B Y:00 P:27 SP:FB PPU:245
E12C  90 08     BCC A:00 X:4B Y:00 P:27 SP:FB PPU:251
E12E  D0 06     BNE A:00 X:4B Y:00 P:27 SP:FB PPU:257
E130  70 04     BVS A:00 X:4B Y:00 P:27 SP:FB PPU:263
E132  C9 00     CMP A:00 X:4B Y:00 P:27 SP:FB PPU:269
E134  F0 02     BEQ A:00 X:4B Y:00 P:27 SP:FB PPU:275
E138  E8        INX A:00 X:4B Y:00 P:27 SP:FB PPU:284
E139  B8        CLV A:00 X:4C Y:00 P:25 SP:FB PPU:290
E13A  38        SEC A:00 X:4C Y:00 P:25 SP:FB PPU:296
E13B  A9 40     LDA A:00 X:4C Y:00 P:25 SP:FB PPU:302
E13D  CE 00 04  DEC A:40 X:4C Y:00 P:25 SP:FB PPU:308
E140  F9 00 04  SBC A:40 X:4C Y:00 P:25 SP:FB PPU:326
E143  F0 0A     BEQ A:01 X:4C Y:00 P:25 SP:FB PPU:338
E145  30 08     BMI A:01 X:4C Y:00 P:25 SP:FB PPU:  3
E147  90 06     BCC A:01 X:4C Y:00 P:25 SP:FB PPU:  9
E149  70 04     BVS A:01 X:4C Y:00 P:25 SP:FB PPU: 15
E14B  C9 01     CMP A:01 X:4C Y:00 P:25 SP:FB PPU: 21
E14D  F0 02     BEQ A:01 X:4C Y:00 P:27 SP:FB PPU: 27
E151  E8        INX A:01 X:4C Y:00 P:27 SP:FB PPU: 36
E152  A9 40     LDA A:01 X:4D Y:00 P:25 SP:FB PPU: 42
E154  38        SEC A:40 X:4D Y:00 P:25 SP:FB PPU: 48
E155  24 01     BIT A:40 X:4D Y:00 P:25 SP:FB PPU: 54
E157  EE 00 04  INC A:40 X:4D Y:00 P:E5 SP:FB PPU: 63
E15A  EE 00 04  INC A:40 X:4D Y:00 P:65 SP:FB PPU: 81
E15D  F9 00 04  SBC A:40 X:4D Y:00 P:65 SP:FB PPU: 99
E160  B0 0A     BCS A:FF X:4D Y:00 P:A4 SP:FB PPU:111
E162  F0 08     BEQ A:FF X:4D Y:00 P:A4 SP:FB PPU:117
E164  10 06     BPL A:FF X:4D Y:00 P:A4 SP:FB PPU:123
E166  70 04     BVS A:FF X:4D Y:00 P:A4 SP:FB PPU:129
E168  C9 FF     CMP A:FF X:4D Y:00 P:A4 SP:FB PPU:135
E16A  F0 02     BEQ A:FF X:4D Y:00 P:27 SP:FB PPU:141
E16E  E8        INX A:FF X:4D Y:00 P:27 SP:FB PPU:150
E16F  18        CLC A:FF X:4E Y:00 P:25 SP:FB PPU:156
E170  A9 00     LDA A:FF X:4E Y:00 P:24 SP:FB PPU:162
E172  8D 00 04  STA A:00 X:4E Y:00 P:26 SP:FB PPU:168
E175  A9 80     LDA A:00 X:4E Y:00 P:26 SP:FB PPU:180
E177  F9 00 04  SBC A:80 X:4E Y:00 P:A4 SP:FB PPU:186
E17A  90 04     BCC A:7F X:4E Y:00 P:65 SP:FB PPU:198
E17C  C9 7F     CMP A:7F X:4E Y:00 P:65 SP:FB PPU:204
E17E  F0 02     BEQ A:7F X:4E Y:00 P:67 SP:FB PPU:210
E182  E8        INX A:7F X:4E Y:00 P:67 SP:FB PPU:219
E183  38        SEC A:7F X:4F Y:00 P:65 SP:FB PPU:225
E184  A9 7F     LDA A:7F X:4F Y:00 P:65 SP:FB PPU:231
E186  8D 00 04  STA A:7F X:4F Y:00 P:65 SP:FB PPU:237
E189  A9 81     LDA A:7F X:4F Y:00 P:65 SP:FB PPU:249
E18B  F9 00 04  SBC A:81 X:4F Y:00 P:E5 SP:FB PPU:255
E18E  50 06     BVC A:02 X:4F Y:00 P:65 SP:FB PPU:267
E190  90 04     BCC A:02 X:4F Y:00 P:65 SP:FB PPU:273
E192  C9 02     CMP A:02 X:4F Y:00 P:65 SP:FB PPU:279
E194  F0 02     BEQ A:02 X:4F Y:00 P:67 SP:FB PPU:285
E198  E8        INX A:02 X:4F Y:00 P:67 SP:FB PPU:294
E199  A9 00     LDA A:02 X:50 Y:00 P:65 SP:FB PPU:300
E19B  A9 87     LDA A:00 X:50 Y:00 P:67 SP:FB PPU:306
E19D  99 00 04  STA A:87 X:50 Y:00 P:E5 SP:FB PPU:312
E1A0  AD 00 04  LDA A:87 X:50 Y:00 P:E5 SP:FB PPU:327
E1A3  C9 87     CMP A:87 X:50 Y:00 P:E5 SP:FB PPU:339
E1A5  F0 02     BEQ A:87 X:50 Y:00 P:67 SP:FB PPU:  4
E1A9  60        RTS A:87 X:50 Y:00 P:67 SP:FB PPU: 13
C629  20 B8 DB  JSR A:87 X:50 Y:00 P:67 SP:FD PPU: 31
DBB8  A9 FF     LDA A:87 X:50 Y:00 P:67 SP:FB PPU: 49
DBBA  85 01     STA A:FF X:50 Y:00 P:E5 SP:FB PPU: 55
DBBC  A9 AA     LDA A:FF X:50 Y:00 P:E5 SP:FB PPU: 64
DBBE  85 33     STA A:AA X:50 Y:00 P:E5 SP:FB PPU: 70
DBC0  A9 BB     LDA A:AA X:50 Y:00 P:E5 SP:FB PPU: 79
DBC2  85 89     STA A:BB X:50 Y:00 P:E5 SP:FB PPU: 85
DBC4  A2 00     LDX A:BB X:50 Y:00 P:E5 SP:FB PPU: 94
DBC6  A9 66     LDA A:BB X:00 Y:00 P:67 SP:FB PPU:100
DBC8  24 01     BIT A:66 X:00 Y:00 P:65 SP:FB PPU:106
DBCA  38        SEC A:66 X:00 Y:00 P:E5 SP:FB PPU:115
DBCB  A0 00     LDY A:66 X:00 Y:00 P:E5 SP:FB PPU:121
DBCD  B4 33     LDY A:66 X:00 Y:00 P:67 SP:FB PPU:127
DBCF  10 12     BPL A:66 X:00 Y:AA P:E5 SP:FB PPU:139
DBD1  F0 10     BEQ A:66 X:00 Y:AA P:E5 SP:FB PPU:145
DBD3  50 0E     BVC A:66 X:00 Y:AA P:E5 SP:FB PPU:151
DBD5  90 0C     BCC A:66 X:00 Y:AA P:E5 SP:FB PPU:157
DBD7  C9 66     CMP A:66 X:00 Y:AA P:E5 SP:FB PPU:163
DBD9  D0 08     BNE A:66 X:00 Y:AA P:67 SP:FB PPU:169
DBDB  E0 00     CPX A:66 X:00 Y:AA P:67 SP:FB PPU:175
DBDD  D0 04     BNE A:66 X:00 Y:AA P:67 SP:FB PPU:181
DBDF  C0 AA     CPY A:66 X:00 Y:AA P:67 SP:FB PPU:187
DBE1  F0 04     BEQ A:66 X:00 Y:AA P:67 SP:FB PPU:193
DBE7  A2 8A     LDX A:66 X:00 Y:AA P:67 SP:FB PPU:202
DBE9  A9 66     LDA A:66 X:8A Y:AA P:E5 SP:FB PPU:208
DBEB  B8        CLV A:66 X:8A Y:AA P:65 SP:FB PPU:214
DBEC  18        CLC A:66 X:8A Y:AA P:25 SP:FB PPU:220
DBED  A0 00     LDY A:66 X:8A Y:AA P:24 SP:FB PPU:226
DBEF  B4 FF     LDY A:66 X:8A Y:00 P:26 SP:FB PPU:232
DBF1  10 12     BPL A:66 X:8A Y:BB P:A4 SP:FB PPU:244
DBF3  F0 10     BEQ A:66 X:8A Y:BB P:A4 SP:FB PPU:250
DBF5  70 0E     BVS A:66 X:8A Y:BB P:A4 SP:FB PPU:256
DBF7  B0 0C     BCS A:66 X:8A Y:BB P:A4 SP:FB PPU:262
DBF9  C0 BB     CPY A:66 X:8A Y:BB P:A4 SP:FB PPU:268
DBFB  D0 08     BNE A:66 X:8A Y:BB P:27 SP:FB PPU:274
DBFD  C9 66     CMP A:66 X:8A Y:BB P:27 SP:FB PPU:280
DBFF  D0 04     BNE A:66 X:8A Y:BB P:27 SP:FB PPU:286
DC01  E0 8A     CPX A:66 X:8A Y:BB P:27 SP:FB PPU:292
DC03  F0 04     BEQ A:66 X:8A Y:BB P:27 SP:FB PPU:298
DC09  24 01     BIT A:66 X:8A Y:BB P:27 SP:FB PPU:307
DC0B  38        SEC A:66 X:8A Y:BB P:E5 SP:FB PPU:316
DC0C  A0 44     LDY A:66 X:8A Y:BB P:E5 SP:FB PPU:322
DC0E  A2 00     LDX A:66 X:8A Y:44 P:65 SP:FB PPU:328
DC10  94 33     STY A:66 X:00 Y:44 P:67 SP:FB PPU:334
DC12  A5 33     LDA A:66 X:00 Y:44 P:67 SP:FB PPU:  5
DC14  90 18     BCC A:44 X:00 Y:44 P:65 SP:FB PPU: 14
DC16  C9 44     CMP A:44 X:00 Y:44 P:65 SP:FB PPU: 20
DC18  D0 14     BNE A:44 X:00 Y:44 P:67 SP:FB PPU: 26
DC1A  50 12     BVC A:44 X:00 Y:44 P:67 SP:FB PPU: 32
DC1C  18        CLC A:44 X:00 Y:44 P:67 SP:FB PPU: 38
DC1D  B8        CLV A:44 X:00 Y:44 P:66 SP:FB PPU: 44
DC1E  A0 99     LDY A:44 X:00 Y:44 P:26 SP:FB PPU: 50
DC20  A2 80     LDX A:44 X:00 Y:99 P:A4 SP:FB PPU: 56
DC22  94 85     STY A:44 X:80 Y:99 P:A4 SP:FB PPU: 62
DC24  A5 05     LDA A:44 X:80 Y:99 P:A4 SP:FB PPU: 74
DC26  B0 06     BCS A:99 X:80 Y:99 P:A4 SP:FB PPU: 83
DC28  C9 99     CMP A:99 X:80 Y:99 P:A4 SP:FB PPU: 89
DC2A  D0 02     BNE A:99 X:80 Y:99 P:27 SP:FB PPU: 95
DC2C  50 04     BVC A:99 X:80 Y:99 P:27 SP:FB PPU:101
DC32  A0 0B     LDY A:99 X:80 Y:99 P:27 SP:FB PPU:110
DC34  A9 AA     LDA A:99 X:80 Y:0B P:25 SP:FB PPU:116
DC36  A2 78     LDX A:AA X:80 Y:0B P:A5 SP:FB PPU:122
DC38  85 78     STA A:AA X:78 Y:0B P:25 SP:FB PPU:128
DC3A  20 B6 F7  JSR A:AA X:78 Y:0B P:25 SP:FB PPU:137
F7B6  18        CLC A:AA X:78 Y:0B P:25 SP:F9 PPU:155
F7B7  A9 FF     LDA A:AA X:78 Y:0B P:24 SP:F9 PPU:161
F7B9  85 01     STA A:FF X:78 Y:0B P:A4 SP:F9 PPU:167
F7BB  24 01     BIT A:FF X:78 Y:0B P:A4 SP:F9 PPU:176
F7BD  A9 55     LDA A:FF X:78 Y:0B P:E4 SP:F9 PPU:185
F7BF  60        RTS A:55 X:78 Y:0B P:64 SP:F9 PPU:191
DC3D  15 00     ORA A:55 X:78 Y:0B P:64 SP:FB PPU:209
DC3F  20 C0 F7  JSR A:FF X:78 Y:0B P:E4 SP:FB PPU:221
F7C0  B0 09     BCS A:FF X:78 Y:0B P:E4 SP:F9 PPU:239
F7C2  10 07     BPL A:FF X:78 Y:0B P:E4 SP:F9 PPU:245
F7C4  C9 FF     CMP A:FF X:78 Y:0B P:E4 SP:F9 PPU:251
F7C6  D0 03     BNE A:FF X:78 Y:0B P:67 SP:F9 PPU:257
F7C8  50 01     BVC A:FF X:78 Y:0B P:67 SP:F9 PPU:263
F7CA  60        RTS A:FF X:78 Y:0B P:67 SP:F9 PPU:269
DC42  C8        INY A:FF X:78 Y:0B P:67 SP:FB PPU:287
DC43  A9 00     LDA A:FF X:78 Y:0C P:65 SP:FB PPU:293
DC45  85 78     STA A:00 X:78 Y:0C P:67 SP:FB PPU:299
DC47  20 CE F7  JSR A:00 X:78 Y:0C P:67 SP:FB PPU:308
F7CE  38        SEC A:00 X:78 Y:0C P:67 SP:F9 PPU:326
F7CF  B8        CLV A:00 X:78 Y:0C P:67 SP:F9 PPU:332
F7D0  A9 00     LDA A:00 X:78 Y:0C P:27 SP:F9 PPU:338
F7D2  60        RTS A:00 X:78 Y:0C P:27 SP:F9 PPU:  3
DC4A  15 00     ORA A:00 X:78 Y:0C P:27 SP:FB PPU: 21
DC4C  20 D3 F7  JSR A:00 X:78 Y:0C P:27 SP:FB PPU: 33
F7D3  D0 07     BNE A:00 X:78 Y:0C P:27 SP:F9 PPU: 51
F7D5  70 05     BVS A:00 X:78 Y:0C P:27 SP:F9 PPU: 57
F7D7  90 03     BCC A:00 X:78 Y:0C P:27 SP:F9 PPU: 63
F7D9  30 01     BMI A:00 X:78 Y:0C P:27 SP:F9 PPU: 69
F7DB  60        RTS A:00 X:78 Y:0C P:27 SP:F9 PPU: 75
DC4F  C8        INY A:00 X:78 Y:0C P:27 SP:FB PPU: 93
DC50  A9 AA     LDA A:00 X:78 Y:0D P:25 SP:FB PPU: 99
DC52  85 78     STA A:AA X:78 Y:0D P:A5 SP:FB PPU:105
DC54  20 DF F7  JSR A:AA X:78 Y:0D P:A5 SP:FB PPU:114
F7DF  18        CLC A:AA X:78 Y:0D P:A5 SP:F9 PPU:132
F7E0  24 01     BIT A:AA X:78 Y:0D P:A4 SP:F9 PPU:138
F7E2  A9 55     LDA A:AA X:78 Y:0D P:E4 SP:F9 PPU:147
F7E4  60        RTS A:55 X:78 Y:0D P:64 SP:F9 PPU:153
DC57  35 00     AND A:55 X:78 Y:0D P:64 SP:FB PPU:171
DC59  20 E5 F7  JSR A:00 X:78 Y:0D P:66 SP:FB PPU:183
F7E5  D0 07     BNE A:00 X:78 Y:0D P:66 SP:F9 PPU:201
F7E7  50 05     BVC A:00 X:78 Y:0D P:66 SP:F9 PPU:207
F7E9  B0 03     BCS A:00 X:78 Y:0D P:66 SP:F9 PPU:213
F7EB  30 01     BMI A:00 X:78 Y:0D P:66 SP:F9 PPU:219
F7ED  60        RTS A:00 X:78 Y:0D P:66 SP:F9 PPU:225
DC5C  C8        INY A:00 X:78 Y:0D P:66 SP:FB PPU:243
DC5D  A9 EF     LDA A:00 X:78 Y:0E P:64 SP:FB PPU:249
DC5F  85 78     STA A:EF X:78 Y:0E P:E4 SP:FB PPU:255
DC61  20 F1 F7  JSR A:EF X:78 Y:0E P:E4 SP:FB PPU:264
F7F1  38        SEC A:EF X:78 Y:0E P:E4 SP:F9 PPU:282
F7F2  B8        CLV A:EF X:78 Y:0E P:E5 SP:F9 PPU:288
F7F3  A9 F8     LDA A:EF X:78 Y:0E P:A5 SP:F9 PPU:294
F7F5  60        RTS A:F8 X:78 Y:0E P:A5 SP:F9 PPU:300
DC64  35 00     AND A:F8 X:78 Y:0E P:A5 SP:FB PPU:318
DC66  20 F6 F7  JSR A:E8 X:78 Y:0E P:A5 SP:FB PPU:330
F7F6  90 09     BCC A:E8 X:78 Y:0E P:A5 SP:F9 PPU:  7
F7F8  10 07     BPL A:E8 X:78 Y:0E P:A5 SP:F9 PPU: 13
F7FA  C9 E8     CMP A:E8 X:78 Y:0E P:A5 SP:F9 PPU: 19
F7FC  D0 03     BNE A:E8 X:78 Y:0E P:27 SP:F9 PPU: 25
F7FE  70 01     BVS A:E8 X:78 Y:0E P:27 SP:F9 PPU: 31
F800  60        RTS A:E8 X:78 Y:0E P:27 SP:F9 PPU: 37
DC69  C8        INY A:E8 X:78 Y:0E P:27 SP:FB PPU: 55
DC6A  A9 AA     LDA A:E8 X:78 Y:0F P:25 SP:FB PPU: 61
DC6C  85 78     STA A:AA X:78 Y:0F P:A5 SP:FB PPU: 67
DC6E  20 04 F8  JSR A:AA X:78 Y:0F P:A5 SP:FB PPU: 76
F804  18        CLC A:AA X:78 Y:0F P:A5 SP:F9 PPU: 94
F805  24 01     BIT A:AA X:78 Y:0F P:A4 SP:F9 PPU:100
F807  A9 5F     LDA A:AA X:78 Y:0F P:E4 SP:F9 PPU:109
F809  60        RTS A:5F X:78 Y:0F P:64 SP:F9 PPU:115
DC71  55 00     EOR A:5F X:78 Y:0F P:64 SP:FB PPU:133
DC73  20 0A F8  JSR A:F5 X:78 Y:0F P:E4 SP:FB PPU:145
F80A  B0 09     BCS A:F5 X:78 Y:0F P:E4 SP:F9 PPU:163
F80C  10 07     BPL A:F5 X:78 Y:0F P:E4 SP:F9 PPU:169
F80E  C9 F5     CMP A:F5 X:78 Y:0F P:E4 SP:F9 PPU:175
F810  D0 03     BNE A:F5 X:78 Y:0F P:67 SP:F9 PPU:181
F812  50 01     BVC A:F5 X:78 Y:0F P:67 SP:F9 PPU:187
F814  60        RTS A:F5 X:78 Y:0F P:67 SP:F9 PPU:193
DC76  C8        INY A:F5 X:78 Y:0F P:67 SP:FB PPU:211
DC77  A9 70     LDA A:F5 X:78 Y:10 P:65 SP:FB PPU:217
DC79  85 78     STA A:70 X:78 Y:10 P:65 SP:FB PPU:223
DC7B  20 18 F8  JSR A:70 X:78 Y:10 P:65 SP:FB PPU:232
F818  38        SEC A:70 X:78 Y:10 P:65 SP:F9 PPU:250
F819  B8        CLV A:70 X:78 Y:10 P:65 SP:F9 PPU:256
F81A  A9 70     LDA A:70 X:78 Y:10 P:25 SP:F9 PPU:262
F81C  60        RTS A:70 X:78 Y:10 P:25 SP:F9 PPU:268
DC7E  55 00     EOR A:70 X:78 Y:10 P:25 SP:FB PPU:286
DC80  20 1D F8  JSR A:00 X:78 Y:10 P:27 SP:FB PPU:298
F81D  D0 07     BNE A:00 X:78 Y:10 P:27 SP:F9 PPU:316
F81F  70 05     BVS A:00 X:78 Y:10 P:27 SP:F9 PPU:322
F821  90 03     BCC A:00 X:78 Y:10 P:27 SP:F9 PPU:328
F823  30 01     BMI A:00 X:78 Y:10 P:27 SP:F9 PPU:334
F825  60        RTS A:00 X:78 Y:10 P:27 SP:F9 PPU:340
DC83  C8        INY A:00 X:78 Y:10 P:27 SP:FB PPU: 17
DC84  A9 69     LDA A:00 X:78 Y:11 P:25 SP:FB PPU: 23
DC86  85 78     STA A:69 X:78 Y:11 P:25 SP:FB PPU: 29
DC88  20 29 F8  JSR A:69 X:78 Y:11 P:25 SP:FB PPU: 38
F829  18        CLC A:69 X:78 Y:11 P:25 SP:F9 PPU: 56
F82A  24 01     BIT A:69 X:78 Y:11 P:24 SP:F9 PPU: 62
F82C  A9 00     LDA A:69 X:78 Y:11 P:E4 SP:F9 PPU: 71
F82E  60        RTS A:00 X:78 Y:11 P:66 SP:F9 PPU: 77
DC8B  75 00     ADC A:00 X:78 Y:11 P:66 SP:FB PPU: 95
DC8D  20 2F F8  JSR A:69 X:78 Y:11 P:24 SP:FB PPU:107
F82F  30 09     BMI A:69 X:78 Y:11 P:24 SP:F9 PPU:125
F831  B0 07     BCS A:69 X:78 Y:11 P:24 SP:F9 PPU:131
F833  C9 69     CMP A:69 X:78 Y:11 P:24 SP:F9 PPU:137
F835  D0 03     BNE A:69 X:78 Y:11 P:27 SP:F9 PPU:143
F837  70 01     BVS A:69 X:78 Y:11 P:27 SP:F9 PPU:149
F839  60        RTS A:69 X:78 Y:11 P:27 SP:F9 PPU:155
DC90  C8        INY A:69 X:78 Y:11 P:27 SP:FB PPU:173
DC91  20 3D F8  JSR A:69 X:78 Y:12 P:25 SP:FB PPU:179
F83D  38        SEC A:69 X:78 Y:12 P:25 SP:F9 PPU:197
F83E  24 01     BIT A:69 X:78 Y:12 P:25 SP:F9 PPU:203
F840  A9 00     LDA A:69 X:78 Y:12 P:E5 SP:F9 PPU:212
F842  60        RTS A:00 X:78 Y:12 P:67 SP:F9 PPU:218
DC94  75 00     ADC A:00 X:78 Y:12 P:67 SP:FB PPU:236
DC96  20 43 F8  JSR A:6A X:78 Y:12 P:24 SP:FB PPU:248
F843  30 09     BMI A:6A X:78 Y:12 P:24 SP:F9 PPU:266
F845  B0 07     BCS A:6A X:78 Y:12 P:24 SP:F9 PPU:272
F847  C9 6A     CMP A:6A X:78 Y:12 P:24 SP:F9 PPU:278
F849  D0 03     BNE A:6A X:78 Y:12 P:27 SP:F9 PPU:284
F84B  70 01     BVS A:6A X:78 Y:12 P:27 SP:F9 PPU:290
F84D  60        RTS A:6A X:78 Y:12 P:27 SP:F9 PPU:296
DC99  C8        INY A:6A X:78 Y:12 P:27 SP:FB PPU:314
DC9A  A9 7F     LDA A:6A X:78 Y:13 P:25 SP:FB PPU:320
DC9C  85 78     STA A:7F X:78 Y:13 P:25 SP:FB PPU:326
DC9E  20 51 F8  JSR A:7F X:78 Y:13 P:25 SP:FB PPU:335
F851  38        SEC A:7F X:78 Y:13 P:25 SP:F9 PPU: 12
F852  B8        CLV A:7F X:78 Y:13 P:25 SP:F9 PPU: 18
F853  A9 7F     LDA A:7F X:78 Y:13 P:25 SP:F9 PPU: 24
F855  60        RTS A:7F X:78 Y:13 P:25 SP:F9 PPU: 30
DCA1  75 00     ADC A:7F X:78 Y:13 P:25 SP:FB PPU: 48
DCA3  20 56 F8  JSR A:FF X:78 Y:13 P:E4 SP:FB PPU: 60
F856  10 09     BPL A:FF X:78 Y:13 P:E4 SP:F9 PPU: 78
F858  B0 07     BCS A:FF X:78 Y:13 P:E4 SP:F9 PPU: 84
F85A  C9 FF     CMP A:FF X:78 Y:13 P:E4 SP:F9 PPU: 90
F85C  D0 03     BNE A:FF X:78 Y:13 P:67 SP:F9 PPU: 96
F85E  50 01     BVC A:FF X:78 Y:13 P:67 SP:F9 PPU:102
F860  60        RTS A:FF X:78 Y:13 P:67 SP:F9 PPU:108
DCA6  C8        INY A:FF X:78 Y:13 P:67 SP:FB PPU:126
DCA7  A9 80     LDA A:FF X:78 Y:14 P:65 SP:FB PPU:132
DCA9  85 78     STA A:80 X:78 Y:14 P:E5 SP:FB PPU:138
DCAB  20 64 F8  JSR A:80 X:78 Y:14 P:E5 SP:FB PPU:147
F864  18        CLC A:80 X:78 Y:14 P:E5 SP:F9 PPU:165
F865  24 01     BIT A:80 X:78 Y:14 P:E4 SP:F9 PPU:171
F867  A9 7F     LDA A:80 X:78 Y:14 P:E4 SP:F9 PPU:180
F869  60        RTS A:7F X:78 Y:14 P:64 SP:F9 PPU:186
DCAE  75 00     ADC A:7F X:78 Y:14 P:64 SP:FB PPU:204
DCB0  20 6A F8  JSR A:FF X:78 Y:14 P:A4 SP:FB PPU:216
F86A  10 09     BPL A:FF X:78 Y:14 P:A4 SP:F9 PPU:234
F86C  B0 07     BCS A:FF X:78 Y:14 P:A4 SP:F9 PPU:240
F86E  C9 FF     CMP A:FF X:78 Y:14 P:A4 SP:F9 PPU:246
F870  D0 03     BNE A:FF X:78 Y:14 P:27 SP:F9 PPU:252
F872  70 01     BVS A:FF X:78 Y:14 P:27 SP:F9 PPU:258
F874  60        RTS A:FF X:78 Y:14 P:27 SP:F9 PPU:264
DCB3  C8        INY A:FF X:78 Y:14 P:27 SP:FB PPU:282
DCB4  20 78 F8  JSR A:FF X:78 Y:15 P:25 SP:FB PPU:288
F878  38        SEC A:FF X:78 Y:15 P:25 SP:F9 PPU:306
F879  B8        CLV A:FF X:78 Y:15 P:25 SP:F9 PPU:312
F87A  A9 7F     LDA A:FF X:78 Y:15 P:25 SP:F9 PPU:318
F87C  60        RTS A:7F X:78 Y:15 P:25 SP:F9 PPU:324
DCB7  75 00     ADC A:7F X:78 Y:15 P:25 SP:FB PPU:  1
DCB9  20 7D F8  JSR A:00 X:78 Y:15 P:27 SP:FB PPU: 13
F87D  D0 07     BNE A:00 X:78 Y:15 P:27 SP:F9 PPU: 31
F87F  30 05     BMI A:00 X:78 Y:15 P:27 SP:F9 PPU: 37
F881  70 03     BVS A:00 X:78 Y:15 P:27 SP:F9 PPU: 43
F883  90 01     BCC A:00 X:78 Y:15 P:27 SP:F9 PPU: 49
F885  60        RTS A:00 X:78 Y:15 P:27 SP:F9 PPU: 55
DCBC  C8        INY A:00 X:78 Y:15 P:27 SP:FB PPU: 73
DCBD  A9 40     LDA A:00 X:78 Y:16 P:25 SP:FB PPU: 79
DCBF  85 78     STA A:40 X:78 Y:16 P:25 SP:FB PPU: 85
DCC1  20 89 F8  JSR A:40 X:78 Y:16 P:25 SP:FB PPU: 94
F889  24 01     BIT A:40 X:78 Y:16 P:25 SP:F9 PPU:112
F88B  A9 40     LDA A:40 X:78 Y:16 P:E5 SP:F9 PPU:121
F88D  60        RTS A:40 X:78 Y:16 P:65 SP:F9 PPU:127
DCC4  D5 00     CMP A:40 X:78 Y:16 P:65 SP:FB PPU:145
DCC6  20 8E F8  JSR A:40 X:78 Y:16 P:67 SP:FB PPU:157
F88E  30 07     BMI A:40 X:78 Y:16 P:67 SP:F9 PPU:175
F890  90 05     BCC A:40 X:78 Y:16 P:67 SP:F9 PPU:181
F892  D0 03     BNE A:40 X:78 Y:16 P:67 SP:F9 PPU:187
F894  50 01     BVC A:40 X:78 Y:16 P:67 SP:F9 PPU:193
F896  60        RTS A:40 X:78 Y:16 P:67 SP:F9 PPU:199
DCC9  C8        INY A:40 X:78 Y:16 P:67 SP:FB PPU:217
DCCA  48        PHA A:40 X:78 Y:17 P:65 SP:FB PPU:223
DCCB  A9 3F     LDA A:40 X:78 Y:17 P:65 SP:FA PPU:232
DCCD  85 78     STA A:3F X:78 Y:17 P:65 SP:FA PPU:238
DCCF  68        PLA A:3F X:78 Y:17 P:65 SP:FA PPU:247
DCD0  20 9A F8  JSR A:40 X:78 Y:17 P:65 SP:FB PPU:259
F89A  B8        CLV A:40 X:78 Y:17 P:65 SP:F9 PPU:277
F89B  60        RTS A:40 X:78 Y:17 P:25 SP:F9 PPU:283
DCD3  D5 00     CMP A:40 X:78 Y:17 P:25 SP:FB PPU:301
DCD5  20 9C F8  JSR A:40 X:78 Y:17 P:25 SP:FB PPU:313
F89C  F0 07     BEQ A:40 X:78 Y:17 P:25 SP:F9 PPU:331
F89E  30 05     BMI A:40 X:78 Y:17 P:25 SP:F9 PPU:337
F8A0  90 03     BCC A:40 X:78 Y:17 P:25 SP:F9 PPU:  2
F8A2  70 01     BVS A:40 X:78 Y:17 P:25 SP:F9 PPU:  8
F8A4  60        RTS A:40 X:78 Y:17 P:25 SP:F9 PPU: 14
DCD8  C8        INY A:40 X:78 Y:17 P:25 SP:FB PPU: 32
DCD9  48        PHA A:40 X:78 Y:18 P:25 SP:FB PPU: 38
DCDA  A9 41     LDA A:40 X:78 Y:18 P:25 SP:FA PPU: 47
DCDC  85 78     STA A:41 X:78 Y:18 P:25 SP:FA PPU: 53
DCDE  68        PLA A:41 X:78 Y:18 P:25 SP:FA PPU: 62
DCDF  D5 00     CMP A:40 X:78 Y:18 P:25 SP:FB PPU: 74
DCE1  20 A8 F8  JSR A:40 X:78 Y:18 P:A4 SP:FB PPU: 86
F8A8  F0 05     BEQ A:40 X:78 Y:18 P:A4 SP:F9 PPU:104
F8AA  10 03     BPL A:40 X:78 Y:18 P:A4 SP:F9 PPU:110
F8AC  10 01     BPL A:40 X:78 Y:18 P:A4 SP:F9 PPU:116
F8AE  60        RTS A:40 X:78 Y:18 P:A4 SP:F9 PPU:122
DCE4  C8        INY A:40 X:78 Y:18 P:A4 SP:FB PPU:140
DCE5  48        PHA A:40 X:78 Y:19 P:24 SP:FB PPU:146
DCE6  A9 00     LDA A:40 X:78 Y:19 P:24 SP:FA PPU:155
DCE8  85 78     STA A:00 X:78 Y:19 P:26 SP:FA PPU:161
DCEA  68        PLA A:00 X:78 Y:19 P:26 SP:FA PPU:170
DCEB  20 B2 F8  JSR A:40 X:78 Y:19 P:24 SP:FB PPU:182
F8B2  A9 80     LDA A:40 X:78 Y:19 P:24 SP:F9 PPU:200
F8B4  60        RTS A:80 X:78 Y:19 P:A4 SP:F9 PPU:206
DCEE  D5 00     CMP A:80 X:78 Y:19 P:A4 SP:FB PPU:224
DCF0  20 B5 F8  JSR A:80 X:78 Y:19 P:A5 SP:FB PPU:236
F8B5  F0 05     BEQ A:80 X:78 Y:19 P:A5 SP:F9 PPU:254
F8B7  10 03     BPL A:80 X:78 Y:19 P:A5 SP:F9 PPU:260
F8B9  90 01     BCC A:80 X:78 Y:19 P:A5 SP:F9 PPU:266
F8BB  60        RTS A:80 X:78 Y:19 P:A5 SP:F9 PPU:272
DCF3  C8        INY A:80 X:78 Y:19 P:A5 SP:FB PPU:290
DCF4  48        PHA A:80 X:78 Y:1A P:25 SP:FB PPU:296
DCF5  A9 80     LDA A:80 X:78 Y:1A P:25 SP:FA PPU:305
DCF7  85 78     STA A:80 X:78 Y:1A P:A5 SP:FA PPU:311
DCF9  68        PLA A:80 X:78 Y:1A P:A5 SP:FA PPU:320
DCFA  D5 00     CMP A:80 X:78 Y:1A P:A5 SP:FB PPU:332
DCFC  20 BF F8  JSR A:80 X:78 Y:1A P:27 SP:FB PPU:  3
F8BF  D0 05     BNE A:80 X:78 Y:1A P:27 SP:F9 PPU: 21
F8C1  30 03     BMI A:80 X:78 Y:1A P:27 SP:F9 PPU: 27
F8C3  90 01     BCC A:80 X:78 Y:1A P:27 SP:F9 PPU: 33
F8C5  60        RTS A:80 X:78 Y:1A P:27 SP:F9 PPU: 39
DCFF  C8        INY A:80 X:78 Y:1A P:27 SP:FB PPU: 57
DD00  48        PHA A:80 X:78 Y:1B P:25 SP:FB PPU: 63
DD01  A9 81     LDA A:80 X:78 Y:1B P:25 SP:FA PPU: 72
DD03  85 78     STA A:81 X:78 Y:1B P:A5 SP:FA PPU: 78
DD05  68        PLA A:81 X:78 Y:1B P:A5 SP:FA PPU: 87
DD06  D5 00     CMP A:80 X:78 Y:1B P:A5 SP:FB PPU: 99
DD08  20 C9 F8  JSR A:80 X:78 Y:1B P:A4 SP:FB PPU:111
F8C9  B0 05     BCS A:80 X:78 Y:1B P:A4 SP:F9 PPU:129
F8CB  F0 03     BEQ A:80 X:78 Y:1B P:A4 SP:F9 PPU:135
F8CD  10 01     BPL A:80 X:78 Y:1B P:A4 SP:F9 PPU:141
F8CF  60        RTS A:80 X:78 Y:1B P:A4 SP:F9 PPU:147
DD0B  C8        INY A:80 X:78 Y:1B P:A4 SP:FB PPU:165
DD0C  48        PHA A:80 X:78 Y:1C P:24 SP:FB PPU:171
DD0D  A9 7F     LDA A:80 X:78 Y:1C P:24 SP:FA PPU:180
DD0F  85 78     STA A:7F X:78 Y:1C P:24 SP:FA PPU:186
DD11  68        PLA A:7F X:78 Y:1C P:24 SP:FA PPU:195
DD12  D5 00     CMP A:80 X:78 Y:1C P:A4 SP:FB PPU:207
DD14  20 D3 F8  JSR A:80 X:78 Y:1C P:25 SP:FB PPU:219
F8D3  90 05     BCC A:80 X:78 Y:1C P:25 SP:F9 PPU:237
F8D5  F0 03     BEQ A:80 X:78 Y:1C P:25 SP:F9 PPU:243
F8D7  30 01     BMI A:80 X:78 Y:1C P:25 SP:F9 PPU:249
F8D9  60        RTS A:80 X:78 Y:1C P:25 SP:F9 PPU:255
DD17  C8        INY A:80 X:78 Y:1C P:25 SP:FB PPU:273
DD18  A9 40     LDA A:80 X:78 Y:1D P:25 SP:FB PPU:279
DD1A  85 78     STA A:40 X:78 Y:1D P:25 SP:FB PPU:285
DD1C  20 31 F9  JSR A:40 X:78 Y:1D P:25 SP:FB PPU:294
F931  24 01     BIT A:40 X:78 Y:1D P:25 SP:F9 PPU:312
F933  A9 40     LDA A:40 X:78 Y:1D P:E5 SP:F9 PPU:321
F935  38        SEC A:40 X:78 Y:1D P:65 SP:F9 PPU:327
F936  60        RTS A:40 X:78 Y:1D P:65 SP:F9 PPU:333
DD1F  F5 00     SBC A:40 X:78 Y:1D P:65 SP:FB PPU: 10
DD21  20 37 F9  JSR A:00 X:78 Y:1D P:27 SP:FB PPU: 22
F937  30 0B     BMI A:00 X:78 Y:1D P:27 SP:F9 PPU: 40
F939  90 09     BCC A:00 X:78 Y:1D P:27 SP:F9 PPU: 46
F93B  D0 07     BNE A:00 X:78 Y:1D P:27 SP:F9 PPU: 52
F93D  70 05     BVS A:00 X:78 Y:1D P:27 SP:F9 PPU: 58
F93F  C9 00     CMP A:00 X:78 Y:1D P:27 SP:F9 PPU: 64
F941  D0 01     BNE A:00 X:78 Y:1D P:27 SP:F9 PPU: 70
F943  60        RTS A:00 X:78 Y:1D P:27 SP:F9 PPU: 76
DD24  C8        INY A:00 X:78 Y:1D P:27 SP:FB PPU: 94
DD25  A9 3F     LDA A:00 X:78 Y:1E P:25 SP:FB PPU:100
DD27  85 78     STA A:3F X:78 Y:1E P:25 SP:FB PPU:106
DD29  20 47 F9  JSR A:3F X:78 Y:1E P:25 SP:FB PPU:115
F947  B8        CLV A:3F X:78 Y:1E P:25 SP:F9 PPU:133
F948  38        SEC A:3F X:78 Y:1E P:25 SP:F9 PPU:139
F949  A9 40     LDA A:3F X:78 Y:1E P:25 SP:F9 PPU:145
F94B  60        RTS A:40 X:78 Y:1E P:25 SP:F9 PPU:151
DD2C  F5 00     SBC A:40 X:78 Y:1E P:25 SP:FB PPU:169
DD2E  20 4C F9  JSR A:01 X:78 Y:1E P:25 SP:FB PPU:181
F94C  F0 0B     BEQ A:01 X:78 Y:1E P:25 SP:F9 PPU:199
F94E  30 09     BMI A:01 X:78 Y:1E P:25 SP:F9 PPU:205
F950  90 07     BCC A:01 X:78 Y:1E P:25 SP:F9 PPU:211
F952  70 05     BVS A:01 X:78 Y:1E P:25 SP:F9 PPU:217
F954  C9 01     CMP A:01 X:78 Y:1E P:25 SP:F9 PPU:223
F956  D0 01     BNE A:01 X:78 Y:1E P:27 SP:F9 PPU:229
F958  60        RTS A:01 X:78 Y:1E P:27 SP:F9 PPU:235
DD31  C8        INY A:01 X:78 Y:1E P:27 SP:FB PPU:253
DD32  A9 41     LDA A:01 X:78 Y:1F P:25 SP:FB PPU:259
DD34  85 78     STA A:41 X:78 Y:1F P:25 SP:FB PPU:265
DD36  20 5C F9  JSR A:41 X:78 Y:1F P:25 SP:FB PPU:274
F95C  A9 40     LDA A:41 X:78 Y:1F P:25 SP:F9 PPU:292
F95E  38        SEC A:40 X:78 Y:1F P:25 SP:F9 PPU:298
F95F  24 01     BIT A:40 X:78 Y:1F P:25 SP:F9 PPU:304
F961  60        RTS A:40 X:78 Y:1F P:E5 SP:F9 PPU:313
DD39  F5 00     SBC A:40 X:78 Y:1F P:E5 SP:FB PPU:331
DD3B  20 62 F9  JSR A:FF X:78 Y:1F P:A4 SP:FB PPU:  2
F962  B0 0B     BCS A:FF X:78 Y:1F P:A4 SP:F9 PPU: 20
F964  F0 09     BEQ A:FF X:78 Y:1F P:A4 SP:F9 PPU: 26
F966  10 07     BPL A:FF X:78 Y:1F P:A4 SP:F9 PPU: 32
F968  70 05     BVS A:FF X:78 Y:1F P:A4 SP:F9 PPU: 38
F96A  C9 FF     CMP A:FF X:78 Y:1F P:A4 SP:F9 PPU: 44
F96C  D0 01     BNE A:FF X:78 Y:1F P:27 SP:F9 PPU: 50
F96E  60        RTS A:FF X:78 Y:1F P:27 SP:F9 PPU: 56
DD3E  C8        INY A:FF X:78 Y:1F P:27 SP:FB PPU: 74
DD3F  A9 00     LDA A:FF X:78 Y:20 P:25 SP:FB PPU: 80
DD41  85 78     STA A:00 X:78 Y:20 P:27 SP:FB PPU: 86
DD43  20 72 F9  JSR A:00 X:78 Y:20 P:27 SP:FB PPU: 95
F972  18        CLC A:00 X:78 Y:20 P:27 SP:F9 PPU:113
F973  A9 80     LDA A:00 X:78 Y:20 P:26 SP:F9 PPU:119
F975  60        RTS A:80 X:78 Y:20 P:A4 SP:F9 PPU:125
DD46  F5 00     SBC A:80 X:78 Y:20 P:A4 SP:FB PPU:143
DD48  20 76 F9  JSR A:7F X:78 Y:20 P:65 SP:FB PPU:155
F976  90 05     BCC A:7F X:78 Y:20 P:65 SP:F9 PPU:173
F978  C9 7F     CMP A:7F X:78 Y:20 P:65 SP:F9 PPU:179
F97A  D0 01     BNE A:7F X:78 Y:20 P:67 SP:F9 PPU:185
F97C  60        RTS A:7F X:78 Y:20 P:67 SP:F9 PPU:191
DD4B  C8        INY A:7F X:78 Y:20 P:67 SP:FB PPU:209
DD4C  A9 7F     LDA A:7F X:78 Y:21 P:65 SP:FB PPU:215
DD4E  85 78     STA A:7F X:78 Y:21 P:65 SP:FB PPU:221
DD50  20 80 F9  JSR A:7F X:78 Y:21 P:65 SP:FB PPU:230
F980  38        SEC A:7F X:78 Y:21 P:65 SP:F9 PPU:248
F981  A9 81     LDA A:7F X:78 Y:21 P:65 SP:F9 PPU:254
F983  60        RTS A:81 X:78 Y:21 P:E5 SP:F9 PPU:260
DD53  F5 00     SBC A:81 X:78 Y:21 P:E5 SP:FB PPU:278
DD55  20 84 F9  JSR A:02 X:78 Y:21 P:65 SP:FB PPU:290
F984  50 07     BVC A:02 X:78 Y:21 P:65 SP:F9 PPU:308
F986  90 05     BCC A:02 X:78 Y:21 P:65 SP:F9 PPU:314
F988  C9 02     CMP A:02 X:78 Y:21 P:65 SP:F9 PPU:320
F98A  D0 01     BNE A:02 X:78 Y:21 P:67 SP:F9 PPU:326
F98C  60        RTS A:02 X:78 Y:21 P:67 SP:F9 PPU:332
DD58  A9 AA     LDA A:02 X:78 Y:21 P:67 SP:FB PPU:  9
DD5A  85 33     STA A:AA X:78 Y:21 P:E5 SP:FB PPU: 15
DD5C  A9 BB     LDA A:AA X:78 Y:21 P:E5 SP:FB PPU: 24
DD5E  85 89     STA A:BB X:78 Y:21 P:E5 SP:FB PPU: 30
DD60  A2 00     LDX A:BB X:78 Y:21 P:E5 SP:FB PPU: 39
DD62  A0 66     LDY A:BB X:00 Y:21 P:67 SP:FB PPU: 45
DD64  24 01     BIT A:BB X:00 Y:66 P:65 SP:FB PPU: 51
DD66  38        SEC A:BB X:00 Y:66 P:E5 SP:FB PPU: 60
DD67  A9 00     LDA A:BB X:00 Y:66 P:E5 SP:FB PPU: 66
DD69  B5 33     LDA A:00 X:00 Y:66 P:67 SP:FB PPU: 72
DD6B  10 12     BPL A:AA X:00 Y:66 P:E5 SP:FB PPU: 84
DD6D  F0 10     BEQ A:AA X:00 Y:66 P:E5 SP:FB PPU: 90
DD6F  50 0E     BVC A:AA X:00 Y:66 P:E5 SP:FB PPU: 96
DD71  90 0C     BCC A:AA X:00 Y:66 P:E5 SP:FB PPU:102
DD73  C0 66     CPY A:AA X:00 Y:66 P:E5 SP:FB PPU:108
DD75  D0 08     BNE A:AA X:00 Y:66 P:67 SP:FB PPU:114
DD77  E0 00     CPX A:AA X:00 Y:66 P:67 SP:FB PPU:120
DD79  D0 04     BNE A:AA X:00 Y:66 P:67 SP:FB PPU:126
DD7B  C9 AA     CMP A:AA X:00 Y:66 P:67 SP:FB PPU:132
DD7D  F0 04     BEQ A:AA X:00 Y:66 P:67 SP:FB PPU:138
DD83  A2 8A     LDX A:AA X:00 Y:66 P:67 SP:FB PPU:147
DD85  A0 66     LDY A:AA X:8A Y:66 P:E5 SP:FB PPU:153
DD87  B8        CLV A:AA X:8A Y:66 P:65 SP:FB PPU:159
DD88  18        CLC A:AA X:8A Y:66 P:25 SP:FB PPU:165
DD89  A9 00     LDA A:AA X:8A Y:66 P:24 SP:FB PPU:171
DD8B  B5 FF     LDA A:00 X:8A Y:66 P:26 SP:FB PPU:177
DD8D  10 12     BPL A:BB X:8A Y:66 P:A4 SP:FB PPU:189
DD8F  F0 10     BEQ A:BB X:8A Y:66 P:A4 SP:FB PPU:195
DD91  70 0E     BVS A:BB X:8A Y:66 P:A4 SP:FB PPU:201
DD93  B0 0C     BCS A:BB X:8A Y:66 P:A4 SP:FB PPU:207
DD95  C9 BB     CMP A:BB X:8A Y:66 P:A4 SP:FB PPU:213
DD97  D0 08     BNE A:BB X:8A Y:66 P:27 SP:FB PPU:219
DD99  C0 66     CPY A:BB X:8A Y:66 P:27 SP:FB PPU:225
DD9B  D0 04     BNE A:BB X:8A Y:66 P:27 SP:FB PPU:231
DD9D  E0 8A     CPX A:BB X:8A Y:66 P:27 SP:FB PPU:237
DD9F  F0 04     BEQ A:BB X:8A Y:66 P:27 SP:FB PPU:243
DDA5  24 01     BIT A:BB X:8A Y:66 P:27 SP:FB PPU:252
DDA7  38        SEC A:BB X:8A Y:66 P:E5 SP:FB PPU:261
DDA8  A9 44     LDA A:BB X:8A Y:66 P:E5 SP:FB PPU:267
DDAA  A2 00     LDX A:44 X:8A Y:66 P:65 SP:FB PPU:273
DDAC  95 33     STA A:44 X:00 Y:66 P:67 SP:FB PPU:279
DDAE  A5 33     LDA A:44 X:00 Y:66 P:67 SP:FB PPU:291
DDB0  90 18     BCC A:44 X:00 Y:66 P:65 SP:FB PPU:300
DDB2  C9 44     CMP A:44 X:00 Y:66 P:65 SP:FB PPU:306
DDB4  D0 14     BNE A:44 X:00 Y:66 P:67 SP:FB PPU:312
DDB6  50 12     BVC A:44 X:00 Y:66 P:67 SP:FB PPU:318
DDB8  18        CLC A:44 X:00 Y:66 P:67 SP:FB PPU:324
DDB9  B8        CLV A:44 X:00 Y:66 P:66 SP:FB PPU:330
DDBA  A9 99     LDA A:44 X:00 Y:66 P:26 SP:FB PPU:336
DDBC  A2 80     LDX A:99 X:00 Y:66 P:A4 SP:FB PPU:  1
DDBE  95 85     STA A:99 X:80 Y:66 P:A4 SP:FB PPU:  7
DDC0  A5 05     LDA A:99 X:80 Y:66 P:A4 SP:FB PPU: 19
DDC2  B0 06     BCS A:99 X:80 Y:66 P:A4 SP:FB PPU: 28
DDC4  C9 99     CMP A:99 X:80 Y:66 P:A4 SP:FB PPU: 34
DDC6  D0 02     BNE A:99 X:80 Y:66 P:27 SP:FB PPU: 40
DDC8  50 04     BVC A:99 X:80 Y:66 P:27 SP:FB PPU: 46
DDCE  A0 25     LDY A:99 X:80 Y:66 P:27 SP:FB PPU: 55
DDD0  A2 78     LDX A:99 X:80 Y:25 P:25 SP:FB PPU: 61
DDD2  20 90 F9  JSR A:99 X:78 Y:25 P:25 SP:FB PPU: 67
F990  A2 55     LDX A:99 X:78 Y:25 P:25 SP:F9 PPU: 85
F992  A9 FF     LDA A:99 X:55 Y:25 P:25 SP:F9 PPU: 91
F994  85 01     STA A:FF X:55 Y:25 P:A5 SP:F9 PPU: 97
F996  EA        NOP A:FF X:55 Y:25 P:A5 SP:F9 PPU:106
F997  24 01     BIT A:FF X:55 Y:25 P:A5 SP:F9 PPU:112
F999  38        SEC A:FF X:55 Y:25 P:E5 SP:F9 PPU:121
F99A  A9 01     LDA A:FF X:55 Y:25 P:E5 SP:F9 PPU:127
F99C  60        RTS A:01 X:55 Y:25 P:65 SP:F9 PPU:133
DDD5  95 00     STA A:01 X:55 Y:25 P:65 SP:FB PPU:151
DDD7  56 00     LSR A:01 X:55 Y:25 P:65 SP:FB PPU:163
DDD9  B5 00     LDA A:01 X:55 Y:25 P:67 SP:FB PPU:181
DDDB  20 9D F9  JSR A:00 X:55 Y:25 P:67 SP:FB PPU:193
F99D  90 1B     BCC A:00 X:55 Y:25 P:67 SP:F9 PPU:211
F99F  D0 19     BNE A:00 X:55 Y:25 P:67 SP:F9 PPU:217
F9A1  30 17     BMI A:00 X:55 Y:25 P:67 SP:F9 PPU:223
F9A3  50 15     BVC A:00 X:55 Y:25 P:67 SP:F9 PPU:229
F9A5  C9 00     CMP A:00 X:55 Y:25 P:67 SP:F9 PPU:235
F9A7  D0 11     BNE A:00 X:55 Y:25 P:67 SP:F9 PPU:241
F9A9  B8        CLV A:00 X:55 Y:25 P:67 SP:F9 PPU:247
F9AA  A9 AA     LDA A:00 X:55 Y:25 P:27 SP:F9 PPU:253
F9AC  60        RTS A:AA X:55 Y:25 P:A5 SP:F9 PPU:259
DDDE  C8        INY A:AA X:55 Y:25 P:A5 SP:FB PPU:277
DDDF  95 00     STA A:AA X:55 Y:26 P:25 SP:FB PPU:283
DDE1  56 00     LSR A:AA X:55 Y:26 P:25 SP:FB PPU:295
DDE3  B5 00     LDA A:AA X:55 Y:26 P:24 SP:FB PPU:313
DDE5  20 AD F9  JSR A:55 X:55 Y:26 P:24 SP:FB PPU:325
F9AD  B0 0B     BCS A:55 X:55 Y:26 P:24 SP:F9 PPU:  2
F9AF  F0 09     BEQ A:55 X:55 Y:26 P:24 SP:F9 PPU:  8
F9B1  30 07     BMI A:55 X:55 Y:26 P:24 SP:F9 PPU: 14
F9B3  70 05     BVS A:55 X:55 Y:26 P:24 SP:F9 PPU: 20
F9B5  C9 55     CMP A:55 X:55 Y:26 P:24 SP:F9 PPU: 26
F9B7  D0 01     BNE A:55 X:55 Y:26 P:27 SP:F9 PPU: 32
F9B9  60        RTS A:55 X:55 Y:26 P:27 SP:F9 PPU: 38
DDE8  C8        INY A:55 X:55 Y:26 P:27 SP:FB PPU: 56
DDE9  20 BD F9  JSR A:55 X:55 Y:27 P:25 SP:FB PPU: 62
F9BD  24 01     BIT A:55 X:55 Y:27 P:25 SP:F9 PPU: 80
F9BF  38        SEC A:55 X:55 Y:27 P:E5 SP:F9 PPU: 89
F9C0  A9 80     LDA A:55 X:55 Y:27 P:E5 SP:F9 PPU: 95
F9C2  60        RTS A:80 X:55 Y:27 P:E5 SP:F9 PPU:101
DDEC  95 00     STA A:80 X:55 Y:27 P:E5 SP:FB PPU:119
DDEE  16 00     ASL A:80 X:55 Y:27 P:E5 SP:FB PPU:131
DDF0  B5 00     LDA A:80 X:55 Y:27 P:67 SP:FB PPU:149
DDF2  20 C3 F9  JSR A:00 X:55 Y:27 P:67 SP:FB PPU:161
F9C3  90 1C     BCC A:00 X:55 Y:27 P:67 SP:F9 PPU:179
F9C5  D0 1A     BNE A:00 X:55 Y:27 P:67 SP:F9 PPU:185
F9C7  30 18     BMI A:00 X:55 Y:27 P:67 SP:F9 PPU:191
F9C9  50 16     BVC A:00 X:55 Y:27 P:67 SP:F9 PPU:197
F9CB  C9 00     CMP A:00 X:55 Y:27 P:67 SP:F9 PPU:203
F9CD  D0 12     BNE A:00 X:55 Y:27 P:67 SP:F9 PPU:209
F9CF  B8        CLV A:00 X:55 Y:27 P:67 SP:F9 PPU:215
F9D0  A9 55     LDA A:00 X:55 Y:27 P:27 SP:F9 PPU:221
F9D2  38        SEC A:55 X:55 Y:27 P:25 SP:F9 PPU:227
F9D3  60        RTS A:55 X:55 Y:27 P:25 SP:F9 PPU:233
DDF5  C8        INY A:55 X:55 Y:27 P:25 SP:FB PPU:251
DDF6  95 00     STA A:55 X:55 Y:28 P:25 SP:FB PPU:257
DDF8  16 00     ASL A:55 X:55 Y:28 P:25 SP:FB PPU:269
DDFA  B5 00     LDA A:55 X:55 Y:28 P:A4 SP:FB PPU:287
DDFC  20 D4 F9  JSR A:AA X:55 Y:28 P:A4 SP:FB PPU:299
F9D4  B0 0B     BCS A:AA X:55 Y:28 P:A4 SP:F9 PPU:317
F9D6  F0 09     BEQ A:AA X:55 Y:28 P:A4 SP:F9 PPU:323
F9D8  10 07     BPL A:AA X:55 Y:28 P:A4 SP:F9 PPU:329
F9DA  70 05     BVS A:AA X:55 Y:28 P:A4 SP:F9 PPU:335
F9DC  C9 AA     CMP A:AA X:55 Y:28 P:A4 SP:F9 PPU:  0
F9DE  D0 01     BNE A:AA X:55 Y:28 P:27 SP:F9 PPU:  6
F9E0  60        RTS A:AA X:55 Y:28 P:27 SP:F9 PPU: 12
DDFF  C8        INY A:AA X:55 Y:28 P:27 SP:FB PPU: 30
DE00  20 E4 F9  JSR A:AA X:55 Y:29 P:25 SP:FB PPU: 36
F9E4  24 01     BIT A:AA X:55 Y:29 P:25 SP:F9 PPU: 54
F9E6  38        SEC A:AA X:55 Y:29 P:E5 SP:F9 PPU: 63
F9E7  A9 01     LDA A:AA X:55 Y:29 P:E5 SP:F9 PPU: 69
F9E9  60        RTS A:01 X:55 Y:29 P:65 SP:F9 PPU: 75
DE03  95 00     STA A:01 X:55 Y:29 P:65 SP:FB PPU: 93
DE05  76 00     ROR A:01 X:55 Y:29 P:65 SP:FB PPU:105
DE07  B5 00     LDA A:01 X:55 Y:29 P:E5 SP:FB PPU:123
DE09  20 EA F9  JSR A:80 X:55 Y:29 P:E5 SP:FB PPU:135
F9EA  90 1C     BCC A:80 X:55 Y:29 P:E5 SP:F9 PPU:153
F9EC  F0 1A     BEQ A:80 X:55 Y:29 P:E5 SP:F9 PPU:159
F9EE  10 18     BPL A:80 X:55 Y:29 P:E5 SP:F9 PPU:165
F9F0  50 16     BVC A:80 X:55 Y:29 P:E5 SP:F9 PPU:171
F9F2  C9 80     CMP A:80 X:55 Y:29 P:E5 SP:F9 PPU:177
F9F4  D0 12     BNE A:80 X:55 Y:29 P:67 SP:F9 PPU:183
F9F6  B8        CLV A:80 X:55 Y:29 P:67 SP:F9 PPU:189
F9F7  18        CLC A:80 X:55 Y:29 P:27 SP:F9 PPU:195
F9F8  A9 55     LDA A:80 X:55 Y:29 P:26 SP:F9 PPU:201
F9FA  60        RTS A:55 X:55 Y:29 P:24 SP:F9 PPU:207
DE0C  C8        INY A:55 X:55 Y:29 P:24 SP:FB PPU:225
DE0D  95 00     STA A:55 X:55 Y:2A P:24 SP:FB PPU:231
DE0F  76 00     ROR A:55 X:55 Y:2A P:24 SP:FB PPU:243
DE11  B5 00     LDA A:55 X:55 Y:2A P:25 SP:FB PPU:261
DE13  20 FB F9  JSR A:2A X:55 Y:2A P:25 SP:FB PPU:273
F9FB  90 0B     BCC A:2A X:55 Y:2A P:25 SP:F9 PPU:291
F9FD  F0 09     BEQ A:2A X:55 Y:2A P:25 SP:F9 PPU:297
F9FF  30 07     BMI A:2A X:55 Y:2A P:25 SP:F9 PPU:303
FA01  70 05     BVS A:2A X:55 Y:2A P:25 SP:F9 PPU:309
FA03  C9 2A     CMP A:2A X:55 Y:2A P:25 SP:F9 PPU:315
FA05  D0 01     BNE A:2A X:55 Y:2A P:27 SP:F9 PPU:321
FA07  60        RTS A:2A X:55 Y:2A P:27 SP:F9 PPU:327
DE16  C8        INY A:2A X:55 Y:2A P:27 SP:FB PPU:  4
DE17  20 0A FA  JSR A:2A X:55 Y:2B P:25 SP:FB PPU: 10
FA0A  24 01     BIT A:2A X:55 Y:2B P:25 SP:F9 PPU: 28
FA0C  38        SEC A:2A X:55 Y:2B P:E5 SP:F9 PPU: 37
FA0D  A9 80     LDA A:2A X:55 Y:2B P:E5 SP:F9 PPU: 43
FA0F  60        RTS A:80 X:55 Y:2B P:E5 SP:F9 PPU: 49
DE1A  95 00     STA A:80 X:55 Y:2B P:E5 SP:FB PPU: 67
DE1C  36 00     ROL A:80 X:55 Y:2B P:E5 SP:FB PPU: 79
DE1E  B5 00     LDA A:80 X:55 Y:2B P:65 SP:FB PPU: 97
DE20  20 10 FA  JSR A:01 X:55 Y:2B P:65 SP:FB PPU:109
FA10  90 1C     BCC A:01 X:55 Y:2B P:65 SP:F9 PPU:127
FA12  F0 1A     BEQ A:01 X:55 Y:2B P:65 SP:F9 PPU:133
FA14  30 18     BMI A:01 X:55 Y:2B P:65 SP:F9 PPU:139
FA16  50 16     BVC A:01 X:55 Y:2B P:65 SP:F9 PPU:145
FA18  C9 01     CMP A:01 X:55 Y:2B P:65 SP:F9 PPU:151
FA1A  D0 12     BNE A:01 X:55 Y:2B P:67 SP:F9 PPU:157
FA1C  B8        CLV A:01 X:55 Y:2B P:67 SP:F9 PPU:163
FA1D  18        CLC A:01 X:55 Y:2B P:27 SP:F9 PPU:169
FA1E  A9 55     LDA A:01 X:55 Y:2B P:26 SP:F9 PPU:175
FA20  60        RTS A:55 X:55 Y:2B P:24 SP:F9 PPU:181
DE23  C8        INY A:55 X:55 Y:2B P:24 SP:FB PPU:199
DE24  95 00     STA A:55 X:55 Y:2C P:24 SP:FB PPU:205
DE26  36 00     ROL A:55 X:55 Y:2C P:24 SP:FB PPU:217
DE28  B5 00     LDA A:55 X:55 Y:2C P:A4 SP:FB PPU:235
DE2A  20 21 FA  JSR A:AA X:55 Y:2C P:A4 SP:FB PPU:247
FA21  B0 0B     BCS A:AA X:55 Y:2C P:A4 SP:F9 PPU:265
FA23  F0 09     BEQ A:AA X:55 Y:2C P:A4 SP:F9 PPU:271
FA25  10 07     BPL A:AA X:55 Y:2C P:A4 SP:F9 PPU:277
FA27  70 05     BVS A:AA X:55 Y:2C P:A4 SP:F9 PPU:283
FA29  C9 AA     CMP A:AA X:55 Y:2C P:A4 SP:F9 PPU:289
FA2B  D0 01     BNE A:AA X:55 Y:2C P:27 SP:F9 PPU:295
FA2D  60        RTS A:AA X:55 Y:2C P:27 SP:F9 PPU:301
DE2D  A9 FF     LDA A:AA X:55 Y:2C P:27 SP:FB PPU:319
DE2F  95 00     STA A:FF X:55 Y:2C P:A5 SP:FB PPU:325
DE31  85 01     STA A:FF X:55 Y:2C P:A5 SP:FB PPU:337
DE33  24 01     BIT A:FF X:55 Y:2C P:A5 SP:FB PPU:  5
DE35  38        SEC A:FF X:55 Y:2C P:E5 SP:FB PPU: 14
DE36  F6 00     INC A:FF X:55 Y:2C P:E5 SP:FB PPU: 20
DE38  D0 0C     BNE A:FF X:55 Y:2C P:67 SP:FB PPU: 38
DE3A  30 0A     BMI A:FF X:55 Y:2C P:67 SP:FB PPU: 44
DE3C  50 08     BVC A:FF X:55 Y:2C P:67 SP:FB PPU: 50
DE3E  90 06     BCC A:FF X:55 Y:2C P:67 SP:FB PPU: 56
DE40  B5 00     LDA A:FF X:55 Y:2C P:67 SP:FB PPU: 62
DE42  C9 00     CMP A:00 X:55 Y:2C P:67 SP:FB PPU: 74
DE44  F0 04     BEQ A:00 X:55 Y:2C P:67 SP:FB PPU: 80
DE4A  A9 7F     LDA A:00 X:55 Y:2C P:67 SP:FB PPU: 89
DE4C  95 00     STA A:7F X:55 Y:2C P:65 SP:FB PPU: 95
DE4E  B8        CLV A:7F X:55 Y:2C P:65 SP:FB PPU:107
DE4F  18        CLC A:7F X:55 Y:2C P:25 SP:FB PPU:113
DE50  F6 00     INC A:7F X:55 Y:2C P:24 SP:FB PPU:119
DE52  F0 0C     BEQ A:7F X:55 Y:2C P:A4 SP:FB PPU:137
DE54  10 0A     BPL A:7F X:55 Y:2C P:A4 SP:FB PPU:143
DE56  70 08     BVS A:7F X:55 Y:2C P:A4 SP:FB PPU:149
DE58  B0 06     BCS A:7F X:55 Y:2C P:A4 SP:FB PPU:155
DE5A  B5 00     LDA A:7F X:55 Y:2C P:A4 SP:FB PPU:161
DE5C  C9 80     CMP A:80 X:55 Y:2C P:A4 SP:FB PPU:173
DE5E  F0 04     BEQ A:80 X:55 Y:2C P:27 SP:FB PPU:179
DE64  A9 00     LDA A:80 X:55 Y:2C P:27 SP:FB PPU:188
DE66  95 00     STA A:00 X:55 Y:2C P:27 SP:FB PPU:194
DE68  24 01     BIT A:00 X:55 Y:2C P:27 SP:FB PPU:206
DE6A  38        SEC A:00 X:55 Y:2C P:E7 SP:FB PPU:215
DE6B  D6 00     DEC A:00 X:55 Y:2C P:E7 SP:FB PPU:221
DE6D  F0 0C     BEQ A:00 X:55 Y:2C P:E5 SP:FB PPU:239
DE6F  10 0A     BPL A:00 X:55 Y:2C P:E5 SP:FB PPU:245
DE71  50 08     BVC A:00 X:55 Y:2C P:E5 SP:FB PPU:251
DE73  90 06     BCC A:00 X:55 Y:2C P:E5 SP:FB PPU:257
DE75  B5 00     LDA A:00 X:55 Y:2C P:E5 SP:FB PPU:263
DE77  C9 FF     CMP A:FF X:55 Y:2C P:E5 SP:FB PPU:275
DE79  F0 04     BEQ A:FF X:55 Y:2C P:67 SP:FB PPU:281
DE7F  A9 80     LDA A:FF X:55 Y:2C P:67 SP:FB PPU:290
DE81  95 00     STA A:80 X:55 Y:2C P:E5 SP:FB PPU:296
DE83  B8        CLV A:80 X:55 Y:2C P:E5 SP:FB PPU:308
DE84  18        CLC A:80 X:55 Y:2C P:A5 SP:FB PPU:314
DE85  D6 00     DEC A:80 X:55 Y:2C P:A4 SP:FB PPU:320
DE87  F0 0C     BEQ A:80 X:55 Y:2C P:24 SP:FB PPU:338
DE89  30 0A     BMI A:80 X:55 Y:2C P:24 SP:FB PPU:  3
DE8B  70 08     BVS A:80 X:55 Y:2C P:24 SP:FB PPU:  9
DE8D  B0 06     BCS A:80 X:55 Y:2C P:24 SP:FB PPU: 15
DE8F  B5 00     LDA A:80 X:55 Y:2C P:24 SP:FB PPU: 21
DE91  C9 7F     CMP A:7F X:55 Y:2C P:24 SP:FB PPU: 33
DE93  F0 04     BEQ A:7F X:55 Y:2C P:27 SP:FB PPU: 39
DE99  A9 01     LDA A:7F X:55 Y:2C P:27 SP:FB PPU: 48
DE9B  95 00     STA A:01 X:55 Y:2C P:25 SP:FB PPU: 54
DE9D  D6 00     DEC A:01 X:55 Y:2C P:25 SP:FB PPU: 66
DE9F  F0 04     BEQ A:01 X:55 Y:2C P:27 SP:FB PPU: 84
DEA5  A9 33     LDA A:01 X:55 Y:2C P:27 SP:FB PPU: 93
DEA7  85 78     STA A:33 X:55 Y:2C P:25 SP:FB PPU: 99
DEA9  A9 44     LDA A:33 X:55 Y:2C P:25 SP:FB PPU:108
DEAB  A0 78     LDY A:44 X:55 Y:2C P:25 SP:FB PPU:114
DEAD  A2 00     LDX A:44 X:55 Y:78 P:25 SP:FB PPU:120
DEAF  38        SEC A:44 X:00 Y:78 P:27 SP:FB PPU:126
DEB0  24 01     BIT A:44 X:00 Y:78 P:27 SP:FB PPU:132
DEB2  B6 00     LDX A:44 X:00 Y:78 P:E5 SP:FB PPU:141
DEB4  90 12     BCC A:44 X:33 Y:78 P:65 SP:FB PPU:153
DEB6  50 10     BVC A:44 X:33 Y:78 P:65 SP:FB PPU:159
DEB8  30 0E     BMI A:44 X:33 Y:78 P:65 SP:FB PPU:165
DEBA  F0 0C     BEQ A:44 X:33 Y:78 P:65 SP:FB PPU:171
DEBC  E0 33     CPX A:44 X:33 Y:78 P:65 SP:FB PPU:177
DEBE  D0 08     BNE A:44 X:33 Y:78 P:67 SP:FB PPU:183
DEC0  C0 78     CPY A:44 X:33 Y:78 P:67 SP:FB PPU:189
DEC2  D0 04     BNE A:44 X:33 Y:78 P:67 SP:FB PPU:195
DEC4  C9 44     CMP A:44 X:33 Y:78 P:67 SP:FB PPU:201
DEC6  F0 04     BEQ A:44 X:33 Y:78 P:67 SP:FB PPU:207
DECC  A9 97     LDA A:44 X:33 Y:78 P:67 SP:FB PPU:216
DECE  85 7F     STA A:97 X:33 Y:78 P:E5 SP:FB PPU:222
DED0  A9 47     LDA A:97 X:33 Y:78 P:E5 SP:FB PPU:231
DED2  A0 FF     LDY A:47 X:33 Y:78 P:65 SP:FB PPU:237
DED4  A2 00     LDX A:47 X:33 Y:FF P:E5 SP:FB PPU:243
DED6  18        CLC A:47 X:00 Y:FF P:67 SP:FB PPU:249
DED7  B8        CLV A:47 X:00 Y:FF P:66 SP:FB PPU:255
DED8  B6 80     LDX A:47 X:00 Y:FF P:26 SP:FB PPU:261
DEDA  B0 12     BCS A:47 X:97 Y:FF P:A4 SP:FB PPU:273
DEDC  70 10     BVS A:47 X:97 Y:FF P:A4 SP:FB PPU:279
DEDE  10 0E     BPL A:47 X:97 Y:FF P:A4 SP:FB PPU:285
DEE0  F0 0C     BEQ A:47 X:97 Y:FF P:A4 SP:FB PPU:291
DEE2  E0 97     CPX A:47 X:97 Y:FF P:A4 SP:FB PPU:297
DEE4  D0 08     BNE A:47 X:97 Y:FF P:27 SP:FB PPU:303
DEE6  C0 FF     CPY A:47 X:97 Y:FF P:27 SP:FB PPU:309
DEE8  D0 04     BNE A:47 X:97 Y:FF P:27 SP:FB PPU:315
DEEA  C9 47     CMP A:47 X:97 Y:FF P:27 SP:FB PPU:321
DEEC  F0 04     BEQ A:47 X:97 Y:FF P:27 SP:FB PPU:327
DEF2  A9 00     LDA A:47 X:97 Y:FF P:27 SP:FB PPU:336
DEF4  85 7F     STA A:00 X:97 Y:FF P:27 SP:FB PPU:  1
DEF6  A9 47     LDA A:00 X:97 Y:FF P:27 SP:FB PPU: 10
DEF8  A0 FF     LDY A:47 X:97 Y:FF P:25 SP:FB PPU: 16
DEFA  A2 69     LDX A:47 X:97 Y:FF P:A5 SP:FB PPU: 22
DEFC  18        CLC A:47 X:69 Y:FF P:25 SP:FB PPU: 28
DEFD  B8        CLV A:47 X:69 Y:FF P:24 SP:FB PPU: 34
DEFE  96 80     STX A:47 X:69 Y:FF P:24 SP:FB PPU: 40
DF00  B0 18     BCS A:47 X:69 Y:FF P:24 SP:FB PPU: 52
DF02  70 16     BVS A:47 X:69 Y:FF P:24 SP:FB PPU: 58
DF04  30 14     BMI A:47 X:69 Y:FF P:24 SP:FB PPU: 64
DF06  F0 12     BEQ A:47 X:69 Y:FF P:24 SP:FB PPU: 70
DF08  E0 69     CPX A:47 X:69 Y:FF P:24 SP:FB PPU: 76
DF0A  D0 0E     BNE A:47 X:69 Y:FF P:27 SP:FB PPU: 82
DF0C  C0 FF     CPY A:47 X:69 Y:FF P:27 SP:FB PPU: 88
DF0E  D0 0A     BNE A:47 X:69 Y:FF P:27 SP:FB PPU: 94
DF10  C9 47     CMP A:47 X:69 Y:FF P:27 SP:FB PPU:100
DF12  D0 06     BNE A:47 X:69 Y:FF P:27 SP:FB PPU:106
DF14  A5 7F     LDA A:47 X:69 Y:FF P:27 SP:FB PPU:112
DF16  C9 69     CMP A:69 X:69 Y:FF P:25 SP:FB PPU:121
DF18  F0 04     BEQ A:69 X:69 Y:FF P:27 SP:FB PPU:127
DF1E  A9 F5     LDA A:69 X:69 Y:FF P:27 SP:FB PPU:136
DF20  85 4F     STA A:F5 X:69 Y:FF P:A5 SP:FB PPU:142
DF22  A9 47     LDA A:F5 X:69 Y:FF P:A5 SP:FB PPU:151
DF24  A0 4F     LDY A:47 X:69 Y:FF P:25 SP:FB PPU:157
DF26  24 01     BIT A:47 X:69 Y:4F P:25 SP:FB PPU:163
DF28  A2 00     LDX A:47 X:69 Y:4F P:E5 SP:FB PPU:172
DF2A  38        SEC A:47 X:00 Y:4F P:67 SP:FB PPU:178
DF2B  96 00     STX A:47 X:00 Y:4F P:67 SP:FB PPU:184
DF2D  90 16     BCC A:47 X:00 Y:4F P:67 SP:FB PPU:196
DF2F  50 14     BVC A:47 X:00 Y:4F P:67 SP:FB PPU:202
DF31  30 12     BMI A:47 X:00 Y:4F P:67 SP:FB PPU:208
DF33  D0 10     BNE A:47 X:00 Y:4F P:67 SP:FB PPU:214
DF35  E0 00     CPX A:47 X:00 Y:4F P:67 SP:FB PPU:220
DF37  D0 0C     BNE A:47 X:00 Y:4F P:67 SP:FB PPU:226
DF39  C0 4F     CPY A:47 X:00 Y:4F P:67 SP:FB PPU:232
DF3B  D0 08     BNE A:47 X:00 Y:4F P:67 SP:FB PPU:238
DF3D  C9 47     CMP A:47 X:00 Y:4F P:67 SP:FB PPU:244
DF3F  D0 04     BNE A:47 X:00 Y:4F P:67 SP:FB PPU:250
DF41  A5 4F     LDA A:47 X:00 Y:4F P:67 SP:FB PPU:256
DF43  F0 04     BEQ A:00 X:00 Y:4F P:67 SP:FB PPU:265
DF49  60        RTS A:00 X:00 Y:4F P:67 SP:FB PPU:274
C62C  20 AA E1  JSR A:00 X:00 Y:4F P:67 SP:FD PPU:292
E1AA  A9 FF     LDA A:00 X:00 Y:4F P:67 SP:FB PPU:310
E1AC  85 01     STA A:FF X:00 Y:4F P:E5 SP:FB PPU:316
E1AE  A9 AA     LDA A:FF X:00 Y:4F P:E5 SP:FB PPU:325
E1B0  8D 33 06  STA A:AA X:00 Y:4F P:E5 SP:FB PPU:331
E1B3  A9 BB     LDA A:AA X:00 Y:4F P:E5 SP:FB PPU:  2
E1B5  8D 89 06  STA A:BB X:00 Y:4F P:E5 SP:FB PPU:  8
E1B8  A2 00     LDX A:BB X:00 Y:4F P:E5 SP:FB PPU: 20
E1BA  A9 66     LDA A:BB X:00 Y:4F P:67 SP:FB PPU: 26
E1BC  24 01     BIT A:66 X:00 Y:4F P:65 SP:FB PPU: 32
E1BE  38        SEC A:66 X:00 Y:4F P:E5 SP:FB PPU: 41
E1BF  A0 00     LDY A:66 X:00 Y:4F P:E5 SP:FB PPU: 47
E1C1  BC 33 06  LDY A:66 X:00 Y:00 P:67 SP:FB PPU: 53
E1C4  10 12     BPL A:66 X:00 Y:AA P:E5 SP:FB PPU: 65
E1C6  F0 10     BEQ A:66 X:00 Y:AA P:E5 SP:FB PPU: 71
E1C8  50 0E     BVC A:66 X:00 Y:AA P:E5 SP:FB PPU: 77
E1CA  90 0C     BCC A:66 X:00 Y:AA P:E5 SP:FB PPU: 83
E1CC  C9 66     CMP A:66 X:00 Y:AA P:E5 SP:FB PPU: 89
E1CE  D0 08     BNE A:66 X:00 Y:AA P:67 SP:FB PPU: 95
E1D0  E0 00     CPX A:66 X:00 Y:AA P:67 SP:FB PPU:101
E1D2  D0 04     BNE A:66 X:00 Y:AA P:67 SP:FB PPU:107
E1D4  C0 AA     CPY A:66 X:00 Y:AA P:67 SP:FB PPU:113
E1D6  F0 04     BEQ A:66 X:00 Y:AA P:67 SP:FB PPU:119
E1DC  A2 8A     LDX A:66 X:00 Y:AA P:67 SP:FB PPU:128
E1DE  A9 66     LDA A:66 X:8A Y:AA P:E5 SP:FB PPU:134
E1E0  B8        CLV A:66 X:8A Y:AA P:65 SP:FB PPU:140
E1E1  18        CLC A:66 X:8A Y:AA P:25 SP:FB PPU:146
E1E2  A0 00     LDY A:66 X:8A Y:AA P:24 SP:FB PPU:152
E1E4  BC FF 05  LDY A:66 X:8A Y:00 P:26 SP:FB PPU:158
E1E7  10 12     BPL A:66 X:8A Y:BB P:A4 SP:FB PPU:173
E1E9  F0 10     BEQ A:66 X:8A Y:BB P:A4 SP:FB PPU:179
E1EB  70 0E     BVS A:66 X:8A Y:BB P:A4 SP:FB PPU:185
E1ED  B0 0C     BCS A:66 X:8A Y:BB P:A4 SP:FB PPU:191
E1EF  C0 BB     CPY A:66 X:8A Y:BB P:A4 SP:FB PPU:197
E1F1  D0 08     BNE A:66 X:8A Y:BB P:27 SP:FB PPU:203
E1F3  C9 66     CMP A:66 X:8A Y:BB P:27 SP:FB PPU:209
E1F5  D0 04     BNE A:66 X:8A Y:BB P:27 SP:FB PPU:215
E1F7  E0 8A     CPX A:66 X:8A Y:BB P:27 SP:FB PPU:221
E1F9  F0 04     BEQ A:66 X:8A Y:BB P:27 SP:FB PPU:227
E1FF  A0 53     LDY A:66 X:8A Y:BB P:27 SP:FB PPU:236
E201  A9 AA     LDA A:66 X:8A Y:53 P:25 SP:FB PPU:242
E203  A2 78     LDX A:AA X:8A Y:53 P:A5 SP:FB PPU:248
E205  8D 78 06  STA A:AA X:78 Y:53 P:25 SP:FB PPU:254
E208  20 B6 F7  JSR A:AA X:78 Y:53 P:25 SP:FB PPU:266
F7B6  18        CLC A:AA X:78 Y:53 P:25 SP:F9 PPU:284
F7B7  A9 FF     LDA A:AA X:78 Y:53 P:24 SP:F9 PPU:290
F7B9  85 01     STA A:FF X:78 Y:53 P:A4 SP:F9 PPU:296
F7BB  24 01     BIT A:FF X:78 Y:53 P:A4 SP:F9 PPU:305
F7BD  A9 55     LDA A:FF X:78 Y:53 P:E4 SP:F9 PPU:314
F7BF  60        RTS A:55 X:78 Y:53 P:64 SP:F9 PPU:320
E20B  1D 00 06  ORA A:55 X:78 Y:53 P:64 SP:FB PPU:338
E20E  20 C0 F7  JSR A:FF X:78 Y:53 P:E4 SP:FB PPU:  9
F7C0  B0 09     BCS A:FF X:78 Y:53 P:E4 SP:F9 PPU: 27
F7C2  10 07     BPL A:FF X:78 Y:53 P:E4 SP:F9 PPU: 33
F7C4  C9 FF     CMP A:FF X:78 Y:53 P:E4 SP:F9 PPU: 39
F7C6  D0 03     BNE A:FF X:78 Y:53 P:67 SP:F9 PPU: 45
F7C8  50 01     BVC A:FF X:78 Y:53 P:67 SP:F9 PPU: 51
F7CA  60        RTS A:FF X:78 Y:53 P:67 SP:F9 PPU: 57
E211  C8        INY A:FF X:78 Y:53 P:67 SP:FB PPU: 75
E212  A9 00     LDA A:FF X:78 Y:54 P:65 SP:FB PPU: 81
E214  8D 78 06  STA A:00 X:78 Y:54 P:67 SP:FB PPU: 87
E217  20 CE F7  JSR A:00 X:78 Y:54 P:67 SP:FB PPU: 99
F7CE  38        SEC A:00 X:78 Y:54 P:67 SP:F9 PPU:117
F7CF  B8        CLV A:00 X:78 Y:54 P:67 SP:F9 PPU:123
F7D0  A9 00     LDA A:00 X:78 Y:54 P:27 SP:F9 PPU:129
F7D2  60        RTS A:00 X:78 Y:54 P:27 SP:F9 PPU:135
E21A  1D 00 06  ORA A:00 X:78 Y:54 P:27 SP:FB PPU:153
E21D  20 D3 F7  JSR A:00 X:78 Y:54 P:27 SP:FB PPU:165
F7D3  D0 07     BNE A:00 X:78 Y:54 P:27 SP:F9 PPU:183
F7D5  70 05     BVS A:00 X:78 Y:54 P:27 SP:F9 PPU:189
F7D7  90 03     BCC A:00 X:78 Y:54 P:27 SP:F9 PPU:195
F7D9  30 01     BMI A:00 X:78 Y:54 P:27 SP:F9 PPU:201
F7DB  60        RTS A:00 X:78 Y:54 P:27 SP:F9 PPU:207
E220  C8        INY A:00 X:78 Y:54 P:27 SP:FB PPU:225
E221  A9 AA     LDA A:00 X:78 Y:55 P:25 SP:FB PPU:231
E223  8D 78 06  STA A:AA X:78 Y:55 P:A5 SP:FB PPU:237
E226  20 DF F7  JSR A:AA X:78 Y:55 P:A5 SP:FB PPU:249
F7DF  18        CLC A:AA X:78 Y:55 P:A5 SP:F9 PPU:267
F7E0  24 01     BIT A:AA X:78 Y:55 P:A4 SP:F9 PPU:273
F7E2  A9 55     LDA A:AA X:78 Y:55 P:E4 SP:F9 PPU:282
F7E4  60        RTS A:55 X:78 Y:55 P:64 SP:F9 PPU:288
E229  3D 00 06  AND A:55 X:78 Y:55 P:64 SP:FB PPU:306
E22C  20 E5 F7  JSR A:00 X:78 Y:55 P:66 SP:FB PPU:318
F7E5  D0 07     BNE A:00 X:78 Y:55 P:66 SP:F9 PPU:336
F7E7  50 05     BVC A:00 X:78 Y:55 P:66 SP:F9 PPU:  1
F7E9  B0 03     BCS A:00 X:78 Y:55 P:66 SP:F9 PPU:  7
F7EB  30 01     BMI A:00 X:78 Y:55 P:66 SP:F9 PPU: 13
F7ED  60        RTS A:00 X:78 Y:55 P:66 SP:F9 PPU: 19
E22F  C8        INY A:00 X:78 Y:55 P:66 SP:FB PPU: 37
E230  A9 EF     LDA A:00 X:78 Y:56 P:64 SP:FB PPU: 43
E232  8D 78 06  STA A:EF X:78 Y:56 P:E4 SP:FB PPU: 49
E235  20 F1 F7  JSR A:EF X:78 Y:56 P:E4 SP:FB PPU: 61
F7F1  38        SEC A:EF X:78 Y:56 P:E4 SP:F9 PPU: 79
F7F2  B8        CLV A:EF X:78 Y:56 P:E5 SP:F9 PPU: 85
F7F3  A9 F8     LDA A:EF X:78 Y:56 P:A5 SP:F9 PPU: 91
F7F5  60        RTS A:F8 X:78 Y:56 P:A5 SP:F9 PPU: 97
E238  3D 00 06  AND A:F8 X:78 Y:56 P:A5 SP:FB PPU:115
E23B  20 F6 F7  JSR A:E8 X:78 Y:56 P:A5 SP:FB PPU:127
F7F6  90 09     BCC A:E8 X:78 Y:56 P:A5 SP:F9 PPU:145
F7F8  10 07     BPL A:E8 X:78 Y:56 P:A5 SP:F9 PPU:151
F7FA  C9 E8     CMP A:E8 X:78 Y:56 P:A5 SP:F9 PPU:157
F7FC  D0 03     BNE A:E8 X:78 Y:56 P:27 SP:F9 PPU:163
F7FE  70 01     BVS A:E8 X:78 Y:56 P:27 SP:F9 PPU:169
F800  60        RTS A:E8 X:78 Y:56 P:27 SP:F9 PPU:175
E23E  C8        INY A:E8 X:78 Y:56 P:27 SP:FB PPU:193
E23F  A9 AA     LDA A:E8 X:78 Y:57 P:25 SP:FB PPU:199
E241  8D 78 06  STA A:AA X:78 Y:57 P:A5 SP:FB PPU:205
E244  20 04 F8  JSR A:AA X:78 Y:57 P:A5 SP:FB PPU:217
F804  18        CLC A:AA X:78 Y:57 P:A5 SP:F9 PPU:235
F805  24 01     BIT A:AA X:78 Y:57 P:A4 SP:F9 PPU:241
F807  A9 5F     LDA A:AA X:78 Y:57 P:E4 SP:F9 PPU:250
F809  60        RTS A:5F X:78 Y:57 P:64 SP:F9 PPU:256
E247  5D 00 06  EOR A:5F X:78 Y:57 P:64 SP:FB PPU:274
E24A  20 0A F8  JSR A:F5 X:78 Y:57 P:E4 SP:FB PPU:286
F80A  B0 09     BCS A:F5 X:78 Y:57 P:E4 SP:F9 PPU:304
F80C  10 07     BPL A:F5 X:78 Y:57 P:E4 SP:F9 PPU:310
F80E  C9 F5     CMP A:F5 X:78 Y:57 P:E4 SP:F9 PPU:316
F810  D0 03     BNE A:F5 X:78 Y:57 P:67 SP:F9 PPU:322
F812  50 01     BVC A:F5 X:78 Y:57 P:67 SP:F9 PPU:328
F814  60        RTS A:F5 X:78 Y:57 P:67 SP:F9 PPU:334
E24D  C8        INY A:F5 X:78 Y:57 P:67 SP:FB PPU: 11
E24E  A9 70     LDA A:F5 X:78 Y:58 P:65 SP:FB PPU: 17
E250  8D 78 06  STA A:70 X:78 Y:58 P:65 SP:FB PPU: 23
E253  20 18 F8  JSR A:70 X:78 Y:58 P:65 SP:FB PPU: 35
F818  38        SEC A:70 X:78 Y:58 P:65 SP:F9 PPU: 53
F819  B8        CLV A:70 X:78 Y:58 P:65 SP:F9 PPU: 59
F81A  A9 70     LDA A:70 X:78 Y:58 P:25 SP:F9 PPU: 65
F81C  60        RTS A:70 X:78 Y:58 P:25 SP:F9 PPU: 71
E256  5D 00 06  EOR A:70 X:78 Y:58 P:25 SP:FB PPU: 89
E259  20 1D F8  JSR A:00 X:78 Y:58 P:27 SP:FB PPU:101
F81D  D0 07     BNE A:00 X:78 Y:58 P:27 SP:F9 PPU:119
F81F  70 05     BVS A:00 X:78 Y:58 P:27 SP:F9 PPU:125
F821  90 03     BCC A:00 X:78 Y:58 P:27 SP:F9 PPU:131
F823  30 01     BMI A:00 X:78 Y:58 P:27 SP:F9 PPU:137
F825  60        RTS A:00 X:78 Y:58 P:27 SP:F9 PPU:143
E25C  C8        INY A:00 X:78 Y:58 P:27 SP:FB PPU:161
E25D  A9 69     LDA A:00 X:78 Y:59 P:25 SP:FB PPU:167
E25F  8D 78 06  STA A:69 X:78 Y:59 P:25 SP:FB PPU:173
E262  20 29 F8  JSR A:69 X:78 Y:59 P:25 SP:FB PPU:185
F829  18        CLC A:69 X:78 Y:59 P:25 SP:F9 PPU:203
F82A  24 01     BIT A:69 X:78 Y:59 P:24 SP:F9 PPU:209
F82C  A9 00     LDA A:69 X:78 Y:59 P:E4 SP:F9 PPU:218
F82E  60        RTS A:00 X:78 Y:59 P:66 SP:F9 PPU:224
E265  7D 00 06  ADC A:00 X:78 Y:59 P:66 SP:FB PPU:242
E268  20 2F F8  JSR A:69 X:78 Y:59 P:24 SP:FB PPU:254
F82F  30 09     BMI A:69 X:78 Y:59 P:24 SP:F9 PPU:272
F831  B0 07     BCS A:69 X:78 Y:59 P:24 SP:F9 PPU:278
F833  C9 69     CMP A:69 X:78 Y:59 P:24 SP:F9 PPU:284
F835  D0 03     BNE A:69 X:78 Y:59 P:27 SP:F9 PPU:290
F837  70 01     BVS A:69 X:78 Y:59 P:27 SP:F9 PPU:296
F839  60        RTS A:69 X:78 Y:59 P:27 SP:F9 PPU:302
E26B  C8        INY A:69 X:78 Y:59 P:27 SP:FB PPU:320
E26C  20 3D F8  JSR A:69 X:78 Y:5A P:25 SP:FB PPU:326
F83D  38        SEC A:69 X:78 Y:5A P:25 SP:F9 PPU:  3
F83E  24 01     BIT A:69 X:78 Y:5A P:25 SP:F9 PPU:  9
F840  A9 00     LDA A:69 X:78 Y:5A P:E5 SP:F9 PPU: 18
F842  60        RTS A:00 X:78 Y:5A P:67 SP:F9 PPU: 24
E26F  7D 00 06  ADC A:00 X:78 Y:5A P:67 SP:FB PPU: 42
E272  20 43 F8  JSR A:6A X:78 Y:5A P:24 SP:FB PPU: 54
F843  30 09     BMI A:6A X:78 Y:5A P:24 SP:F9 PPU: 72
F845  B0 07     BCS A:6A X:78 Y:5A P:24 SP:F9 PPU: 78
F847  C9 6A     CMP A:6A X:78 Y:5A P:24 SP:F9 PPU: 84
F849  D0 03     BNE A:6A X:78 Y:5A P:27 SP:F9 PPU: 90
F84B  70 01     BVS A:6A X:78 Y:5A P:27 SP:F9 PPU: 96
F84D  60        RTS A:6A X:78 Y:5A P:27 SP:F9 PPU:102
E275  C8        INY A:6A X:78 Y:5A P:27 SP:FB PPU:120
E276  A9 7F     LDA A:6A X:78 Y:5B P:25 SP:FB PPU:126
E278  8D 78 06  STA A:7F X:78 Y:5B P:25 SP:FB PPU:132
E27B  20 51 F8  JSR A:7F X:78 Y:5B P:25 SP:FB PPU:144
F851  38        SEC A:7F X:78 Y:5B P:25 SP:F9 PPU:162
F852  B8        CLV A:7F X:78 Y:5B P:25 SP:F9 PPU:168
F853  A9 7F     LDA A:7F X:78 Y:5B P:25 SP:F9 PPU:174
F855  60        RTS A:7F X:78 Y:5B P:25 SP:F9 PPU:180
E27E  7D 00 06  ADC A:7F X:78 Y:5B P:25 SP:FB PPU:198
E281  20 56 F8  JSR A:FF X:78 Y:5B P:E4 SP:FB PPU:210
F856  10 09     BPL A:FF X:78 Y:5B P:E4 SP:F9 PPU:228
F858  B0 07     BCS A:FF X:78 Y:5B P:E4 SP:F9 PPU:234
F85A  C9 FF     CMP A:FF X:78 Y:5B P:E4 SP:F9 PPU:240
F85C  D0 03     BNE A:FF X:78 Y:5B P:67 SP:F9 PPU:246
F85E  50 01     BVC A:FF X:78 Y:5B P:67 SP:F9 PPU:252
F860  60        RTS A:FF X:78 Y:5B P:67 SP:F9 PPU:258
E284  C8        INY A:FF X:78 Y:5B P:67 SP:FB PPU:276
E285  A9 80     LDA A:FF X:78 Y:5C P:65 SP:FB PPU:282
E287  8D 78 06  STA A:80 X:78 Y:5C P:E5 SP:FB PPU:288
E28A  20 64 F8  JSR A:80 X:78 Y:5C P:E5 SP:FB PPU:300
F864  18        CLC A:80 X:78 Y:5C P:E5 SP:F9 PPU:318
F865  24 01     BIT A:80 X:78 Y:5C P:E4 SP:F9 PPU:324
F867  A9 7F     LDA A:80 X:78 Y:5C P:E4 SP:F9 PPU:333
F869  60        RTS A:7F X:78 Y:5C P:64 SP:F9 PPU:339
E28D  7D 00 06  ADC A:7F X:78 Y:5C P:64 SP:FB PPU: 16
E290  20 6A F8  JSR A:FF X:78 Y:5C P:A4 SP:FB PPU: 28
F86A  10 09     BPL A:FF X:78 Y:5C P:A4 SP:F9 PPU: 46
F86C  B0 07     BCS A:FF X:78 Y:5C P:A4 SP:F9 PPU: 52
F86E  C9 FF     CMP A:FF X:78 Y:5C P:A4 SP:F9 PPU: 58
F870  D0 03     BNE A:FF X:78 Y:5C P:27 SP:F9 PPU: 64
F872  70 01     BVS A:FF X:78 Y:5C P:27 SP:F9 PPU: 70
F874  60        RTS A:FF X:78 Y:5C P:27 SP:F9 PPU: 76
E293  C8        INY A:FF X:78 Y:5C P:27 SP:FB PPU: 94
E294  20 78 F8  JSR A:FF X:78 Y:5D P:25 SP:FB PPU:100
F878  38        SEC A:FF X:78 Y:5D P:25 SP:F9 PPU:118
F879  B8        CLV A:FF X:78 Y:5D P:25 SP:F9 PPU:124
F87A  A9 7F     LDA A:FF X:78 Y:5D P:25 SP:F9 PPU:130
F87C  60        RTS A:7F X:78 Y:5D P:25 SP:F9 PPU:136
E297  7D 00 06  ADC A:7F X:78 Y:5D P:25 SP:FB PPU:154
E29A  20 7D F8  JSR A:00 X:78 Y:5D P:27 SP:FB PPU:166
F87D  D0 07     BNE A:00 X:78 Y:5D P:27 SP:F9 PPU:184
F87F  30 05     BMI A:00 X:78 Y:5D P:27 SP:F9 PPU:190
F881  70 03     BVS A:00 X:78 Y:5D P:27 SP:F9 PPU:196
F883  90 01     BCC A:00 X:78 Y:5D P:27 SP:F9 PPU:202
F885  60        RTS A:00 X:78 Y:5D P:27 SP:F9 PPU:208
E29D  C8        INY A:00 X:78 Y:5D P:27 SP:FB PPU:226
E29E  A9 40     LDA A:00 X:78 Y:5E P:25 SP:FB PPU:232
E2A0  8D 78 06  STA A:40 X:78 Y:5E P:25 SP:FB PPU:238
E2A3  20 89 F8  JSR A:40 X:78 Y:5E P:25 SP:FB PPU:250
F889  24 01     BIT A:40 X:78 Y:5E P:25 SP:F9 PPU:268
F88B  A9 40     LDA A:40 X:78 Y:5E P:E5 SP:F9 PPU:277
F88D  60        RTS A:40 X:78 Y:5E P:65 SP:F9 PPU:283
E2A6  DD 00 06  CMP A:40 X:78 Y:5E P:65 SP:FB PPU:301
E2A9  20 8E F8  JSR A:40 X:78 Y:5E P:67 SP:FB PPU:313
F88E  30 07     BMI A:40 X:78 Y:5E P:67 SP:F9 PPU:331
F890  90 05     BCC A:40 X:78 Y:5E P:67 SP:F9 PPU:337
F892  D0 03     BNE A:40 X:78 Y:5E P:67 SP:F9 PPU:  2
F894  50 01     BVC A:40 X:78 Y:5E P:67 SP:F9 PPU:  8
F896  60        RTS A:40 X:78 Y:5E P:67 SP:F9 PPU: 14
E2AC  C8        INY A:40 X:78 Y:5E P:67 SP:FB PPU: 32
E2AD  48        PHA A:40 X:78 Y:5F P:65 SP:FB PPU: 38
E2AE  A9 3F     LDA A:40 X:78 Y:5F P:65 SP:FA PPU: 47
E2B0  8D 78 06  STA A:3F X:78 Y:5F P:65 SP:FA PPU: 53
E2B3  68        PLA A:3F X:78 Y:5F P:65 SP:FA PPU: 65
E2B4  20 9A F8  JSR A:40 X:78 Y:5F P:65 SP:FB PPU: 77
F89A  B8        CLV A:40 X:78 Y:5F P:65 SP:F9 PPU: 95
F89B  60        RTS A:40 X:78 Y:5F P:25 SP:F9 PPU:101
E2B7  DD 00 06  CMP A:40 X:78 Y:5F P:25 SP:FB PPU:119
E2BA  20 9C F8  JSR A:40 X:78 Y:5F P:25 SP:FB PPU:131
F89C  F0 07     BEQ A:40 X:78 Y:5F P:25 SP:F9 PPU:149
F89E  30 05     BMI A:40 X:78 Y:5F P:25 SP:F9 PPU:155
F8A0  90 03     BCC A:40 X:78 Y:5F P:25 SP:F9 PPU:161
F8A2  70 01     BVS A:40 X:78 Y:5F P:25 SP:F9 PPU:167
F8A4  60        RTS A:40 X:78 Y:5F P:25 SP:F9 PPU:173
E2BD  C8        INY A:40 X:78 Y:5F P:25 SP:FB PPU:191
E2BE  48        PHA A:40 X:78 Y:60 P:25 SP:FB PPU:197
E2BF  A9 41     LDA A:40 X:78 Y:60 P:25 SP:FA PPU:206
E2C1  8D 78 06  STA A:41 X:78 Y:60 P:25 SP:FA PPU:212
E2C4  68        PLA A:41 X:78 Y:60 P:25 SP:FA PPU:224
E2C5  DD 00 06  CMP A:40 X:78 Y:60 P:25 SP:FB PPU:236
E2C8  20 A8 F8  JSR A:40 X:78 Y:60 P:A4 SP:FB PPU:248
F8A8  F0 05     BEQ A:40 X:78 Y:60 P:A4 SP:F9 PPU:266
F8AA  10 03     BPL A:40 X:78 Y:60 P:A4 SP:F9 PPU:272
F8AC  10 01     BPL A:40 X:78 Y:60 P:A4 SP:F9 PPU:278
F8AE  60        RTS A:40 X:78 Y:60 P:A4 SP:F9 PPU:284
E2CB  C8        INY A:40 X:78 Y:60 P:A4 SP:FB PPU:302
E2CC  48        PHA A:40 X:78 Y:61 P:24 SP:FB PPU:308
E2CD  A9 00     LDA A:40 X:78 Y:61 P:24 SP:FA PPU:317
E2CF  8D 78 06  STA A:00 X:78 Y:61 P:26 SP:FA PPU:323
E2D2  68        PLA A:00 X:78 Y:61 P:26 SP:FA PPU:335
E2D3  20 B2 F8  JSR A:40 X:78 Y:61 P:24 SP:FB PPU:  6
F8B2  A9 80     LDA A:40 X:78 Y:61 P:24 SP:F9 PPU: 24
F8B4  60        RTS A:80 X:78 Y:61 P:A4 SP:F9 PPU: 30
E2D6  DD 00 06  CMP A:80 X:78 Y:61 P:A4 SP:FB PPU: 48
E2D9  20 B5 F8  JSR A:80 X:78 Y:61 P:A5 SP:FB PPU: 60
F8B5  F0 05     BEQ A:80 X:78 Y:61 P:A5 SP:F9 PPU: 78
F8B7  10 03     BPL A:80 X:78 Y:61 P:A5 SP:F9 PPU: 84
F8B9  90 01     BCC A:80 X:78 Y:61 P:A5 SP:F9 PPU: 90
F8BB  60        RTS A:80 X:78 Y:61 P:A5 SP:F9 PPU: 96
E2DC  C8        INY A:80 X:78 Y:61 P:A5 SP:FB PPU:114
E2DD  48        PHA A:80 X:78 Y:62 P:25 SP:FB PPU:120
E2DE  A9 80     LDA A:80 X:78 Y:62 P:25 SP:FA PPU:129
E2E0  8D 78 06  STA A:80 X:78 Y:62 P:A5 SP:FA PPU:135
E2E3  68        PLA A:80 X:78 Y:62 P:A5 SP:FA PPU:147
E2E4  DD 00 06  CMP A:80 X:78 Y:62 P:A5 SP:FB PPU:159
E2E7  20 BF F8  JSR A:80 X:78 Y:62 P:27 SP:FB PPU:171
F8BF  D0 05     BNE A:80 X:78 Y:62 P:27 SP:F9 PPU:189
F8C1  30 03     BMI A:80 X:78 Y:62 P:27 SP:F9 PPU:195
F8C3  90 01     BCC A:80 X:78 Y:62 P:27 SP:F9 PPU:201
F8C5  60        RTS A:80 X:78 Y:62 P:27 SP:F9 PPU:207
E2EA  C8        INY A:80 X:78 Y:62 P:27 SP:FB PPU:225
E2EB  48        PHA A:80 X:78 Y:63 P:25 SP:FB PPU:231
E2EC  A9 81     LDA A:80 X:78 Y:63 P:25 SP:FA PPU:240
E2EE  8D 78 06  STA A:81 X:78 Y:63 P:A5 SP:FA PPU:246
E2F1  68        PLA A:81 X:78 Y:63 P:A5 SP:FA PPU:258
E2F2  DD 00 06  CMP A:80 X:78 Y:63 P:A5 SP:FB PPU:270
E2F5  20 C9 F8  JSR A:80 X:78 Y:63 P:A4 SP:FB PPU:282
F8C9  B0 05     BCS A:80 X:78 Y:63 P:A4 SP:F9 PPU:300
F8CB  F0 03     BEQ A:80 X:78 Y:63 P:A4 SP:F9 PPU:306
F8CD  10 01     BPL A:80 X:78 Y:63 P:A4 SP:F9 PPU:312
F8CF  60        RTS A:80 X:78 Y:63 P:A4 SP:F9 PPU:318
E2F8  C8        INY A:80 X:78 Y:63 P:A4 SP:FB PPU:336
E2F9  48        PHA A:80 X:78 Y:64 P:24 SP:FB PPU:  1
E2FA  A9 7F     LDA A:80 X:78 Y:64 P:24 SP:FA PPU: 10
E2FC  8D 78 06  STA A:7F X:78 Y:64 P:24 SP:FA PPU: 16
E2FF  68        PLA A:7F X:78 Y:64 P:24 SP:FA PPU: 28
E300  DD 00 06  CMP A:80 X:78 Y:64 P:A4 SP:FB PPU: 40
E303  20 D3 F8  JSR A:80 X:78 Y:64 P:25 SP:FB PPU: 52
F8D3  90 05     BCC A:80 X:78 Y:64 P:25 SP:F9 PPU: 70
F8D5  F0 03     BEQ A:80 X:78 Y:64 P:25 SP:F9 PPU: 76
F8D7  30 01     BMI A:80 X:78 Y:64 P:25 SP:F9 PPU: 82
F8D9  60        RTS A:80 X:78 Y:64 P:25 SP:F9 PPU: 88
E306  C8        INY A:80 X:78 Y:64 P:25 SP:FB PPU:106
E307  A9 40     LDA A:80 X:78 Y:65 P:25 SP:FB PPU:112
E309  8D 78 06  STA A:40 X:78 Y:65 P:25 SP:FB PPU:118
E30C  20 31 F9  JSR A:40 X:78 Y:65 P:25 SP:FB PPU:130
F931  24 01     BIT A:40 X:78 Y:65 P:25 SP:F9 PPU:148
F933  A9 40     LDA A:40 X:78 Y:65 P:E5 SP:F9 PPU:157
F935  38        SEC A:40 X:78 Y:65 P:65 SP:F9 PPU:163
F936  60        RTS A:40 X:78 Y:65 P:65 SP:F9 PPU:169
E30F  FD 00 06  SBC A:40 X:78 Y:65 P:65 SP:FB PPU:187
E312  20 37 F9  JSR A:00 X:78 Y:65 P:27 SP:FB PPU:199
F937  30 0B     BMI A:00 X:78 Y:65 P:27 SP:F9 PPU:217
F939  90 09     BCC A:00 X:78 Y:65 P:27 SP:F9 PPU:223
F93B  D0 07     BNE A:00 X:78 Y:65 P:27 SP:F9 PPU:229
F93D  70 05     BVS A:00 X:78 Y:65 P:27 SP:F9 PPU:235
F93F  C9 00     CMP A:00 X:78 Y:65 P:27 SP:F9 PPU:241
F941  D0 01     BNE A:00 X:78 Y:65 P:27 SP:F9 PPU:247
F943  60        RTS A:00 X:78 Y:65 P:27 SP:F9 PPU:253
E315  C8        INY A:00 X:78 Y:65 P:27 SP:FB PPU:271
E316  A9 3F     LDA A:00 X:78 Y:66 P:25 SP:FB PPU:277
E318  8D 78 06  STA A:3F X:78 Y:66 P:25 SP:FB PPU:283
E31B  20 47 F9  JSR A:3F X:78 Y:66 P:25 SP:FB PPU:295
F947  B8        CLV A:3F X:78 Y:66 P:25 SP:F9 PPU:313
F948  38        SEC A:3F X:78 Y:66 P:25 SP:F9 PPU:319
F949  A9 40     LDA A:3F X:78 Y:66 P:25 SP:F9 PPU:325
F94B  60        RTS A:40 X:78 Y:66 P:25 SP:F9 PPU:331
E31E  FD 00 06  SBC A:40 X:78 Y:66 P:25 SP:FB PPU:  8
E321  20 4C F9  JSR A:01 X:78 Y:66 P:25 SP:FB PPU: 20
F94C  F0 0B     BEQ A:01 X:78 Y:66 P:25 SP:F9 PPU: 38
F94E  30 09     BMI A:01 X:78 Y:66 P:25 SP:F9 PPU: 44
F950  90 07     BCC A:01 X:78 Y:66 P:25 SP:F9 PPU: 50
F952  70 05     BVS A:01 X:78 Y:66 P:25 SP:F9 PPU: 56
F954  C9 01     CMP A:01 X:78 Y:66 P:25 SP:F9 PPU: 62
F956  D0 01     BNE A:01 X:78 Y:66 P:27 SP:F9 PPU: 68
F958  60        RTS A:01 X:78 Y:66 P:27 SP:F9 PPU: 74
E324  C8        INY A:01 X:78 Y:66 P:27 SP:FB PPU: 92
E325  A9 41     LDA A:01 X:78 Y:67 P:25 SP:FB PPU: 98
E327  8D 78 06  STA A:41 X:78 Y:67 P:25 SP:FB PPU:104
E32A  20 5C F9  JSR A:41 X:78 Y:67 P:25 SP:FB PPU:116
F95C  A9 40     LDA A:41 X:78 Y:67 P:25 SP:F9 PPU:134
F95E  38        SEC A:40 X:78 Y:67 P:25 SP:F9 PPU:140
F95F  24 01     BIT A:40 X:78 Y:67 P:25 SP:F9 PPU:146
F961  60        RTS A:40 X:78 Y:67 P:E5 SP:F9 PPU:155
E32D  FD 00 06  SBC A:40 X:78 Y:67 P:E5 SP:FB PPU:173
E330  20 62 F9  JSR A:FF X:78 Y:67 P:A4 SP:FB PPU:185
F962  B0 0B     BCS A:FF X:78 Y:67 P:A4 SP:F9 PPU:203
F964  F0 09     BEQ A:FF X:78 Y:67 P:A4 SP:F9 PPU:209
F966  10 07     BPL A:FF X:78 Y:67 P:A4 SP:F9 PPU:215
F968  70 05     BVS A:FF X:78 Y:67 P:A4 SP:F9 PPU:221
F96A  C9 FF     CMP A:FF X:78 Y:67 P:A4 SP:F9 PPU:227
F96C  D0 01     BNE A:FF X:78 Y:67 P:27 SP:F9 PPU:233
F96E  60        RTS A:FF X:78 Y:67 P:27 SP:F9 PPU:239
E333  C8        INY A:FF X:78 Y:67 P:27 SP:FB PPU:257
E334  A9 00     LDA A:FF X:78 Y:68 P:25 SP:FB PPU:263
E336  8D 78 06  STA A:00 X:78 Y:68 P:27 SP:FB PPU:269
E339  20 72 F9  JSR A:00 X:78 Y:68 P:27 SP:FB PPU:281
F972  18        CLC A:00 X:78 Y:68 P:27 SP:F9 PPU:299
F973  A9 80     LDA A:00 X:78 Y:68 P:26 SP:F9 PPU:305
F975  60        RTS A:80 X:78 Y:68 P:A4 SP:F9 PPU:311
E33C  FD 00 06  SBC A:80 X:78 Y:68 P:A4 SP:FB PPU:329
E33F  20 76 F9  JSR A:7F X:78 Y:68 P:65 SP:FB PPU:  0
F976  90 05     BCC A:7F X:78 Y:68 P:65 SP:F9 PPU: 18
F978  C9 7F     CMP A:7F X:78 Y:68 P:65 SP:F9 PPU: 24
F97A  D0 01     BNE A:7F X:78 Y:68 P:67 SP:F9 PPU: 30
F97C  60        RTS A:7F X:78 Y:68 P:67 SP:F9 PPU: 36
E342  C8        INY A:7F X:78 Y:68 P:67 SP:FB PPU: 54
E343  A9 7F     LDA A:7F X:78 Y:69 P:65 SP:FB PPU: 60
E345  8D 78 06  STA A:7F X:78 Y:69 P:65 SP:FB PPU: 66
E348  20 80 F9  JSR A:7F X:78 Y:69 P:65 SP:FB PPU: 78
F980  38        SEC A:7F X:78 Y:69 P:65 SP:F9 PPU: 96
F981  A9 81     LDA A:7F X:78 Y:69 P:65 SP:F9 PPU:102
F983  60        RTS A:81 X:78 Y:69 P:E5 SP:F9 PPU:108
E34B  FD 00 06  SBC A:81 X:78 Y:69 P:E5 SP:FB PPU:126
E34E  20 84 F9  JSR A:02 X:78 Y:69 P:65 SP:FB PPU:138
F984  50 07     BVC A:02 X:78 Y:69 P:65 SP:F9 PPU:156
F986  90 05     BCC A:02 X:78 Y:69 P:65 SP:F9 PPU:162
F988  C9 02     CMP A:02 X:78 Y:69 P:65 SP:F9 PPU:168
F98A  D0 01     BNE A:02 X:78 Y:69 P:67 SP:F9 PPU:174
F98C  60        RTS A:02 X:78 Y:69 P:67 SP:F9 PPU:180
E351  A9 AA     LDA A:02 X:78 Y:69 P:67 SP:FB PPU:198
E353  8D 33 06  STA A:AA X:78 Y:69 P:E5 SP:FB PPU:204
E356  A9 BB     LDA A:AA X:78 Y:69 P:E5 SP:FB PPU:216
E358  8D 89 06  STA A:BB X:78 Y:69 P:E5 SP:FB PPU:222
E35B  A2 00     LDX A:BB X:78 Y:69 P:E5 SP:FB PPU:234
E35D  A0 66     LDY A:BB X:00 Y:69 P:67 SP:FB PPU:240
E35F  24 01     BIT A:BB X:00 Y:66 P:65 SP:FB PPU:246
E361  38        SEC A:BB X:00 Y:66 P:E5 SP:FB PPU:255
E362  A9 00     LDA A:BB X:00 Y:66 P:E5 SP:FB PPU:261
E364  BD 33 06  LDA A:00 X:00 Y:66 P:67 SP:FB PPU:267
E367  10 12     BPL A:AA X:00 Y:66 P:E5 SP:FB PPU:279
E369  F0 10     BEQ A:AA X:00 Y:66 P:E5 SP:FB PPU:285
E36B  50 0E     BVC A:AA X:00 Y:66 P:E5 SP:FB PPU:291
E36D  90 0C     BCC A:AA X:00 Y:66 P:E5 SP:FB PPU:297
E36F  C0 66     CPY A:AA X:00 Y:66 P:E5 SP:FB PPU:303
E371  D0 08     BNE A:AA X:00 Y:66 P:67 SP:FB PPU:309
E373  E0 00     CPX A:AA X:00 Y:66 P:67 SP:FB PPU:315
E375  D0 04     BNE A:AA X:00 Y:66 P:67 SP:FB PPU:321
E377  C9 AA     CMP A:AA X:00 Y:66 P:67 SP:FB PPU:327
E379  F0 04     BEQ A:AA X:00 Y:66 P:67 SP:FB PPU:333
E37F  A2 8A     LDX A:AA X:00 Y:66 P:67 SP:FB PPU:  1
E381  A0 66     LDY A:AA X:8A Y:66 P:E5 SP:FB PPU:  7
E383  B8        CLV A:AA X:8A Y:66 P:65 SP:FB PPU: 13
E384  18        CLC A:AA X:8A Y:66 P:25 SP:FB PPU: 19
E385  A9 00     LDA A:AA X:8A Y:66 P:24 SP:FB PPU: 25
E387  BD FF 05  LDA A:00 X:8A Y:66 P:26 SP:FB PPU: 31
E38A  10 12     BPL A:BB X:8A Y:66 P:A4 SP:FB PPU: 46
E38C  F0 10     BEQ A:BB X:8A Y:66 P:A4 SP:FB PPU: 52
E38E  70 0E     BVS A:BB X:8A Y:66 P:A4 SP:FB PPU: 58
E390  B0 0C     BCS A:BB X:8A Y:66 P:A4 SP:FB PPU: 64
E392  C9 BB     CMP A:BB X:8A Y:66 P:A4 SP:FB PPU: 70
E394  D0 08     BNE A:BB X:8A Y:66 P:27 SP:FB PPU: 76
E396  C0 66     CPY A:BB X:8A Y:66 P:27 SP:FB PPU: 82
E398  D0 04     BNE A:BB X:8A Y:66 P:27 SP:FB PPU: 88
E39A  E0 8A     CPX A:BB X:8A Y:66 P:27 SP:FB PPU: 94
E39C  F0 04     BEQ A:BB X:8A Y:66 P:27 SP:FB PPU:100
E3A2  24 01     BIT A:BB X:8A Y:66 P:27 SP:FB PPU:109
E3A4  38        SEC A:BB X:8A Y:66 P:E5 SP:FB PPU:118
E3A5  A9 44     LDA A:BB X:8A Y:66 P:E5 SP:FB PPU:124
E3A7  A2 00     LDX A:44 X:8A Y:66 P:65 SP:FB PPU:130
E3A9  9D 33 06  STA A:44 X:00 Y:66 P:67 SP:FB PPU:136
E3AC  AD 33 06  LDA A:44 X:00 Y:66 P:67 SP:FB PPU:151
E3AF  90 1A     BCC A:44 X:00 Y:66 P:65 SP:FB PPU:163
E3B1  C9 44     CMP A:44 X:00 Y:66 P:65 SP:FB PPU:169
E3B3  D0 16     BNE A:44 X:00 Y:66 P:67 SP:FB PPU:175
E3B5  50 14     BVC A:44 X:00 Y:66 P:67 SP:FB PPU:181
E3B7  18        CLC A:44 X:00 Y:66 P:67 SP:FB PPU:187
E3B8  B8        CLV A:44 X:00 Y:66 P:66 SP:FB PPU:193
E3B9  A9 99     LDA A:44 X:00 Y:66 P:26 SP:FB PPU:199
E3BB  A2 80     LDX A:99 X:00 Y:66 P:A4 SP:FB PPU:205
E3BD  9D 85 05  STA A:99 X:80 Y:66 P:A4 SP:FB PPU:211
E3C0  AD 05 06  LDA A:99 X:80 Y:66 P:A4 SP:FB PPU:226
E3C3  B0 06     BCS A:99 X:80 Y:66 P:A4 SP:FB PPU:238
E3C5  C9 99     CMP A:99 X:80 Y:66 P:A4 SP:FB PPU:244
E3C7  D0 02     BNE A:99 X:80 Y:66 P:27 SP:FB PPU:250
E3C9  50 04     BVC A:99 X:80 Y:66 P:27 SP:FB PPU:256
E3CF  A0 6D     LDY A:99 X:80 Y:66 P:27 SP:FB PPU:265
E3D1  A2 6D     LDX A:99 X:80 Y:6D P:25 SP:FB PPU:271
E3D3  20 90 F9  JSR A:99 X:6D Y:6D P:25 SP:FB PPU:277
F990  A2 55     LDX A:99 X:6D Y:6D P:25 SP:F9 PPU:295
F992  A9 FF     LDA A:99 X:55 Y:6D P:25 SP:F9 PPU:301
F994  85 01     STA A:FF X:55 Y:6D P:A5 SP:F9 PPU:307
F996  EA        NOP A:FF X:55 Y:6D P:A5 SP:F9 PPU:316
F997  24 01     BIT A:FF X:55 Y:6D P:A5 SP:F9 PPU:322
F999  38        SEC A:FF X:55 Y:6D P:E5 SP:F9 PPU:331
F99A  A9 01     LDA A:FF X:55 Y:6D P:E5 SP:F9 PPU:337
F99C  60        RTS A:01 X:55 Y:6D P:65 SP:F9 PPU:  2
E3D6  9D 00 06  STA A:01 X:55 Y:6D P:65 SP:FB PPU: 20
E3D9  5E 00 06  LSR A:01 X:55 Y:6D P:65 SP:FB PPU: 35
E3DC  BD 00 06  LDA A:01 X:55 Y:6D P:67 SP:FB PPU: 56
E3DF  20 9D F9  JSR A:00 X:55 Y:6D P:67 SP:FB PPU: 68
F99D  90 1B     BCC A:00 X:55 Y:6D P:67 SP:F9 PPU: 86
F99F  D0 19     BNE A:00 X:55 Y:6D P:67 SP:F9 PPU: 92
F9A1  30 17     BMI A:00 X:55 Y:6D P:67 SP:F9 PPU: 98
F9A3  50 15     BVC A:00 X:55 Y:6D P:67 SP:F9 PPU:104
F9A5  C9 00     CMP A:00 X:55 Y:6D P:67 SP:F9 PPU:110
F9A7  D0 11     BNE A:00 X:55 Y:6D P:67 SP:F9 PPU:116
F9A9  B8        CLV A:00 X:55 Y:6D P:67 SP:F9 PPU:122
F9AA  A9 AA     LDA A:00 X:55 Y:6D P:27 SP:F9 PPU:128
F9AC  60        RTS A:AA X:55 Y:6D P:A5 SP:F9 PPU:134
E3E2  C8        INY A:AA X:55 Y:6D P:A5 SP:FB PPU:152
E3E3  9D 00 06  STA A:AA X:55 Y:6E P:25 SP:FB PPU:158
E3E6  5E 00 06  LSR A:AA X:55 Y:6E P:25 SP:FB PPU:173
E3E9  BD 00 06  LDA A:AA X:55 Y:6E P:24 SP:FB PPU:194
E3EC  20 AD F9  JSR A:55 X:55 Y:6E P:24 SP:FB PPU:206
F9AD  B0 0B     BCS A:55 X:55 Y:6E P:24 SP:F9 PPU:224
F9AF  F0 09     BEQ A:55 X:55 Y:6E P:24 SP:F9 PPU:230
F9B1  30 07     BMI A:55 X:55 Y:6E P:24 SP:F9 PPU:236
F9B3  70 05     BVS A:55 X:55 Y:6E P:24 SP:F9 PPU:242
F9B5  C9 55     CMP A:55 X:55 Y:6E P:24 SP:F9 PPU:248
F9B7  D0 01     BNE A:55 X:55 Y:6E P:27 SP:F9 PPU:254
F9B9  60        RTS A:55 X:55 Y:6E P:27 SP:F9 PPU:260
E3EF  C8        INY A:55 X:55 Y:6E P:27 SP:FB PPU:278
E3F0  20 BD F9  JSR A:55 X:55 Y:6F P:25 SP:FB PPU:284
F9BD  24 01     BIT A:55 X:55 Y:6F P:25 SP:F9 PPU:302
F9BF  38        SEC A:55 X:55 Y:6F P:E5 SP:F9 PPU:311
F9C0  A9 80     LDA A:55 X:55 Y:6F P:E5 SP:F9 PPU:317
F9C2  60        RTS A:80 X:55 Y:6F P:E5 SP:F9 PPU:323
E3F3  9D 00 06  STA A:80 X:55 Y:6F P:E5 SP:FB PPU:  0
E3F6  1E 00 06  ASL A:80 X:55 Y:6F P:E5 SP:FB PPU: 15
E3F9  BD 00 06  LDA A:80 X:55 Y:6F P:67 SP:FB PPU: 36
E3FC  20 C3 F9  JSR A:00 X:55 Y:6F P:67 SP:FB PPU: 48
F9C3  90 1C     BCC A:00 X:55 Y:6F P:67 SP:F9 PPU: 66
F9C5  D0 1A     BNE A:00 X:55 Y:6F P:67 SP:F9 PPU: 72
F9C7  30 18     BMI A:00 X:55 Y:6F P:67 SP:F9 PPU: 78
F9C9  50 16     BVC A:00 X:55 Y:6F P:67 SP:F9 PPU: 84
F9CB  C9 00     CMP A:00 X:55 Y:6F P:67 SP:F9 PPU: 90
F9CD  D0 12     BNE A:00 X:55 Y:6F P:67 SP:F9 PPU: 96
F9CF  B8        CLV A:00 X:55 Y:6F P:67 SP:F9 PPU:102
F9D0  A9 55     LDA A:00 X:55 Y:6F P:27 SP:F9 PPU:108
F9D2  38        SEC A:55 X:55 Y:6F P:25 SP:F9 PPU:114
F9D3  60        RTS A:55 X:55 Y:6F P:25 SP:F9 PPU:120
E3FF  C8        INY A:55 X:55 Y:6F P:25 SP:FB PPU:138
E400  9D 00 06  STA A:55 X:55 Y:70 P:25 SP:FB PPU:144
E403  1E 00 06  ASL A:55 X:55 Y:70 P:25 SP:FB PPU:159
E406  BD 00 06  LDA A:55 X:55 Y:70 P:A4 SP:FB PPU:180
E409  20 D4 F9  JSR A:AA X:55 Y:70 P:A4 SP:FB PPU:192
F9D4  B0 0B     BCS A:AA X:55 Y:70 P:A4 SP:F9 PPU:210
F9D6  F0 09     BEQ A:AA X:55 Y:70 P:A4 SP:F9 PPU:216
F9D8  10 07     BPL A:AA X:55 Y:70 P:A4 SP:F9 PPU:222
F9DA  70 05     BVS A:AA X:55 Y:70 P:A4 SP:F9 PPU:228
F9DC  C9 AA     CMP A:AA X:55 Y:70 P:A4 SP:F9 PPU:234
F9DE  D0 01     BNE A:AA X:55 Y:70 P:27 SP:F9 PPU:240
F9E0  60        RTS A:AA X:55 Y:70 P:27 SP:F9 PPU:246
E40C  C8        INY A:AA X:55 Y:70 P:27 SP:FB PPU:264
E40D  20 E4 F9  JSR A:AA X:55 Y:71 P:25 SP:FB PPU:270
F9E4  24 01     BIT A:AA X:55 Y:71 P:25 SP:F9 PPU:288
F9E6  38        SEC A:AA X:55 Y:71 P:E5 SP:F9 PPU:297
F9E7  A9 01     LDA A:AA X:55 Y:71 P:E5 SP:F9 PPU:303
F9E9  60        RTS A:01 X:55 Y:71 P:65 SP:F9 PPU:309
E410  9D 00 06  STA A:01 X:55 Y:71 P:65 SP:FB PPU:327
E413  7E 00 06  ROR A:01 X:55 Y:71 P:65 SP:FB PPU:  1
E416  BD 00 06  LDA A:01 X:55 Y:71 P:E5 SP:FB PPU: 22
E419  20 EA F9  JSR A:80 X:55 Y:71 P:E5 SP:FB PPU: 34
F9EA  90 1C     BCC A:80 X:55 Y:71 P:E5 SP:F9 PPU: 52
F9EC  F0 1A     BEQ A:80 X:55 Y:71 P:E5 SP:F9 PPU: 58
F9EE  10 18     BPL A:80 X:55 Y:71 P:E5 SP:F9 PPU: 64
F9F0  50 16     BVC A:80 X:55 Y:71 P:E5 SP:F9 PPU: 70
F9F2  C9 80     CMP A:80 X:55 Y:71 P:E5 SP:F9 PPU: 76
F9F4  D0 12     BNE A:80 X:55 Y:71 P:67 SP:F9 PPU: 82
F9F6  B8        CLV A:80 X:55 Y:71 P:67 SP:F9 PPU: 88
F9F7  18        CLC A:80 X:55 Y:71 P:27 SP:F9 PPU: 94
F9F8  A9 55     LDA A:80 X:55 Y:71 P:26 SP:F9 PPU:100
F9FA  60        RTS A:55 X:55 Y:71 P:24 SP:F9 PPU:106
E41C  C8        INY A:55 X:55 Y:71 P:24 SP:FB PPU:124
E41D  9D 00 06  STA A:55 X:55 Y:72 P:24 SP:FB PPU:130
E420  7E 00 06  ROR A:55 X:55 Y:72 P:24 SP:FB PPU:145
E423  BD 00 06  LDA A:55 X:55 Y:72 P:25 SP:FB PPU:166
E426  20 FB F9  JSR A:2A X:55 Y:72 P:25 SP:FB PPU:178
F9FB  90 0B     BCC A:2A X:55 Y:72 P:25 SP:F9 PPU:196
F9FD  F0 09     BEQ A:2A X:55 Y:72 P:25 SP:F9 PPU:202
F9FF  30 07     BMI A:2A X:55 Y:72 P:25 SP:F9 PPU:208
FA01  70 05     BVS A:2A X:55 Y:72 P:25 SP:F9 PPU:214
FA03  C9 2A     CMP A:2A X:55 Y:72 P:25 SP:F9 PPU:220
FA05  D0 01     BNE A:2A X:55 Y:72 P:27 SP:F9 PPU:226
FA07  60        RTS A:2A X:55 Y:72 P:27 SP:F9 PPU:232
E429  C8        INY A:2A X:55 Y:72 P:27 SP:FB PPU:250
E42A  20 0A FA  JSR A:2A X:55 Y:73 P:25 SP:FB PPU:256
FA0A  24 01     BIT A:2A X:55 Y:73 P:25 SP:F9 PPU:274
FA0C  38        SEC A:2A X:55 Y:73 P:E5 SP:F9 PPU:283
FA0D  A9 80     LDA A:2A X:55 Y:73 P:E5 SP:F9 PPU:289
FA0F  60        RTS A:80 X:55 Y:73 P:E5 SP:F9 PPU:295
E42D  9D 00 06  STA A:80 X:55 Y:73 P:E5 SP:FB PPU:313
E430  3E 00 06  ROL A:80 X:55 Y:73 P:E5 SP:FB PPU:328
E433  BD 00 06  LDA A:80 X:55 Y:73 P:65 SP:FB PPU:  8
E436  20 10 FA  JSR A:01 X:55 Y:73 P:65 SP:FB PPU: 20
FA10  90 1C     BCC A:01 X:55 Y:73 P:65 SP:F9 PPU: 38
FA12  F0 1A     BEQ A:01 X:55 Y:73 P:65 SP:F9 PPU: 44
FA14  30 18     BMI A:01 X:55 Y:73 P:65 SP:F9 PPU: 50
FA16  50 16     BVC A:01 X:55 Y:73 P:65 SP:F9 PPU: 56
FA18  C9 01     CMP A:01 X:55 Y:73 P:65 SP:F9 PPU: 62
FA1A  D0 12     BNE A:01 X:55 Y:73 P:67 SP:F9 PPU: 68
FA1C  B8        CLV A:01 X:55 Y:73 P:67 SP:F9 PPU: 74
FA1D  18        CLC A:01 X:55 Y:73 P:27 SP:F9 PPU: 80
FA1E  A9 55     LDA A:01 X:55 Y:73 P:26 SP:F9 PPU: 86
FA20  60        RTS A:55 X:55 Y:73 P:24 SP:F9 PPU: 92
E439  C8        INY A:55 X:55 Y:73 P:24 SP:FB PPU:110
E43A  9D 00 06  STA A:55 X:55 Y:74 P:24 SP:FB PPU:116
E43D  3E 00 06  ROL A:55 X:55 Y:74 P:24 SP:FB PPU:131
E440  BD 00 06  LDA A:55 X:55 Y:74 P:A4 SP:FB PPU:152
E443  20 21 FA  JSR A:AA X:55 Y:74 P:A4 SP:FB PPU:164
FA21  B0 0B     BCS A:AA X:55 Y:74 P:A4 SP:F9 PPU:182
FA23  F0 09     BEQ A:AA X:55 Y:74 P:A4 SP:F9 PPU:188
FA25  10 07     BPL A:AA X:55 Y:74 P:A4 SP:F9 PPU:194
FA27  70 05     BVS A:AA X:55 Y:74 P:A4 SP:F9 PPU:200
FA29  C9 AA     CMP A:AA X:55 Y:74 P:A4 SP:F9 PPU:206
FA2B  D0 01     BNE A:AA X:55 Y:74 P:27 SP:F9 PPU:212
FA2D  60        RTS A:AA X:55 Y:74 P:27 SP:F9 PPU:218
E446  A9 FF     LDA A:AA X:55 Y:74 P:27 SP:FB PPU:236
E448  9D 00 06  STA A:FF X:55 Y:74 P:A5 SP:FB PPU:242
E44B  85 01     STA A:FF X:55 Y:74 P:A5 SP:FB PPU:257
E44D  24 01     BIT A:FF X:55 Y:74 P:A5 SP:FB PPU:266
E44F  38        SEC A:FF X:55 Y:74 P:E5 SP:FB PPU:275
E450  FE 00 06  INC A:FF X:55 Y:74 P:E5 SP:FB PPU:281
E453  D0 0D     BNE A:FF X:55 Y:74 P:67 SP:FB PPU:302
E455  30 0B     BMI A:FF X:55 Y:74 P:67 SP:FB PPU:308
E457  50 09     BVC A:FF X:55 Y:74 P:67 SP:FB PPU:314
E459  90 07     BCC A:FF X:55 Y:74 P:67 SP:FB PPU:320
E45B  BD 00 06  LDA A:FF X:55 Y:74 P:67 SP:FB PPU:326
E45E  C9 00     CMP A:00 X:55 Y:74 P:67 SP:FB PPU:338
E460  F0 04     BEQ A:00 X:55 Y:74 P:67 SP:FB PPU:  3
E466  A9 7F     LDA A:00 X:55 Y:74 P:67 SP:FB PPU: 12
E468  9D 00 06  STA A:7F X:55 Y:74 P:65 SP:FB PPU: 18
E46B  B8        CLV A:7F X:55 Y:74 P:65 SP:FB PPU: 33
E46C  18        CLC A:7F X:55 Y:74 P:25 SP:FB PPU: 39
E46D  FE 00 06  INC A:7F X:55 Y:74 P:24 SP:FB PPU: 45
E470  F0 0D     BEQ A:7F X:55 Y:74 P:A4 SP:FB PPU: 66
E472  10 0B     BPL A:7F X:55 Y:74 P:A4 SP:FB PPU: 72
E474  70 09     BVS A:7F X:55 Y:74 P:A4 SP:FB PPU: 78
E476  B0 07     BCS A:7F X:55 Y:74 P:A4 SP:FB PPU: 84
E478  BD 00 06  LDA A:7F X:55 Y:74 P:A4 SP:FB PPU: 90
E47B  C9 80     CMP A:80 X:55 Y:74 P:A4 SP:FB PPU:102
E47D  F0 04     BEQ A:80 X:55 Y:74 P:27 SP:FB PPU:108
E483  A9 00     LDA A:80 X:55 Y:74 P:27 SP:FB PPU:117
E485  9D 00 06  STA A:00 X:55 Y:74 P:27 SP:FB PPU:123
E488  24 01     BIT A:00 X:55 Y:74 P:27 SP:FB PPU:138
E48A  38        SEC A:00 X:55 Y:74 P:E7 SP:FB PPU:147
E48B  DE 00 06  DEC A:00 X:55 Y:74 P:E7 SP:FB PPU:153
E48E  F0 0D     BEQ A:00 X:55 Y:74 P:E5 SP:FB PPU:174
E490  10 0B     BPL A:00 X:55 Y:74 P:E5 SP:FB PPU:180
E492  50 09     BVC A:00 X:55 Y:74 P:E5 SP:FB PPU:186
E494  90 07     BCC A:00 X:55 Y:74 P:E5 SP:FB PPU:192
E496  BD 00 06  LDA A:00 X:55 Y:74 P:E5 SP:FB PPU:198
E499  C9 FF     CMP A:FF X:55 Y:74 P:E5 SP:FB PPU:210
E49B  F0 04     BEQ A:FF X:55 Y:74 P:67 SP:FB PPU:216
E4A1  A9 80     LDA A:FF X:55 Y:74 P:67 SP:FB PPU:225
E4A3  9D 00 06  STA A:80 X:55 Y:74 P:E5 SP:FB PPU:231
E4A6  B8        CLV A:80 X:55 Y:74 P:E5 SP:FB PPU:246
E4A7  18        CLC A:80 X:55 Y:74 P:A5 SP:FB PPU:252
E4A8  DE 00 06  DEC A:80 X:55 Y:74 P:A4 SP:FB PPU:258
E4AB  F0 0D     BEQ A:80 X:55 Y:74 P:24 SP:FB PPU:279
E4AD  30 0B     BMI A:80 X:55 Y:74 P:24 SP:FB PPU:285
E4AF  70 09     BVS A:80 X:55 Y:74 P:24 SP:FB PPU:291
E4B1  B0 07     BCS A:80 X:55 Y:74 P:24 SP:FB PPU:297
E4B3  BD 00 06  LDA A:80 X:55 Y:74 P:24 SP:FB PPU:303
E4B6  C9 7F     CMP A:7F X:55 Y:74 P:24 SP:FB PPU:315
E4B8  F0 04     BEQ A:7F X:55 Y:74 P:27 SP:FB PPU:321
E4BE  A9 01     LDA A:7F X:55 Y:74 P:27 SP:FB PPU:330
E4C0  9D 00 06  STA A:01 X:55 Y:74 P:25 SP:FB PPU:336
E4C3  DE 00 06  DEC A:01 X:55 Y:74 P:25 SP:FB PPU: 10
E4C6  F0 04     BEQ A:01 X:55 Y:74 P:27 SP:FB PPU: 31
E4CC  A9 33     LDA A:01 X:55 Y:74 P:27 SP:FB PPU: 40
E4CE  8D 78 06  STA A:33 X:55 Y:74 P:25 SP:FB PPU: 46
E4D1  A9 44     LDA A:33 X:55 Y:74 P:25 SP:FB PPU: 58
E4D3  A0 78     LDY A:44 X:55 Y:74 P:25 SP:FB PPU: 64
E4D5  A2 00     LDX A:44 X:55 Y:78 P:25 SP:FB PPU: 70
E4D7  38        SEC A:44 X:00 Y:78 P:27 SP:FB PPU: 76
E4D8  24 01     BIT A:44 X:00 Y:78 P:27 SP:FB PPU: 82
E4DA  BE 00 06  LDX A:44 X:00 Y:78 P:E5 SP:FB PPU: 91
E4DD  90 12     BCC A:44 X:33 Y:78 P:65 SP:FB PPU:103
E4DF  50 10     BVC A:44 X:33 Y:78 P:65 SP:FB PPU:109
E4E1  30 0E     BMI A:44 X:33 Y:78 P:65 SP:FB PPU:115
E4E3  F0 0C     BEQ A:44 X:33 Y:78 P:65 SP:FB PPU:121
E4E5  E0 33     CPX A:44 X:33 Y:78 P:65 SP:FB PPU:127
E4E7  D0 08     BNE A:44 X:33 Y:78 P:67 SP:FB PPU:133
E4E9  C0 78     CPY A:44 X:33 Y:78 P:67 SP:FB PPU:139
E4EB  D0 04     BNE A:44 X:33 Y:78 P:67 SP:FB PPU:145
E4ED  C9 44     CMP A:44 X:33 Y:78 P:67 SP:FB PPU:151
E4EF  F0 04     BEQ A:44 X:33 Y:78 P:67 SP:FB PPU:157
E4F5  A9 97     LDA A:44 X:33 Y:78 P:67 SP:FB PPU:166
E4F7  8D 7F 06  STA A:97 X:33 Y:78 P:E5 SP:FB PPU:172
E4FA  A9 47     LDA A:97 X:33 Y:78 P:E5 SP:FB PPU:184
E4FC  A0 FF     LDY A:47 X:33 Y:78 P:65 SP:FB PPU:190
E4FE  A2 00     LDX A:47 X:33 Y:FF P:E5 SP:FB PPU:196
E500  18        CLC A:47 X:00 Y:FF P:67 SP:FB PPU:202
E501  B8        CLV A:47 X:00 Y:FF P:66 SP:FB PPU:208
E502  BE 80 05  LDX A:47 X:00 Y:FF P:26 SP:FB PPU:214
E505  B0 12     BCS A:47 X:97 Y:FF P:A4 SP:FB PPU:229
E507  70 10     BVS A:47 X:97 Y:FF P:A4 SP:FB PPU:235
E509  10 0E     BPL A:47 X:97 Y:FF P:A4 SP:FB PPU:241
E50B  F0 0C     BEQ A:47 X:97 Y:FF P:A4 SP:FB PPU:247
E50D  E0 97     CPX A:47 X:97 Y:FF P:A4 SP:FB PPU:253
E50F  D0 08     BNE A:47 X:97 Y:FF P:27 SP:FB PPU:259
E511  C0 FF     CPY A:47 X:97 Y:FF P:27 SP:FB PPU:265
E513  D0 04     BNE A:47 X:97 Y:FF P:27 SP:FB PPU:271
E515  C9 47     CMP A:47 X:97 Y:FF P:27 SP:FB PPU:277
E517  F0 04     BEQ A:47 X:97 Y:FF P:27 SP:FB PPU:283
E51D  60        RTS A:47 X:97 Y:FF P:27 SP:FB PPU:292
C62F  20 A3 C6  JSR A:47 X:97 Y:FF P:27 SP:FD PPU:310
C6A3  A0 4E     LDY A:47 X:97 Y:FF P:27 SP:FB PPU:328
C6A5  A9 FF     LDA A:47 X:97 Y:4E P:25 SP:FB PPU:334
C6A7  85 01     STA A:FF X:97 Y:4E P:A5 SP:FB PPU:340
C6A9  20 B0 C6  JSR A:FF X:97 Y:4E P:A5 SP:FB PPU:  8
C6B0  A9 FF     LDA A:FF X:97 Y:4E P:A5 SP:F9 PPU: 26
C6B2  48        PHA A:FF X:97 Y:4E P:A5 SP:F9 PPU: 32
C6B3  A9 AA     LDA A:FF X:97 Y:4E P:A5 SP:F8 PPU: 41
C6B5  D0 05     BNE A:AA X:97 Y:4E P:A5 SP:F8 PPU: 47
C6BC  28        PLP A:AA X:97 Y:4E P:A5 SP:F8 PPU: 56
C6BD  04 A9     NOP A:AA X:97 Y:4E P:EF SP:F9 PPU: 68
C6BF  44 A9     NOP A:AA X:97 Y:4E P:EF SP:F9 PPU: 77
C6C1  64 A9     NOP A:AA X:97 Y:4E P:EF SP:F9 PPU: 86
C6C3  EA        NOP A:AA X:97 Y:4E P:EF SP:F9 PPU: 95
C6C4  EA        NOP A:AA X:97 Y:4E P:EF SP:F9 PPU:101
C6C5  EA        NOP A:AA X:97 Y:4E P:EF SP:F9 PPU:107
C6C6  EA        NOP A:AA X:97 Y:4E P:EF SP:F9 PPU:113
C6C7  08        PHP A:AA X:97 Y:4E P:EF SP:F9 PPU:119
C6C8  48        PHA A:AA X:97 Y:4E P:EF SP:F8 PPU:128
C6C9  0C A9 A9  NOP A:AA X:97 Y:4E P:EF SP:F7 PPU:137
C6CC  EA        NOP A:AA X:97 Y:4E P:EF SP:F7 PPU:149
C6CD  EA        NOP A:AA X:97 Y:4E P:EF SP:F7 PPU:155
C6CE  EA        NOP A:AA X:97 Y:4E P:EF SP:F7 PPU:161
C6CF  EA        NOP A:AA X:97 Y:4E P:EF SP:F7 PPU:167
C6D0  08        PHP A:AA X:97 Y:4E P:EF SP:F7 PPU:173
C6D1  48        PHA A:AA X:97 Y:4E P:EF SP:F6 PPU:182
C6D2  14 A9     NOP A:AA X:97 Y:4E P:EF SP:F5 PPU:191
C6D4  34 A9     NOP A:AA X:97 Y:4E P:EF SP:F5 PPU:203
C6D6  54 A9     NOP A:AA X:97 Y:4E P:EF SP:F5 PPU:215
C6D8  74 A9     NOP A:AA X:97 Y:4E P:EF SP:F5 PPU:227
C6DA  D4 A9     NOP A:AA X:97 Y:4E P:EF SP:F5 PPU:239
C6DC  F4 A9     NOP A:AA X:97 Y:4E P:EF SP:F5 PPU:251
C6DE  EA        NOP A:AA X:97 Y:4E P:EF SP:F5 PPU:263
C6DF  EA        NOP A:AA X:97 Y:4E P:EF SP:F5 PPU:269
C6E0  EA        NOP A:AA X:97 Y:4E P:EF SP:F5 PPU:275
C6E1  EA        NOP A:AA X:97 Y:4E P:EF SP:F5 PPU:281
C6E2  08        PHP A:AA X:97 Y:4E P:EF SP:F5 PPU:287
C6E3  48        PHA A:AA X:97 Y:4E P:EF SP:F4 PPU:296
C6E4  1A        NOP A:AA X:97 Y:4E P:EF SP:F3 PPU:305
C6E5  3A        NOP A:AA X:97 Y:4E P:EF SP:F3 PPU:311
C6E6  5A        NOP A:AA X:97 Y:4E P:EF SP:F3 PPU:317
C6E7  7A        NOP A:AA X:97 Y:4E P:EF SP:F3 PPU:323
C6E8  DA        NOP A:AA X:97 Y:4E P:EF SP:F3 PPU:329
C6E9  FA        NOP A:AA X:97 Y:4E P:EF SP:F3 PPU:335
C6EA  80 89     NOP A:AA X:97 Y:4E P:EF SP:F3 PPU:  0
C6EC  EA        NOP A:AA X:97 Y:4E P:EF SP:F3 PPU:  6
C6ED  EA        NOP A:AA X:97 Y:4E P:EF SP:F3 PPU: 12
C6EE  EA        NOP A:AA X:97 Y:4E P:EF SP:F3 PPU: 18
C6EF  EA        NOP A:AA X:97 Y:4E P:EF SP:F3 PPU: 24
C6F0  08        PHP A:AA X:97 Y:4E P:EF SP:F3 PPU: 30
C6F1  48        PHA A:AA X:97 Y:4E P:EF SP:F2 PPU: 39
C6F2  1C A9 A9  NOP A:AA X:97 Y:4E P:EF SP:F1 PPU: 48
C6F5  3C A9 A9  NOP A:AA X:97 Y:4E P:EF SP:F1 PPU: 63
C6F8  5C A9 A9  NOP A:AA X:97 Y:4E P:EF SP:F1 PPU: 78
C6FB  7C A9 A9  NOP A:AA X:97 Y:4E P:EF SP:F1 PPU: 93
C6FE  DC A9 A9  NOP A:AA X:97 Y:4E P:EF SP:F1 PPU:108
C701  FC A9 A9  NOP A:AA X:97 Y:4E P:EF SP:F1 PPU:123
C704  EA        NOP A:AA X:97 Y:4E P:EF SP:F1 PPU:138
C705  EA        NOP A:AA X:97 Y:4E P:EF SP:F1 PPU:144
C706  EA        NOP A:AA X:97 Y:4E P:EF SP:F1 PPU:150
C707  EA        NOP A:AA X:97 Y:4E P:EF SP:F1 PPU:156
C708  08        PHP A:AA X:97 Y:4E P:EF SP:F1 PPU:162
C709  48        PHA A:AA X:97 Y:4E P:EF SP:F0 PPU:171
C70A  A2 05     LDX A:AA X:97 Y:4E P:EF SP:EF PPU:180
C70C  68        PLA A:AA X:05 Y:4E P:6D SP:EF PPU:186
C70D  C9 55     CMP A:AA X:05 Y:4E P:ED SP:F0 PPU:198
C70F  F0 0A     BEQ A:AA X:05 Y:4E P:6D SP:F0 PPU:204
C711  C9 AA     CMP A:AA X:05 Y:4E P:6D SP:F0 PPU:210
C713  F0 06     BEQ A:AA X:05 Y:4E P:6F SP:F0 PPU:216
C71B  68        PLA A:AA X:05 Y:4E P:6F SP:F0 PPU:225
C71C  29 CB     AND A:FF X:05 Y:4E P:ED SP:F1 PPU:237
C71E  C9 00     CMP A:CB X:05 Y:4E P:ED SP:F1 PPU:243
C720  F0 06     BEQ A:CB X:05 Y:4E P:ED SP:F1 PPU:249
C722  C9 CB     CMP A:CB X:05 Y:4E P:ED SP:F1 PPU:255
C724  F0 02     BEQ A:CB X:05 Y:4E P:6F SP:F1 PPU:261
C728  C8        INY A:CB X:05 Y:4E P:6F SP:F1 PPU:270
C729  CA        DEX A:CB X:05 Y:4F P:6D SP:F1 PPU:276
C72A  D0 E0     BNE A:CB X:04 Y:4F P:6D SP:F1 PPU:282
C70C  68        PLA A:CB X:04 Y:4F P:6D SP:F1 PPU:291
C70D  C9 55     CMP A:AA X:04 Y:4F P:ED SP:F2 PPU:303
C70F  F0 0A     BEQ A:AA X:04 Y:4F P:6D SP:F2 PPU:309
C711  C9 AA     CMP A:AA X:04 Y:4F P:6D SP:F2 PPU:315
C713  F0 06     BEQ A:AA X:04 Y:4F P:6F SP:F2 PPU:321
C71B  68        PLA A:AA X:04 Y:4F P:6F SP:F2 PPU:330
C71C  29 CB     AND A:FF X:04 Y:4F P:ED SP:F3 PPU:  1
C71E  C9 00     CMP A:CB X:04 Y:4F P:ED SP:F3 PPU:  7
C720  F0 06     BEQ A:CB X:04 Y:4F P:ED SP:F3 PPU: 13
C722  C9 CB     CMP A:CB X:04 Y:4F P:ED SP:F3 PPU: 19
C724  F0 02     BEQ A:CB X:04 Y:4F P:6F SP:F3 PPU: 25
C728  C8        INY A:CB X:04 Y:4F P:6F SP:F3 PPU: 34
C729  CA        DEX A:CB X:04 Y:50 P:6D SP:F3 PPU: 40
C72A  D0 E0     BNE A:CB X:03 Y:50 P:6D SP:F3 PPU: 46
C70C  68        PLA A:CB X:03 Y:50 P:6D SP:F3 PPU: 55
C70D  C9 55     CMP A:AA X:03 Y:50 P:ED SP:F4 PPU: 67
C70F  F0 0A     BEQ A:AA X:03 Y:50 P:6D SP:F4 PPU: 73
C711  C9 AA     CMP A:AA X:03 Y:50 P:6D SP:F4 PPU: 79
C713  F0 06     BEQ A:AA X:03 Y:50 P:6F SP:F4 PPU: 85
C71B  68        PLA A:AA X:03 Y:50 P:6F SP:F4 PPU: 94
C71C  29 CB     AND A:FF X:03 Y:50 P:ED SP:F5 PPU:106
C71E  C9 00     CMP A:CB X:03 Y:50 P:ED SP:F5 PPU:112
C720  F0 06     BEQ A:CB X:03 Y:50 P:ED SP:F5 PPU:118
C722  C9 CB     CMP A:CB X:03 Y:50 P:ED SP:F5 PPU:124
C724  F0 02     BEQ A:CB X:03 Y:50 P:6F SP:F5 PPU:130
C728  C8        INY A:CB X:03 Y:50 P:6F SP:F5 PPU:139
C729  CA        DEX A:CB X:03 Y:51 P:6D SP:F5 PPU:145
C72A  D0 E0     BNE A:CB X:02 Y:51 P:6D SP:F5 PPU:151
C70C  68        PLA A:CB X:02 Y:51 P:6D SP:F5 PPU:160
C70D  C9 55     CMP A:AA X:02 Y:51 P:ED SP:F6 PPU:172
C70F  F0 0A     BEQ A:AA X:02 Y:51 P:6D SP:F6 PPU:178
C711  C9 AA     CMP A:AA X:02 Y:51 P:6D SP:F6 PPU:184
C713  F0 06     BEQ A:AA X:02 Y:51 P:6F SP:F6 PPU:190
C71B  68        PLA A:AA X:02 Y:51 P:6F SP:F6 PPU:199
C71C  29 CB     AND A:FF X:02 Y:51 P:ED SP:F7 PPU:211
C71E  C9 00     CMP A:CB X:02 Y:51 P:ED SP:F7 PPU:217
C720  F0 06     BEQ A:CB X:02 Y:51 P:ED SP:F7 PPU:223
C722  C9 CB     CMP A:CB X:02 Y:51 P:ED SP:F7 PPU:229
C724  F0 02     BEQ A:CB X:02 Y:51 P:6F SP:F7 PPU:235
C728  C8        INY A:CB X:02 Y:51 P:6F SP:F7 PPU:244
C729  CA        DEX A:CB X:02 Y:52 P:6D SP:F7 PPU:250
C72A  D0 E0     BNE A:CB X:01 Y:52 P:6D SP:F7 PPU:256
C70C  68        PLA A:CB X:01 Y:52 P:6D SP:F7 PPU:265
C70D  C9 55     CMP A:AA X:01 Y:52 P:ED SP:F8 PPU:277
C70F  F0 0A     BEQ A:AA X:01 Y:52 P:6D SP:F8 PPU:283
C711  C9 AA     CMP A:AA X:01 Y:52 P:6D SP:F8 PPU:289
C713  F0 06     BEQ A:AA X:01 Y:52 P:6F SP:F8 PPU:295
C71B  68        PLA A:AA X:01 Y:52 P:6F SP:F8 PPU:304
C71C  29 CB     AND A:FF X:01 Y:52 P:ED SP:F9 PPU:316
C71E  C9 00     CMP A:CB X:01 Y:52 P:ED SP:F9 PPU:322
C720  F0 06     BEQ A:CB X:01 Y:52 P:ED SP:F9 PPU:328
C722  C9 CB     CMP A:CB X:01 Y:52 P:ED SP:F9 PPU:334
C724  F0 02     BEQ A:CB X:01 Y:52 P:6F SP:F9 PPU:340
C728  C8        INY A:CB X:01 Y:52 P:6F SP:F9 PPU:  8
C729  CA        DEX A:CB X:01 Y:53 P:6D SP:F9 PPU: 14
C72A  D0 E0     BNE A:CB X:00 Y:53 P:6F SP:F9 PPU: 20
C72C  60        RTS A:CB X:00 Y:53 P:6F SP:F9 PPU: 26
C6AC  20 B7 C6  JSR A:CB X:00 Y:53 P:6F SP:FB PPU: 44
C6B7  A9 34     LDA A:CB X:00 Y:53 P:6F SP:F9 PPU: 62
C6B9  48        PHA A:34 X:00 Y:53 P:6D SP:F9 PPU: 68
C6BA  A9 55     LDA A:34 X:00 Y:53 P:6D SP:F8 PPU: 77
C6BC  28        PLP A:55 X:00 Y:53 P:6D SP:F8 PPU: 83
C6BD  04 A9     NOP A:55 X:00 Y:53 P:24 SP:F9 PPU: 95
C6BF  44 A9     NOP A:55 X:00 Y:53 P:24 SP:F9 PPU:104
C6C1  64 A9     NOP A:55 X:00 Y:53 P:24 SP:F9 PPU:113
C6C3  EA        NOP A:55 X:00 Y:53 P:24 SP:F9 PPU:122
C6C4  EA        NOP A:55 X:00 Y:53 P:24 SP:F9 PPU:128
C6C5  EA        NOP A:55 X:00 Y:53 P:24 SP:F9 PPU:134
C6C6  EA        NOP A:55 X:00 Y:53 P:24 SP:F9 PPU:140
C6C7  08        PHP A:55 X:00 Y:53 P:24 SP:F9 PPU:146
C6C8  48        PHA A:55 X:00 Y:53 P:24 SP:F8 PPU:155
C6C9  0C A9 A9  NOP A:55 X:00 Y:53 P:24 SP:F7 PPU:164
C6CC  EA        NOP A:55 X:00 Y:53 P:24 SP:F7 PPU:176
C6CD  EA        NOP A:55 X:00 Y:53 P:24 SP:F7 PPU:182
C6CE  EA        NOP A:55 X:00 Y:53 P:24 SP:F7 PPU:188
C6CF  EA        NOP A:55 X:00 Y:53 P:24 SP:F7 PPU:194
C6D0  08        PHP A:55 X:00 Y:53 P:24 SP:F7 PPU:200
C6D1  48        PHA A:55 X:00 Y:53 P:24 SP:F6 PPU:209
C6D2  14 A9     NOP A:55 X:00 Y:53 P:24 SP:F5 PPU:218
C6D4  34 A9     NOP A:55 X:00 Y:53 P:24 SP:F5 PPU:230
C6D6  54 A9     NOP A:55 X:00 Y:53 P:24 SP:F5 PPU:242
C6D8  74 A9     NOP A:55 X:00 Y:53 P:24 SP:F5 PPU:254
C6DA  D4 A9     NOP A:55 X:00 Y:53 P:24 SP:F5 PPU:266
C6DC  F4 A9     NOP A:55 X:00 Y:53 P:24 SP:F5 PPU:278
C6DE  EA        NOP A:55 X:00 Y:53 P:24 SP:F5 PPU:290
C6DF  EA        NOP A:55 X:00 Y:53 P:24 SP:F5 PPU:296
C6E0  EA        NOP A:55 X:00 Y:53 P:24 SP:F5 PPU:302
C6E1  EA        NOP A:55 X:00 Y:53 P:24 SP:F5 PPU:308
C6E2  08        PHP A:55 X:00 Y:53 P:24 SP:F5 PPU:314
C6E3  48        PHA A:55 X:00 Y:53 P:24 SP:F4 PPU:323
C6E4  1A        NOP A:55 X:00 Y:53 P:24 SP:F3 PPU:332
C6E5  3A        NOP A:55 X:00 Y:53 P:24 SP:F3 PPU:338
C6E6  5A        NOP A:55 X:00 Y:53 P:24 SP:F3 PPU:  3
C6E7  7A        NOP A:55 X:00 Y:53 P:24 SP:F3 PPU:  9
C6E8  DA        NOP A:55 X:00 Y:53 P:24 SP:F3 PPU: 15
C6E9  FA        NOP A:55 X:00 Y:53 P:24 SP:F3 PPU: 21
C6EA  80 89     NOP A:55 X:00 Y:53 P:24 SP:F3 PPU: 27
C6EC  EA        NOP A:55 X:00 Y:53 P:24 SP:F3 PPU: 33
C6ED  EA        NOP A:55 X:00 Y:53 P:24 SP:F3 PPU: 39
C6EE  EA        NOP A:55 X:00 Y:53 P:24 SP:F3 PPU: 45
C6EF  EA        NOP A:55 X:00 Y:53 P:24 SP:F3 PPU: 51
C6F0  08        PHP A:55 X:00 Y:53 P:24 SP:F3 PPU: 57
C6F1  48        PHA A:55 X:00 Y:53 P:24 SP:F2 PPU: 66
C6F2  1C A9 A9  NOP A:55 X:00 Y:53 P:24 SP:F1 PPU: 75
C6F5  3C A9 A9  NOP A:55 X:00 Y:53 P:24 SP:F1 PPU: 87
C6F8  5C A9 A9  NOP A:55 X:00 Y:53 P:24 SP:F1 PPU: 99
C6FB  7C A9 A9  NOP A:55 X:00 Y:53 P:24 SP:F1 PPU:111
C6FE  DC A9 A9  NOP A:55 X:00 Y:53 P:24 SP:F1 PPU:123
C701  FC A9 A9  NOP A:55 X:00 Y:53 P:24 SP:F1 PPU:135
C704  EA        NOP A:55 X:00 Y:53 P:24 SP:F1 PPU:147
C705  EA        NOP A:55 X:00 Y:53 P:24 SP:F1 PPU:153
C706  EA        NOP A:55 X:00 Y:53 P:24 SP:F1 PPU:159
C707  EA        NOP A:55 X:00 Y:53 P:24 SP:F1 PPU:165
C708  08        PHP A:55 X:00 Y:53 P:24 SP:F1 PPU:171
C709  48        PHA A:55 X:00 Y:53 P:24 SP:F0 PPU:180
C70A  A2 05     LDX A:55 X:00 Y:53 P:24 SP:EF PPU:189
C70C  68        PLA A:55 X:05 Y:53 P:24 SP:EF PPU:195
C70D  C9 55     CMP A:55 X:05 Y:53 P:24 SP:F0 PPU:207
C70F  F0 0A     BEQ A:55 X:05 Y:53 P:27 SP:F0 PPU:213
C71B  68        PLA A:55 X:05 Y:53 P:27 SP:F0 PPU:222
C71C  29 CB     AND A:34 X:05 Y:53 P:25 SP:F1 PPU:234
C71E  C9 00     CMP A:00 X:05 Y:53 P:27 SP:F1 PPU:240
C720  F0 06     BEQ A:00 X:05 Y:53 P:27 SP:F1 PPU:246
C728  C8        INY A:00 X:05 Y:53 P:27 SP:F1 PPU:255
C729  CA        DEX A:00 X:05 Y:54 P:25 SP:F1 PPU:261
C72A  D0 E0     BNE A:00 X:04 Y:54 P:25 SP:F1 PPU:267
C70C  68        PLA A:00 X:04 Y:54 P:25 SP:F1 PPU:276
C70D  C9 55     CMP A:55 X:04 Y:54 P:25 SP:F2 PPU:288
C70F  F0 0A     BEQ A:55 X:04 Y:54 P:27 SP:F2 PPU:294
C71B  68        PLA A:55 X:04 Y:54 P:27 SP:F2 PPU:303
C71C  29 CB     AND A:34 X:04 Y:54 P:25 SP:F3 PPU:315
C71E  C9 00     CMP A:00 X:04 Y:54 P:27 SP:F3 PPU:321
C720  F0 06     BEQ A:00 X:04 Y:54 P:27 SP:F3 PPU:327
C728  C8        INY A:00 X:04 Y:54 P:27 SP:F3 PPU:336
C729  CA        DEX A:00 X:04 Y:55 P:25 SP:F3 PPU:  1
C72A  D0 E0     BNE A:00 X:03 Y:55 P:25 SP:F3 PPU:  7
C70C  68        PLA A:00 X:03 Y:55 P:25 SP:F3 PPU: 16
C70D  C9 55     CMP A:55 X:03 Y:55 P:25 SP:F4 PPU: 28
C70F  F0 0A     BEQ A:55 X:03 Y:55 P:27 SP:F4 PPU: 34
C71B  68        PLA A:55 X:03 Y:55 P:27 SP:F4 PPU: 43
C71C  29 CB     AND A:34 X:03 Y:55 P:25 SP:F5 PPU: 55
C71E  C9 00     CMP A:00 X:03 Y:55 P:27 SP:F5 PPU: 61
C720  F0 06     BEQ A:00 X:03 Y:55 P:27 SP:F5 PPU: 67
C728  C8        INY A:00 X:03 Y:55 P:27 SP:F5 PPU: 76
C729  CA        DEX A:00 X:03 Y:56 P:25 SP:F5 PPU: 82
C72A  D0 E0     BNE A:00 X:02 Y:56 P:25 SP:F5 PPU: 88
C70C  68        PLA A:00 X:02 Y:56 P:25 SP:F5 PPU: 97
C70D  C9 55     CMP A:55 X:02 Y:56 P:25 SP:F6 PPU:109
C70F  F0 0A     BEQ A:55 X:02 Y:56 P:27 SP:F6 PPU:115
C71B  68        PLA A:55 X:02 Y:56 P:27 SP:F6 PPU:124
C71C  29 CB     AND A:34 X:02 Y:56 P:25 SP:F7 PPU:136
C71E  C9 00     CMP A:00 X:02 Y:56 P:27 SP:F7 PPU:142
C720  F0 06     BEQ A:00 X:02 Y:56 P:27 SP:F7 PPU:148
C728  C8        INY A:00 X:02 Y:56 P:27 SP:F7 PPU:157
C729  CA        DEX A:00 X:02 Y:57 P:25 SP:F7 PPU:163
C72A  D0 E0     BNE A:00 X:01 Y:57 P:25 SP:F7 PPU:169
C70C  68        PLA A:00 X:01 Y:57 P:25 SP:F7 PPU:178
C70D  C9 55     CMP A:55 X:01 Y:57 P:25 SP:F8 PPU:190
C70F  F0 0A     BEQ A:55 X:01 Y:57 P:27 SP:F8 PPU:196
C71B  68        PLA A:55 X:01 Y:57 P:27 SP:F8 PPU:205
C71C  29 CB     AND A:34 X:01 Y:57 P:25 SP:F9 PPU:217
C71E  C9 00     CMP A:00 X:01 Y:57 P:27 SP:F9 PPU:223
C720  F0 06     BEQ A:00 X:01 Y:57 P:27 SP:F9 PPU:229
C728  C8        INY A:00 X:01 Y:57 P:27 SP:F9 PPU:238
C729  CA        DEX A:00 X:01 Y:58 P:25 SP:F9 PPU:244
C72A  D0 E0     BNE A:00 X:00 Y:58 P:27 SP:F9 PPU:250
C72C  60        RTS A:00 X:00 Y:58 P:27 SP:F9 PPU:256
C6AF  60        RTS A:00 X:00 Y:58 P:27 SP:FB PPU:274
C632  20 1E E5  JSR A:00 X:00 Y:58 P:27 SP:FD PPU:292
E51E  A9 55     LDA A:00 X:00 Y:58 P:27 SP:FB PPU:310
E520  8D 80 05  STA A:55 X:00 Y:58 P:25 SP:FB PPU:316
E523  A9 AA     LDA A:55 X:00 Y:58 P:25 SP:FB PPU:328
E525  8D 32 04  STA A:AA X:00 Y:58 P:A5 SP:FB PPU:334
E528  A9 80     LDA A:AA X:00 Y:58 P:A5 SP:FB PPU:  5
E52A  85 43     STA A:80 X:00 Y:58 P:A5 SP:FB PPU: 11
E52C  A9 05     LDA A:80 X:00 Y:58 P:A5 SP:FB PPU: 20
E52E  85 44     STA A:05 X:00 Y:58 P:25 SP:FB PPU: 26
E530  A9 32     LDA A:05 X:00 Y:58 P:25 SP:FB PPU: 35
E532  85 45     STA A:32 X:00 Y:58 P:25 SP:FB PPU: 41
E534  A9 04     LDA A:32 X:00 Y:58 P:25 SP:FB PPU: 50
E536  85 46     STA A:04 X:00 Y:58 P:25 SP:FB PPU: 56
E538  A2 03     LDX A:04 X:00 Y:58 P:25 SP:FB PPU: 65
E53A  A0 77     LDY A:04 X:03 Y:58 P:25 SP:FB PPU: 71
E53C  A9 FF     LDA A:04 X:03 Y:77 P:25 SP:FB PPU: 77
E53E  85 01     STA A:FF X:03 Y:77 P:A5 SP:FB PPU: 83
E540  24 01     BIT A:FF X:03 Y:77 P:A5 SP:FB PPU: 92
E542  38        SEC A:FF X:03 Y:77 P:E5 SP:FB PPU:101
E543  A9 00     LDA A:FF X:03 Y:77 P:E5 SP:FB PPU:107
E545  A3 40     LAX A:00 X:03 Y:77 P:67 SP:FB PPU:113
E547  EA        NOP A:55 X:55 Y:77 P:65 SP:FB PPU:131
E548  EA        NOP A:55 X:55 Y:77 P:65 SP:FB PPU:137
E549  EA        NOP A:55 X:55 Y:77 P:65 SP:FB PPU:143
E54A  EA        NOP A:55 X:55 Y:77 P:65 SP:FB PPU:149
E54B  F0 12     BEQ A:55 X:55 Y:77 P:65 SP:FB PPU:155
E54D  30 10     BMI A:55 X:55 Y:77 P:65 SP:FB PPU:161
E54F  50 0E     BVC A:55 X:55 Y:77 P:65 SP:FB PPU:167
E551  90 0C     BCC A:55 X:55 Y:77 P:65 SP:FB PPU:173
E553  C9 55     CMP A:55 X:55 Y:77 P:65 SP:FB PPU:179
E555  D0 08     BNE A:55 X:55 Y:77 P:67 SP:FB PPU:185
E557  E0 55     CPX A:55 X:55 Y:77 P:67 SP:FB PPU:191
E559  D0 04     BNE A:55 X:55 Y:77 P:67 SP:FB PPU:197
E55B  C0 77     CPY A:55 X:55 Y:77 P:67 SP:FB PPU:203
E55D  F0 04     BEQ A:55 X:55 Y:77 P:67 SP:FB PPU:209
E563  A2 05     LDX A:55 X:55 Y:77 P:67 SP:FB PPU:218
E565  A0 33     LDY A:55 X:05 Y:77 P:65 SP:FB PPU:224
E567  B8        CLV A:55 X:05 Y:33 P:65 SP:FB PPU:230
E568  18        CLC A:55 X:05 Y:33 P:25 SP:FB PPU:236
E569  A9 00     LDA A:55 X:05 Y:33 P:24 SP:FB PPU:242
E56B  A3 40     LAX A:00 X:05 Y:33 P:26 SP:FB PPU:248
E56D  EA        NOP A:AA X:AA Y:33 P:A4 SP:FB PPU:266
E56E  EA        NOP A:AA X:AA Y:33 P:A4 SP:FB PPU:272
E56F  EA        NOP A:AA X:AA Y:33 P:A4 SP:FB PPU:278
E570  EA        NOP A:AA X:AA Y:33 P:A4 SP:FB PPU:284
E571  F0 12     BEQ A:AA X:AA Y:33 P:A4 SP:FB PPU:290
E573  10 10     BPL A:AA X:AA Y:33 P:A4 SP:FB PPU:296
E575  70 0E     BVS A:AA X:AA Y:33 P:A4 SP:FB PPU:302
E577  B0 0C     BCS A:AA X:AA Y:33 P:A4 SP:FB PPU:308
E579  C9 AA     CMP A:AA X:AA Y:33 P:A4 SP:FB PPU:314
E57B  D0 08     BNE A:AA X:AA Y:33 P:27 SP:FB PPU:320
E57D  E0 AA     CPX A:AA X:AA Y:33 P:27 SP:FB PPU:326
E57F  D0 04     BNE A:AA X:AA Y:33 P:27 SP:FB PPU:332
E581  C0 33     CPY A:AA X:AA Y:33 P:27 SP:FB PPU:338
E583  F0 04     BEQ A:AA X:AA Y:33 P:27 SP:FB PPU:  3
E589  A9 87     LDA A:AA X:AA Y:33 P:27 SP:FB PPU: 12
E58B  85 67     STA A:87 X:AA Y:33 P:A5 SP:FB PPU: 18
E58D  A9 32     LDA A:87 X:AA Y:33 P:A5 SP:FB PPU: 27
E58F  85 68     STA A:32 X:AA Y:33 P:25 SP:FB PPU: 33
E591  A0 57     LDY A:32 X:AA Y:33 P:25 SP:FB PPU: 42
E593  24 01     BIT A:32 X:AA Y:57 P:25 SP:FB PPU: 48
E595  38        SEC A:32 X:AA Y:57 P:E5 SP:FB PPU: 57
E596  A9 00     LDA A:32 X:AA Y:57 P:E5 SP:FB PPU: 63
E598  A7 67     LAX A:00 X:AA Y:57 P:67 SP:FB PPU: 69
E59A  EA        NOP A:87 X:87 Y:57 P:E5 SP:FB PPU: 78
E59B  EA        NOP A:87 X:87 Y:57 P:E5 SP:FB PPU: 84
E59C  EA        NOP A:87 X:87 Y:57 P:E5 SP:FB PPU: 90
E59D  EA        NOP A:87 X:87 Y:57 P:E5 SP:FB PPU: 96
E59E  F0 12     BEQ A:87 X:87 Y:57 P:E5 SP:FB PPU:102
E5A0  10 10     BPL A:87 X:87 Y:57 P:E5 SP:FB PPU:108
E5A2  50 0E     BVC A:87 X:87 Y:57 P:E5 SP:FB PPU:114
E5A4  90 0C     BCC A:87 X:87 Y:57 P:E5 SP:FB PPU:120
E5A6  C9 87     CMP A:87 X:87 Y:57 P:E5 SP:FB PPU:126
E5A8  D0 08     BNE A:87 X:87 Y:57 P:67 SP:FB PPU:132
E5AA  E0 87     CPX A:87 X:87 Y:57 P:67 SP:FB PPU:138
E5AC  D0 04     BNE A:87 X:87 Y:57 P:67 SP:FB PPU:144
E5AE  C0 57     CPY A:87 X:87 Y:57 P:67 SP:FB PPU:150
E5B0  F0 04     BEQ A:87 X:87 Y:57 P:67 SP:FB PPU:156
E5B6  A0 53     LDY A:87 X:87 Y:57 P:67 SP:FB PPU:165
E5B8  B8        CLV A:87 X:87 Y:53 P:65 SP:FB PPU:171
E5B9  18        CLC A:87 X:87 Y:53 P:25 SP:FB PPU:177
E5BA  A9 00     LDA A:87 X:87 Y:53 P:24 SP:FB PPU:183
E5BC  A7 68     LAX A:00 X:87 Y:53 P:26 SP:FB PPU:189
E5BE  EA        NOP A:32 X:32 Y:53 P:24 SP:FB PPU:198
E5BF  EA        NOP A:32 X:32 Y:53 P:24 SP:FB PPU:204
E5C0  EA        NOP A:32 X:32 Y:53 P:24 SP:FB PPU:210
E5C1  EA        NOP A:32 X:32 Y:53 P:24 SP:FB PPU:216
E5C2  F0 12     BEQ A:32 X:32 Y:53 P:24 SP:FB PPU:222
E5C4  30 10     BMI A:32 X:32 Y:53 P:24 SP:FB PPU:228
E5C6  70 0E     BVS A:32 X:32 Y:53 P:24 SP:FB PPU:234
E5C8  B0 0C     BCS A:32 X:32 Y:53 P:24 SP:FB PPU:240
E5CA  C9 32     CMP A:32 X:32 Y:53 P:24 SP:FB PPU:246
E5CC  D0 08     BNE A:32 X:32 Y:53 P:27 SP:FB PPU:252
E5CE  E0 32     CPX A:32 X:32 Y:53 P:27 SP:FB PPU:258
E5D0  D0 04     BNE A:32 X:32 Y:53 P:27 SP:FB PPU:264
E5D2  C0 53     CPY A:32 X:32 Y:53 P:27 SP:FB PPU:270
E5D4  F0 04     BEQ A:32 X:32 Y:53 P:27 SP:FB PPU:276
E5DA  A9 87     LDA A:32 X:32 Y:53 P:27 SP:FB PPU:285
E5DC  8D 77 05  STA A:87 X:32 Y:53 P:A5 SP:FB PPU:291
E5DF  A9 32     LDA A:87 X:32 Y:53 P:A5 SP:FB PPU:303
E5E1  8D 78 05  STA A:32 X:32 Y:53 P:25 SP:FB PPU:309
E5E4  A0 57     LDY A:32 X:32 Y:53 P:25 SP:FB PPU:321
E5E6  24 01     BIT A:32 X:32 Y:57 P:25 SP:FB PPU:327
E5E8  38        SEC A:32 X:32 Y:57 P:E5 SP:FB PPU:336
E5E9  A9 00     LDA A:32 X:32 Y:57 P:E5 SP:FB PPU:  1
E5EB  AF 77 05  LAX A:00 X:32 Y:57 P:67 SP:FB PPU:  7
E5EE  EA        NOP A:87 X:87 Y:57 P:E5 SP:FB PPU: 19
E5EF  EA        NOP A:87 X:87 Y:57 P:E5 SP:FB PPU: 25
E5F0  EA        NOP A:87 X:87 Y:57 P:E5 SP:FB PPU: 31
E5F1  EA        NOP A:87 X:87 Y:57 P:E5 SP:FB PPU: 37
E5F2  F0 12     BEQ A:87 X:87 Y:57 P:E5 SP:FB PPU: 43
E5F4  10 10     BPL A:87 X:87 Y:57 P:E5 SP:FB PPU: 49
E5F6  50 0E     BVC A:87 X:87 Y:57 P:E5 SP:FB PPU: 55
E5F8  90 0C     BCC A:87 X:87 Y:57 P:E5 SP:FB PPU: 61
E5FA  C9 87     CMP A:87 X:87 Y:57 P:E5 SP:FB PPU: 67
E5FC  D0 08     BNE A:87 X:87 Y:57 P:67 SP:FB PPU: 73
E5FE  E0 87     CPX A:87 X:87 Y:57 P:67 SP:FB PPU: 79
E600  D0 04     BNE A:87 X:87 Y:57 P:67 SP:FB PPU: 85
E602  C0 57     CPY A:87 X:87 Y:57 P:67 SP:FB PPU: 91
E604  F0 04     BEQ A:87 X:87 Y:57 P:67 SP:FB PPU: 97
E60A  A0 53     LDY A:87 X:87 Y:57 P:67 SP:FB PPU:106
E60C  B8        CLV A:87 X:87 Y:53 P:65 SP:FB PPU:112
E60D  18        CLC A:87 X:87 Y:53 P:25 SP:FB PPU:118
E60E  A9 00     LDA A:87 X:87 Y:53 P:24 SP:FB PPU:124
E610  AF 78 05  LAX A:00 X:87 Y:53 P:26 SP:FB PPU:130
E613  EA        NOP A:32 X:32 Y:53 P:24 SP:FB PPU:142
E614  EA        NOP A:32 X:32 Y:53 P:24 SP:FB PPU:148
E615  EA        NOP A:32 X:32 Y:53 P:24 SP:FB PPU:154
E616  EA        NOP A:32 X:32 Y:53 P:24 SP:FB PPU:160
E617  F0 12     BEQ A:32 X:32 Y:53 P:24 SP:FB PPU:166
E619  30 10     BMI A:32 X:32 Y:53 P:24 SP:FB PPU:172
E61B  70 0E     BVS A:32 X:32 Y:53 P:24 SP:FB PPU:178
E61D  B0 0C     BCS A:32 X:32 Y:53 P:24 SP:FB PPU:184
E61F  C9 32     CMP A:32 X:32 Y:53 P:24 SP:FB PPU:190
E621  D0 08     BNE A:32 X:32 Y:53 P:27 SP:FB PPU:196
E623  E0 32     CPX A:32 X:32 Y:53 P:27 SP:FB PPU:202
E625  D0 04     BNE A:32 X:32 Y:53 P:27 SP:FB PPU:208
E627  C0 53     CPY A:32 X:32 Y:53 P:27 SP:FB PPU:214
E629  F0 04     BEQ A:32 X:32 Y:53 P:27 SP:FB PPU:220
E62F  A9 FF     LDA A:32 X:32 Y:53 P:27 SP:FB PPU:229
E631  85 43     STA A:FF X:32 Y:53 P:A5 SP:FB PPU:235
E633  A9 04     LDA A:FF X:32 Y:53 P:A5 SP:FB PPU:244
E635  85 44     STA A:04 X:32 Y:53 P:25 SP:FB PPU:250
E637  A9 32     LDA A:04 X:32 Y:53 P:25 SP:FB PPU:259
E639  85 45     STA A:32 X:32 Y:53 P:25 SP:FB PPU:265
E63B  A9 04     LDA A:32 X:32 Y:53 P:25 SP:FB PPU:274
E63D  85 46     STA A:04 X:32 Y:53 P:25 SP:FB PPU:280
E63F  A9 55     LDA A:04 X:32 Y:53 P:25 SP:FB PPU:289
E641  8D 80 05  STA A:55 X:32 Y:53 P:25 SP:FB PPU:295
E644  A9 AA     LDA A:55 X:32 Y:53 P:25 SP:FB PPU:307
E646  8D 32 04  STA A:AA X:32 Y:53 P:A5 SP:FB PPU:313
E649  A2 03     LDX A:AA X:32 Y:53 P:A5 SP:FB PPU:325
E64B  A0 81     LDY A:AA X:03 Y:53 P:25 SP:FB PPU:331
E64D  24 01     BIT A:AA X:03 Y:81 P:A5 SP:FB PPU:337
E64F  38        SEC A:AA X:03 Y:81 P:E5 SP:FB PPU:  5
E650  A9 00     LDA A:AA X:03 Y:81 P:E5 SP:FB PPU: 11
E652  B3 43     LAX A:00 X:03 Y:81 P:67 SP:FB PPU: 17
E654  EA        NOP A:55 X:55 Y:81 P:65 SP:FB PPU: 35
E655  EA        NOP A:55 X:55 Y:81 P:65 SP:FB PPU: 41
E656  EA        NOP A:55 X:55 Y:81 P:65 SP:FB PPU: 47
E657  EA        NOP A:55 X:55 Y:81 P:65 SP:FB PPU: 53
E658  F0 12     BEQ A:55 X:55 Y:81 P:65 SP:FB PPU: 59
E65A  30 10     BMI A:55 X:55 Y:81 P:65 SP:FB PPU: 65
E65C  50 0E     BVC A:55 X:55 Y:81 P:65 SP:FB PPU: 71
E65E  90 0C     BCC A:55 X:55 Y:81 P:65 SP:FB PPU: 77
E660  C9 55     CMP A:55 X:55 Y:81 P:65 SP:FB PPU: 83
E662  D0 08     BNE A:55 X:55 Y:81 P:67 SP:FB PPU: 89
E664  E0 55     CPX A:55 X:55 Y:81 P:67 SP:FB PPU: 95
E666  D0 04     BNE A:55 X:55 Y:81 P:67 SP:FB PPU:101
E668  C0 81     CPY A:55 X:55 Y:81 P:67 SP:FB PPU:107
E66A  F0 04     BEQ A:55 X:55 Y:81 P:67 SP:FB PPU:113
E670  A2 05     LDX A:55 X:55 Y:81 P:67 SP:FB PPU:122
E672  A0 00     LDY A:55 X:05 Y:81 P:65 SP:FB PPU:128
E674  B8        CLV A:55 X:05 Y:00 P:67 SP:FB PPU:134
E675  18        CLC A:55 X:05 Y:00 P:27 SP:FB PPU:140
E676  A9 00     LDA A:55 X:05 Y:00 P:26 SP:FB PPU:146
E678  B3 45     LAX A:00 X:05 Y:00 P:26 SP:FB PPU:152
E67A  EA        NOP A:AA X:AA Y:00 P:A4 SP:FB PPU:167
E67B  EA        NOP A:AA X:AA Y:00 P:A4 SP:FB PPU:173
E67C  EA        NOP A:AA X:AA Y:00 P:A4 SP:FB PPU:179
E67D  EA        NOP A:AA X:AA Y:00 P:A4 SP:FB PPU:185
E67E  F0 12     BEQ A:AA X:AA Y:00 P:A4 SP:FB PPU:191
E680  10 10     BPL A:AA X:AA Y:00 P:A4 SP:FB PPU:197
E682  70 0E     BVS A:AA X:AA Y:00 P:A4 SP:FB PPU:203
E684  B0 0C     BCS A:AA X:AA Y:00 P:A4 SP:FB PPU:209
E686  C9 AA     CMP A:AA X:AA Y:00 P:A4 SP:FB PPU:215
E688  D0 08     BNE A:AA X:AA Y:00 P:27 SP:FB PPU:221
E68A  E0 AA     CPX A:AA X:AA Y:00 P:27 SP:FB PPU:227
E68C  D0 04     BNE A:AA X:AA Y:00 P:27 SP:FB PPU:233
E68E  C0 00     CPY A:AA X:AA Y:00 P:27 SP:FB PPU:239
E690  F0 04     BEQ A:AA X:AA Y:00 P:27 SP:FB PPU:245
E696  A9 87     LDA A:AA X:AA Y:00 P:27 SP:FB PPU:254
E698  85 67     STA A:87 X:AA Y:00 P:A5 SP:FB PPU:260
E69A  A9 32     LDA A:87 X:AA Y:00 P:A5 SP:FB PPU:269
E69C  85 68     STA A:32 X:AA Y:00 P:25 SP:FB PPU:275
E69E  A0 57     LDY A:32 X:AA Y:00 P:25 SP:FB PPU:284
E6A0  24 01     BIT A:32 X:AA Y:57 P:25 SP:FB PPU:290
E6A2  38        SEC A:32 X:AA Y:57 P:E5 SP:FB PPU:299
E6A3  A9 00     LDA A:32 X:AA Y:57 P:E5 SP:FB PPU:305
E6A5  B7 10     LAX A:00 X:AA Y:57 P:67 SP:FB PPU:311
E6A7  EA        NOP A:87 X:87 Y:57 P:E5 SP:FB PPU:323
E6A8  EA        NOP A:87 X:87 Y:57 P:E5 SP:FB PPU:329
E6A9  EA        NOP A:87 X:87 Y:57 P:E5 SP:FB PPU:335
E6AA  EA        NOP A:87 X:87 Y:57 P:E5 SP:FB PPU:  0
E6AB  F0 12     BEQ A:87 X:87 Y:57 P:E5 SP:FB PPU:  6
E6AD  10 10     BPL A:87 X:87 Y:57 P:E5 SP:FB PPU: 12
E6AF  50 0E     BVC A:87 X:87 Y:57 P:E5 SP:FB PPU: 18
E6B1  90 0C     BCC A:87 X:87 Y:57 P:E5 SP:FB PPU: 24
E6B3  C9 87     CMP A:87 X:87 Y:57 P:E5 SP:FB PPU: 30
E6B5  D0 08     BNE A:87 X:87 Y:57 P:67 SP:FB PPU: 36
E6B7  E0 87     CPX A:87 X:87 Y:57 P:67 SP:FB PPU: 42
E6B9  D0 04     BNE A:87 X:87 Y:57 P:67 SP:FB PPU: 48
E6BB  C0 57     CPY A:87 X:87 Y:57 P:67 SP:FB PPU: 54
E6BD  F0 04     BEQ A:87 X:87 Y:57 P:67 SP:FB PPU: 60
E6C3  A0 FF     LDY A:87 X:87 Y:57 P:67 SP:FB PPU: 69
E6C5  B8        CLV A:87 X:87 Y:FF P:E5 SP:FB PPU: 75
E6C6  18        CLC A:87 X:87 Y:FF P:A5 SP:FB PPU: 81
E6C7  A9 00     LDA A:87 X:87 Y:FF P:A4 SP:FB PPU: 87
E6C9  B7 69     LAX A:00 X:87 Y:FF P:26 SP:FB PPU: 93
E6CB  EA        NOP A:32 X:32 Y:FF P:24 SP:FB PPU:105
E6CC  EA        NOP A:32 X:32 Y:FF P:24 SP:FB PPU:111
E6CD  EA        NOP A:32 X:32 Y:FF P:24 SP:FB PPU:117
E6CE  EA        NOP A:32 X:32 Y:FF P:24 SP:FB PPU:123
E6CF  F0 12     BEQ A:32 X:32 Y:FF P:24 SP:FB PPU:129
E6D1  30 10     BMI A:32 X:32 Y:FF P:24 SP:FB PPU:135
E6D3  70 0E     BVS A:32 X:32 Y:FF P:24 SP:FB PPU:141
E6D5  B0 0C     BCS A:32 X:32 Y:FF P:24 SP:FB PPU:147
E6D7  C9 32     CMP A:32 X:32 Y:FF P:24 SP:FB PPU:153
E6D9  D0 08     BNE A:32 X:32 Y:FF P:27 SP:FB PPU:159
E6DB  E0 32     CPX A:32 X:32 Y:FF P:27 SP:FB PPU:165
E6DD  D0 04     BNE A:32 X:32 Y:FF P:27 SP:FB PPU:171
E6DF  C0 FF     CPY A:32 X:32 Y:FF P:27 SP:FB PPU:177
E6E1  F0 04     BEQ A:32 X:32 Y:FF P:27 SP:FB PPU:183
E6E7  A9 87     LDA A:32 X:32 Y:FF P:27 SP:FB PPU:192
E6E9  8D 87 05  STA A:87 X:32 Y:FF P:A5 SP:FB PPU:198
E6EC  A9 32     LDA A:87 X:32 Y:FF P:A5 SP:FB PPU:210
E6EE  8D 88 05  STA A:32 X:32 Y:FF P:25 SP:FB PPU:216
E6F1  A0 30     LDY A:32 X:32 Y:FF P:25 SP:FB PPU:228
E6F3  24 01     BIT A:32 X:32 Y:30 P:25 SP:FB PPU:234
E6F5  38        SEC A:32 X:32 Y:30 P:E5 SP:FB PPU:243
E6F6  A9 00     LDA A:32 X:32 Y:30 P:E5 SP:FB PPU:249
E6F8  BF 57 05  LAX A:00 X:32 Y:30 P:67 SP:FB PPU:255
E6FB  EA        NOP A:87 X:87 Y:30 P:E5 SP:FB PPU:267
E6FC  EA        NOP A:87 X:87 Y:30 P:E5 SP:FB PPU:273
E6FD  EA        NOP A:87 X:87 Y:30 P:E5 SP:FB PPU:279
E6FE  EA        NOP A:87 X:87 Y:30 P:E5 SP:FB PPU:285
E6FF  F0 12     BEQ A:87 X:87 Y:30 P:E5 SP:FB PPU:291
E701  10 10     BPL A:87 X:87 Y:30 P:E5 SP:FB PPU:297
E703  50 0E     BVC A:87 X:87 Y:30 P:E5 SP:FB PPU:303
E705  90 0C     BCC A:87 X:87 Y:30 P:E5 SP:FB PPU:309
E707  C9 87     CMP A:87 X:87 Y:30 P:E5 SP:FB PPU:315
E709  D0 08     BNE A:87 X:87 Y:30 P:67 SP:FB PPU:321
E70B  E0 87     CPX A:87 X:87 Y:30 P:67 SP:FB PPU:327
E70D  D0 04     BNE A:87 X:87 Y:30 P:67 SP:FB PPU:333
E70F  C0 30     CPY A:87 X:87 Y:30 P:67 SP:FB PPU:339
E711  F0 04     BEQ A:87 X:87 Y:30 P:67 SP:FB PPU:  4
E717  A0 40     LDY A:87 X:87 Y:30 P:67 SP:FB PPU: 13
E719  B8        CLV A:87 X:87 Y:40 P:65 SP:FB PPU: 19
E71A  18        CLC A:87 X:87 Y:40 P:25 SP:FB PPU: 25
E71B  A9 00     LDA A:87 X:87 Y:40 P:24 SP:FB PPU: 31
E71D  BF 48 05  LAX A:00 X:87 Y:40 P:26 SP:FB PPU: 37
E720  EA        NOP A:32 X:32 Y:40 P:24 SP:FB PPU: 49
E721  EA        NOP A:32 X:32 Y:40 P:24 SP:FB PPU: 55
E722  EA        NOP A:32 X:32 Y:40 P:24 SP:FB PPU: 61
E723  EA        NOP A:32 X:32 Y:40 P:24 SP:FB PPU: 67
E724  F0 12     BEQ A:32 X:32 Y:40 P:24 SP:FB PPU: 73
E726  30 10     BMI A:32 X:32 Y:40 P:24 SP:FB PPU: 79
E728  70 0E     BVS A:32 X:32 Y:40 P:24 SP:FB PPU: 85
E72A  B0 0C     BCS A:32 X:32 Y:40 P:24 SP:FB PPU: 91
E72C  C9 32     CMP A:32 X:32 Y:40 P:24 SP:FB PPU: 97
E72E  D0 08     BNE A:32 X:32 Y:40 P:27 SP:FB PPU:103
E730  E0 32     CPX A:32 X:32 Y:40 P:27 SP:FB PPU:109
E732  D0 04     BNE A:32 X:32 Y:40 P:27 SP:FB PPU:115
E734  C0 40     CPY A:32 X:32 Y:40 P:27 SP:FB PPU:121
E736  F0 04     BEQ A:32 X:32 Y:40 P:27 SP:FB PPU:127
E73C  60        RTS A:32 X:32 Y:40 P:27 SP:FB PPU:136
C635  20 3D E7  JSR A:32 X:32 Y:40 P:27 SP:FD PPU:154
E73D  A9 C0     LDA A:32 X:32 Y:40 P:27 SP:FB PPU:172
E73F  85 01     STA A:C0 X:32 Y:40 P:A5 SP:FB PPU:178
E741  A9 00     LDA A:C0 X:32 Y:40 P:A5 SP:FB PPU:187
E743  8D 89 04  STA A:00 X:32 Y:40 P:27 SP:FB PPU:193
E746  A9 89     LDA A:00 X:32 Y:40 P:27 SP:FB PPU:205
E748  85 60     STA A:89 X:32 Y:40 P:A5 SP:FB PPU:211
E74A  A9 04     LDA A:89 X:32 Y:40 P:A5 SP:FB PPU:220
E74C  85 61     STA A:04 X:32 Y:40 P:25 SP:FB PPU:226
E74E  A0 44     LDY A:04 X:32 Y:40 P:25 SP:FB PPU:235
E750  A2 17     LDX A:04 X:32 Y:44 P:25 SP:FB PPU:241
E752  A9 3E     LDA A:04 X:17 Y:44 P:25 SP:FB PPU:247
E754  24 01     BIT A:3E X:17 Y:44 P:25 SP:FB PPU:253
E756  18        CLC A:3E X:17 Y:44 P:E7 SP:FB PPU:262
E757  83 49     SAX A:3E X:17 Y:44 P:E6 SP:FB PPU:268
E759  EA        NOP A:3E X:17 Y:44 P:E6 SP:FB PPU:286
E75A  EA        NOP A:3E X:17 Y:44 P:E6 SP:FB PPU:292
E75B  EA        NOP A:3E X:17 Y:44 P:E6 SP:FB PPU:298
E75C  EA        NOP A:3E X:17 Y:44 P:E6 SP:FB PPU:304
E75D  D0 19     BNE A:3E X:17 Y:44 P:E6 SP:FB PPU:310
E75F  B0 17     BCS A:3E X:17 Y:44 P:E6 SP:FB PPU:316
E761  50 15     BVC A:3E X:17 Y:44 P:E6 SP:FB PPU:322
E763  10 13     BPL A:3E X:17 Y:44 P:E6 SP:FB PPU:328
E765  C9 3E     CMP A:3E X:17 Y:44 P:E6 SP:FB PPU:334
E767  D0 0F     BNE A:3E X:17 Y:44 P:67 SP:FB PPU:340
E769  C0 44     CPY A:3E X:17 Y:44 P:67 SP:FB PPU:  5
E76B  D0 0B     BNE A:3E X:17 Y:44 P:67 SP:FB PPU: 11
E76D  E0 17     CPX A:3E X:17 Y:44 P:67 SP:FB PPU: 17
E76F  D0 07     BNE A:3E X:17 Y:44 P:67 SP:FB PPU: 23
E771  AD 89 04  LDA A:3E X:17 Y:44 P:67 SP:FB PPU: 29
E774  C9 16     CMP A:16 X:17 Y:44 P:65 SP:FB PPU: 41
E776  F0 04     BEQ A:16 X:17 Y:44 P:67 SP:FB PPU: 47
E77C  A0 44     LDY A:16 X:17 Y:44 P:67 SP:FB PPU: 56
E77E  A2 7A     LDX A:16 X:17 Y:44 P:65 SP:FB PPU: 62
E780  A9 66     LDA A:16 X:7A Y:44 P:65 SP:FB PPU: 68
E782  38        SEC A:66 X:7A Y:44 P:65 SP:FB PPU: 74
E783  B8        CLV A:66 X:7A Y:44 P:65 SP:FB PPU: 80
E784  83 E6     SAX A:66 X:7A Y:44 P:25 SP:FB PPU: 86
E786  EA        NOP A:66 X:7A Y:44 P:25 SP:FB PPU:104
E787  EA        NOP A:66 X:7A Y:44 P:25 SP:FB PPU:110
E788  EA        NOP A:66 X:7A Y:44 P:25 SP:FB PPU:116
E789  EA        NOP A:66 X:7A Y:44 P:25 SP:FB PPU:122
E78A  F0 19     BEQ A:66 X:7A Y:44 P:25 SP:FB PPU:128
E78C  90 17     BCC A:66 X:7A Y:44 P:25 SP:FB PPU:134
E78E  70 15     BVS A:66 X:7A Y:44 P:25 SP:FB PPU:140
E790  30 13     BMI A:66 X:7A Y:44 P:25 SP:FB PPU:146
E792  C9 66     CMP A:66 X:7A Y:44 P:25 SP:FB PPU:152
E794  D0 0F     BNE A:66 X:7A Y:44 P:27 SP:FB PPU:158
E796  C0 44     CPY A:66 X:7A Y:44 P:27 SP:FB PPU:164
E798  D0 0B     BNE A:66 X:7A Y:44 P:27 SP:FB PPU:170
E79A  E0 7A     CPX A:66 X:7A Y:44 P:27 SP:FB PPU:176
E79C  D0 07     BNE A:66 X:7A Y:44 P:27 SP:FB PPU:182
E79E  AD 89 04  LDA A:66 X:7A Y:44 P:27 SP:FB PPU:188
E7A1  C9 62     CMP A:62 X:7A Y:44 P:25 SP:FB PPU:200
E7A3  F0 04     BEQ A:62 X:7A Y:44 P:27 SP:FB PPU:206
E7A9  A9 FF     LDA A:62 X:7A Y:44 P:27 SP:FB PPU:215
E7AB  85 49     STA A:FF X:7A Y:44 P:A5 SP:FB PPU:221
E7AD  A0 44     LDY A:FF X:7A Y:44 P:A5 SP:FB PPU:230
E7AF  A2 AA     LDX A:FF X:7A Y:44 P:25 SP:FB PPU:236
E7B1  A9 55     LDA A:FF X:AA Y:44 P:A5 SP:FB PPU:242
E7B3  24 01     BIT A:55 X:AA Y:44 P:25 SP:FB PPU:248
E7B5  18        CLC A:55 X:AA Y:44 P:E5 SP:FB PPU:257
E7B6  87 49     SAX A:55 X:AA Y:44 P:E4 SP:FB PPU:263
E7B8  EA        NOP A:55 X:AA Y:44 P:E4 SP:FB PPU:272
E7B9  EA        NOP A:55 X:AA Y:44 P:E4 SP:FB PPU:278
E7BA  EA        NOP A:55 X:AA Y:44 P:E4 SP:FB PPU:284
E7BB  EA        NOP A:55 X:AA Y:44 P:E4 SP:FB PPU:290
E7BC  F0 18     BEQ A:55 X:AA Y:44 P:E4 SP:FB PPU:296
E7BE  B0 16     BCS A:55 X:AA Y:44 P:E4 SP:FB PPU:302
E7C0  50 14     BVC A:55 X:AA Y:44 P:E4 SP:FB PPU:308
E7C2  10 12     BPL A:55 X:AA Y:44 P:E4 SP:FB PPU:314
E7C4  C9 55     CMP A:55 X:AA Y:44 P:E4 SP:FB PPU:320
E7C6  D0 0E     BNE A:55 X:AA Y:44 P:67 SP:FB PPU:326
E7C8  C0 44     CPY A:55 X:AA Y:44 P:67 SP:FB PPU:332
E7CA  D0 0A     BNE A:55 X:AA Y:44 P:67 SP:FB PPU:338
E7CC  E0 AA     CPX A:55 X:AA Y:44 P:67 SP:FB PPU:  3
E7CE  D0 06     BNE A:55 X:AA Y:44 P:67 SP:FB PPU:  9
E7D0  A5 49     LDA A:55 X:AA Y:44 P:67 SP:FB PPU: 15
E7D2  C9 00     CMP A:00 X:AA Y:44 P:67 SP:FB PPU: 24
E7D4  F0 04     BEQ A:00 X:AA Y:44 P:67 SP:FB PPU: 30
E7DA  A9 00     LDA A:00 X:AA Y:44 P:67 SP:FB PPU: 39
E7DC  85 56     STA A:00 X:AA Y:44 P:67 SP:FB PPU: 45
E7DE  A0 58     LDY A:00 X:AA Y:44 P:67 SP:FB PPU: 54
E7E0  A2 EF     LDX A:00 X:AA Y:58 P:65 SP:FB PPU: 60
E7E2  A9 66     LDA A:00 X:EF Y:58 P:E5 SP:FB PPU: 66
E7E4  38        SEC A:66 X:EF Y:58 P:65 SP:FB PPU: 72
E7E5  B8        CLV A:66 X:EF Y:58 P:65 SP:FB PPU: 78
E7E6  87 56     SAX A:66 X:EF Y:58 P:25 SP:FB PPU: 84
E7E8  EA        NOP A:66 X:EF Y:58 P:25 SP:FB PPU: 93
E7E9  EA        NOP A:66 X:EF Y:58 P:25 SP:FB PPU: 99
E7EA  EA        NOP A:66 X:EF Y:58 P:25 SP:FB PPU:105
E7EB  EA        NOP A:66 X:EF Y:58 P:25 SP:FB PPU:111
E7EC  F0 18     BEQ A:66 X:EF Y:58 P:25 SP:FB PPU:117
E7EE  90 16     BCC A:66 X:EF Y:58 P:25 SP:FB PPU:123
E7F0  70 14     BVS A:66 X:EF Y:58 P:25 SP:FB PPU:129
E7F2  30 12     BMI A:66 X:EF Y:58 P:25 SP:FB PPU:135
E7F4  C9 66     CMP A:66 X:EF Y:58 P:25 SP:FB PPU:141
E7F6  D0 0E     BNE A:66 X:EF Y:58 P:27 SP:FB PPU:147
E7F8  C0 58     CPY A:66 X:EF Y:58 P:27 SP:FB PPU:153
E7FA  D0 0A     BNE A:66 X:EF Y:58 P:27 SP:FB PPU:159
E7FC  E0 EF     CPX A:66 X:EF Y:58 P:27 SP:FB PPU:165
E7FE  D0 06     BNE A:66 X:EF Y:58 P:27 SP:FB PPU:171
E800  A5 56     LDA A:66 X:EF Y:58 P:27 SP:FB PPU:177
E802  C9 66     CMP A:66 X:EF Y:58 P:25 SP:FB PPU:186
E804  F0 04     BEQ A:66 X:EF Y:58 P:27 SP:FB PPU:192
E80A  A9 FF     LDA A:66 X:EF Y:58 P:27 SP:FB PPU:201
E80C  8D 49 05  STA A:FF X:EF Y:58 P:A5 SP:FB PPU:207
E80F  A0 E5     LDY A:FF X:EF Y:58 P:A5 SP:FB PPU:219
E811  A2 AF     LDX A:FF X:EF Y:E5 P:A5 SP:FB PPU:225
E813  A9 F5     LDA A:FF X:AF Y:E5 P:A5 SP:FB PPU:231
E815  24 01     BIT A:F5 X:AF Y:E5 P:A5 SP:FB PPU:237
E817  18        CLC A:F5 X:AF Y:E5 P:E5 SP:FB PPU:246
E818  8F 49 05  SAX A:F5 X:AF Y:E5 P:E4 SP:FB PPU:252
E81B  EA        NOP A:F5 X:AF Y:E5 P:E4 SP:FB PPU:264
E81C  EA        NOP A:F5 X:AF Y:E5 P:E4 SP:FB PPU:270
E81D  EA        NOP A:F5 X:AF Y:E5 P:E4 SP:FB PPU:276
E81E  EA        NOP A:F5 X:AF Y:E5 P:E4 SP:FB PPU:282
E81F  F0 19     BEQ A:F5 X:AF Y:E5 P:E4 SP:FB PPU:288
E821  B0 17     BCS A:F5 X:AF Y:E5 P:E4 SP:FB PPU:294
E823  50 15     BVC A:F5 X:AF Y:E5 P:E4 SP:FB PPU:300
E825  10 13     BPL A:F5 X:AF Y:E5 P:E4 SP:FB PPU:306
E827  C9 F5     CMP A:F5 X:AF Y:E5 P:E4 SP:FB PPU:312
E829  D0 0F     BNE A:F5 X:AF Y:E5 P:67 SP:FB PPU:318
E82B  C0 E5     CPY A:F5 X:AF Y:E5 P:67 SP:FB PPU:324
E82D  D0 0B     BNE A:F5 X:AF Y:E5 P:67 SP:FB PPU:330
E82F  E0 AF     CPX A:F5 X:AF Y:E5 P:67 SP:FB PPU:336
E831  D0 07     BNE A:F5 X:AF Y:E5 P:67 SP:FB PPU:  1
E833  AD 49 05  LDA A:F5 X:AF Y:E5 P:67 SP:FB PPU:  7
E836  C9 A5     CMP A:A5 X:AF Y:E5 P:E5 SP:FB PPU: 19
E838  F0 04     BEQ A:A5 X:AF Y:E5 P:67 SP:FB PPU: 25
E83E  A9 00     LDA A:A5 X:AF Y:E5 P:67 SP:FB PPU: 34
E840  8D 56 05  STA A:00 X:AF Y:E5 P:67 SP:FB PPU: 40
E843  A0 58     LDY A:00 X:AF Y:E5 P:67 SP:FB PPU: 52
E845  A2 B3     LDX A:00 X:AF Y:58 P:65 SP:FB PPU: 58
E847  A9 97     LDA A:00 X:B3 Y:58 P:E5 SP:FB PPU: 64
E849  38        SEC A:97 X:B3 Y:58 P:E5 SP:FB PPU: 70
E84A  B8        CLV A:97 X:B3 Y:58 P:E5 SP:FB PPU: 76
E84B  8F 56 05  SAX A:97 X:B3 Y:58 P:A5 SP:FB PPU: 82
E84E  EA        NOP A:97 X:B3 Y:58 P:A5 SP:FB PPU: 94
E84F  EA        NOP A:97 X:B3 Y:58 P:A5 SP:FB PPU:100
E850  EA        NOP A:97 X:B3 Y:58 P:A5 SP:FB PPU:106
E851  EA        NOP A:97 X:B3 Y:58 P:A5 SP:FB PPU:112
E852  F0 19     BEQ A:97 X:B3 Y:58 P:A5 SP:FB PPU:118
E854  90 17     BCC A:97 X:B3 Y:58 P:A5 SP:FB PPU:124
E856  70 15     BVS A:97 X:B3 Y:58 P:A5 SP:FB PPU:130
E858  10 13     BPL A:97 X:B3 Y:58 P:A5 SP:FB PPU:136
E85A  C9 97     CMP A:97 X:B3 Y:58 P:A5 SP:FB PPU:142
E85C  D0 0F     BNE A:97 X:B3 Y:58 P:27 SP:FB PPU:148
E85E  C0 58     CPY A:97 X:B3 Y:58 P:27 SP:FB PPU:154
E860  D0 0B     BNE A:97 X:B3 Y:58 P:27 SP:FB PPU:160
E862  E0 B3     CPX A:97 X:B3 Y:58 P:27 SP:FB PPU:166
E864  D0 07     BNE A:97 X:B3 Y:58 P:27 SP:FB PPU:172
E866  AD 56 05  LDA A:97 X:B3 Y:58 P:27 SP:FB PPU:178
E869  C9 93     CMP A:93 X:B3 Y:58 P:A5 SP:FB PPU:190
E86B  F0 04     BEQ A:93 X:B3 Y:58 P:27 SP:FB PPU:196
E871  A9 FF     LDA A:93 X:B3 Y:58 P:27 SP:FB PPU:205
E873  85 49     STA A:FF X:B3 Y:58 P:A5 SP:FB PPU:211
E875  A0 FF     LDY A:FF X:B3 Y:58 P:A5 SP:FB PPU:220
E877  A2 AA     LDX A:FF X:B3 Y:FF P:A5 SP:FB PPU:226
E879  A9 55     LDA A:FF X:AA Y:FF P:A5 SP:FB PPU:232
E87B  24 01     BIT A:55 X:AA Y:FF P:25 SP:FB PPU:238
E87D  18        CLC A:55 X:AA Y:FF P:E5 SP:FB PPU:247
E87E  97 4A     SAX A:55 X:AA Y:FF P:E4 SP:FB PPU:253
E880  EA        NOP A:55 X:AA Y:FF P:E4 SP:FB PPU:265
E881  EA        NOP A:55 X:AA Y:FF P:E4 SP:FB PPU:271
E882  EA        NOP A:55 X:AA Y:FF P:E4 SP:FB PPU:277
E883  EA        NOP A:55 X:AA Y:FF P:E4 SP:FB PPU:283
E884  F0 18     BEQ A:55 X:AA Y:FF P:E4 SP:FB PPU:289
E886  B0 16     BCS A:55 X:AA Y:FF P:E4 SP:FB PPU:295
E888  50 14     BVC A:55 X:AA Y:FF P:E4 SP:FB PPU:301
E88A  10 12     BPL A:55 X:AA Y:FF P:E4 SP:FB PPU:307
E88C  C9 55     CMP A:55 X:AA Y:FF P:E4 SP:FB PPU:313
E88E  D0 0E     BNE A:55 X:AA Y:FF P:67 SP:FB PPU:319
E890  C0 FF     CPY A:55 X:AA Y:FF P:67 SP:FB PPU:325
E892  D0 0A     BNE A:55 X:AA Y:FF P:67 SP:FB PPU:331
E894  E0 AA     CPX A:55 X:AA Y:FF P:67 SP:FB PPU:337
E896  D0 06     BNE A:55 X:AA Y:FF P:67 SP:FB PPU:  2
E898  A5 49     LDA A:55 X:AA Y:FF P:67 SP:FB PPU:  8
E89A  C9 00     CMP A:00 X:AA Y:FF P:67 SP:FB PPU: 17
E89C  F0 04     BEQ A:00 X:AA Y:FF P:67 SP:FB PPU: 23
E8A2  A9 00     LDA A:00 X:AA Y:FF P:67 SP:FB PPU: 32
E8A4  85 56     STA A:00 X:AA Y:FF P:67 SP:FB PPU: 38
E8A6  A0 06     LDY A:00 X:AA Y:FF P:67 SP:FB PPU: 47
E8A8  A2 EF     LDX A:00 X:AA Y:06 P:65 SP:FB PPU: 53
E8AA  A9 66     LDA A:00 X:EF Y:06 P:E5 SP:FB PPU: 59
E8AC  38        SEC A:66 X:EF Y:06 P:65 SP:FB PPU: 65
E8AD  B8        CLV A:66 X:EF Y:06 P:65 SP:FB PPU: 71
E8AE  97 50     SAX A:66 X:EF Y:06 P:25 SP:FB PPU: 77
E8B0  EA        NOP A:66 X:EF Y:06 P:25 SP:FB PPU: 89
E8B1  EA        NOP A:66 X:EF Y:06 P:25 SP:FB PPU: 95
E8B2  EA        NOP A:66 X:EF Y:06 P:25 SP:FB PPU:101
E8B3  EA        NOP A:66 X:EF Y:06 P:25 SP:FB PPU:107
E8B4  F0 18     BEQ A:66 X:EF Y:06 P:25 SP:FB PPU:113
E8B6  90 16     BCC A:66 X:EF Y:06 P:25 SP:FB PPU:119
E8B8  70 14     BVS A:66 X:EF Y:06 P:25 SP:FB PPU:125
E8BA  30 12     BMI A:66 X:EF Y:06 P:25 SP:FB PPU:131
E8BC  C9 66     CMP A:66 X:EF Y:06 P:25 SP:FB PPU:137
E8BE  D0 0E     BNE A:66 X:EF Y:06 P:27 SP:FB PPU:143
E8C0  C0 06     CPY A:66 X:EF Y:06 P:27 SP:FB PPU:149
E8C2  D0 0A     BNE A:66 X:EF Y:06 P:27 SP:FB PPU:155
E8C4  E0 EF     CPX A:66 X:EF Y:06 P:27 SP:FB PPU:161
E8C6  D0 06     BNE A:66 X:EF Y:06 P:27 SP:FB PPU:167
E8C8  A5 56     LDA A:66 X:EF Y:06 P:27 SP:FB PPU:173
E8CA  C9 66     CMP A:66 X:EF Y:06 P:25 SP:FB PPU:182
E8CC  F0 04     BEQ A:66 X:EF Y:06 P:27 SP:FB PPU:188
E8D2  60        RTS A:66 X:EF Y:06 P:27 SP:FB PPU:197
C638  20 D3 E8  JSR A:66 X:EF Y:06 P:27 SP:FD PPU:215
E8D3  A0 90     LDY A:66 X:EF Y:06 P:27 SP:FB PPU:233
E8D5  20 31 F9  JSR A:66 X:EF Y:90 P:A5 SP:FB PPU:239
F931  24 01     BIT A:66 X:EF Y:90 P:A5 SP:F9 PPU:257
F933  A9 40     LDA A:66 X:EF Y:90 P:E5 SP:F9 PPU:266
F935  38        SEC A:40 X:EF Y:90 P:65 SP:F9 PPU:272
F936  60        RTS A:40 X:EF Y:90 P:65 SP:F9 PPU:278
E8D8  EB 40     SBC A:40 X:EF Y:90 P:65 SP:FB PPU:296
E8DA  EA        NOP A:00 X:EF Y:90 P:27 SP:FB PPU:302
E8DB  EA        NOP A:00 X:EF Y:90 P:27 SP:FB PPU:308
E8DC  EA        NOP A:00 X:EF Y:90 P:27 SP:FB PPU:314
E8DD  EA        NOP A:00 X:EF Y:90 P:27 SP:FB PPU:320
E8DE  20 37 F9  JSR A:00 X:EF Y:90 P:27 SP:FB PPU:326
F937  30 0B     BMI A:00 X:EF Y:90 P:27 SP:F9 PPU:  3
F939  90 09     BCC A:00 X:EF Y:90 P:27 SP:F9 PPU:  9
F93B  D0 07     BNE A:00 X:EF Y:90 P:27 SP:F9 PPU: 15
F93D  70 05     BVS A:00 X:EF Y:90 P:27 SP:F9 PPU: 21
F93F  C9 00     CMP A:00 X:EF Y:90 P:27 SP:F9 PPU: 27
F941  D0 01     BNE A:00 X:EF Y:90 P:27 SP:F9 PPU: 33
F943  60        RTS A:00 X:EF Y:90 P:27 SP:F9 PPU: 39
E8E1  C8        INY A:00 X:EF Y:90 P:27 SP:FB PPU: 57
E8E2  20 47 F9  JSR A:00 X:EF Y:91 P:A5 SP:FB PPU: 63
F947  B8        CLV A:00 X:EF Y:91 P:A5 SP:F9 PPU: 81
F948  38        SEC A:00 X:EF Y:91 P:A5 SP:F9 PPU: 87
F949  A9 40     LDA A:00 X:EF Y:91 P:A5 SP:F9 PPU: 93
F94B  60        RTS A:40 X:EF Y:91 P:25 SP:F9 PPU: 99
E8E5  EB 3F     SBC A:40 X:EF Y:91 P:25 SP:FB PPU:117
E8E7  EA        NOP A:01 X:EF Y:91 P:25 SP:FB PPU:123
E8E8  EA        NOP A:01 X:EF Y:91 P:25 SP:FB PPU:129
E8E9  EA        NOP A:01 X:EF Y:91 P:25 SP:FB PPU:135
E8EA  EA        NOP A:01 X:EF Y:91 P:25 SP:FB PPU:141
E8EB  20 4C F9  JSR A:01 X:EF Y:91 P:25 SP:FB PPU:147
F94C  F0 0B     BEQ A:01 X:EF Y:91 P:25 SP:F9 PPU:165
F94E  30 09     BMI A:01 X:EF Y:91 P:25 SP:F9 PPU:171
F950  90 07     BCC A:01 X:EF Y:91 P:25 SP:F9 PPU:177
F952  70 05     BVS A:01 X:EF Y:91 P:25 SP:F9 PPU:183
F954  C9 01     CMP A:01 X:EF Y:91 P:25 SP:F9 PPU:189
F956  D0 01     BNE A:01 X:EF Y:91 P:27 SP:F9 PPU:195
F958  60        RTS A:01 X:EF Y:91 P:27 SP:F9 PPU:201
E8EE  C8        INY A:01 X:EF Y:91 P:27 SP:FB PPU:219
E8EF  20 5C F9  JSR A:01 X:EF Y:92 P:A5 SP:FB PPU:225
F95C  A9 40     LDA A:01 X:EF Y:92 P:A5 SP:F9 PPU:243
F95E  38        SEC A:40 X:EF Y:92 P:25 SP:F9 PPU:249
F95F  24 01     BIT A:40 X:EF Y:92 P:25 SP:F9 PPU:255
F961  60        RTS A:40 X:EF Y:92 P:E5 SP:F9 PPU:264
E8F2  EB 41     SBC A:40 X:EF Y:92 P:E5 SP:FB PPU:282
E8F4  EA        NOP A:FF X:EF Y:92 P:A4 SP:FB PPU:288
E8F5  EA        NOP A:FF X:EF Y:92 P:A4 SP:FB PPU:294
E8F6  EA        NOP A:FF X:EF Y:92 P:A4 SP:FB PPU:300
E8F7  EA        NOP A:FF X:EF Y:92 P:A4 SP:FB PPU:306
E8F8  20 62 F9  JSR A:FF X:EF Y:92 P:A4 SP:FB PPU:312
F962  B0 0B     BCS A:FF X:EF Y:92 P:A4 SP:F9 PPU:330
F964  F0 09     BEQ A:FF X:EF Y:92 P:A4 SP:F9 PPU:336
F966  10 07     BPL A:FF X:EF Y:92 P:A4 SP:F9 PPU:  1
F968  70 05     BVS A:FF X:EF Y:92 P:A4 SP:F9 PPU:  7
F96A  C9 FF     CMP A:FF X:EF Y:92 P:A4 SP:F9 PPU: 13
F96C  D0 01     BNE A:FF X:EF Y:92 P:27 SP:F9 PPU: 19
F96E  60        RTS A:FF X:EF Y:92 P:27 SP:F9 PPU: 25
E8FB  C8        INY A:FF X:EF Y:92 P:27 SP:FB PPU: 43
E8FC  20 72 F9  JSR A:FF X:EF Y:93 P:A5 SP:FB PPU: 49
F972  18        CLC A:FF X:EF Y:93 P:A5 SP:F9 PPU: 67
F973  A9 80     LDA A:FF X:EF Y:93 P:A4 SP:F9 PPU: 73
F975  60        RTS A:80 X:EF Y:93 P:A4 SP:F9 PPU: 79
E8FF  EB 00     SBC A:80 X:EF Y:93 P:A4 SP:FB PPU: 97
E901  EA        NOP A:7F X:EF Y:93 P:65 SP:FB PPU:103
E902  EA        NOP A:7F X:EF Y:93 P:65 SP:FB PPU:109
E903  EA        NOP A:7F X:EF Y:93 P:65 SP:FB PPU:115
E904  EA        NOP A:7F X:EF Y:93 P:65 SP:FB PPU:121
E905  20 76 F9  JSR A:7F X:EF Y:93 P:65 SP:FB PPU:127
F976  90 05     BCC A:7F X:EF Y:93 P:65 SP:F9 PPU:145
F978  C9 7F     CMP A:7F X:EF Y:93 P:65 SP:F9 PPU:151
F97A  D0 01     BNE A:7F X:EF Y:93 P:67 SP:F9 PPU:157
F97C  60        RTS A:7F X:EF Y:93 P:67 SP:F9 PPU:163
E908  C8        INY A:7F X:EF Y:93 P:67 SP:FB PPU:181
E909  20 80 F9  JSR A:7F X:EF Y:94 P:E5 SP:FB PPU:187
F980  38        SEC A:7F X:EF Y:94 P:E5 SP:F9 PPU:205
F981  A9 81     LDA A:7F X:EF Y:94 P:E5 SP:F9 PPU:211
F983  60        RTS A:81 X:EF Y:94 P:E5 SP:F9 PPU:217
E90C  EB 7F     SBC A:81 X:EF Y:94 P:E5 SP:FB PPU:235
E90E  EA        NOP A:02 X:EF Y:94 P:65 SP:FB PPU:241
E90F  EA        NOP A:02 X:EF Y:94 P:65 SP:FB PPU:247
E910  EA        NOP A:02 X:EF Y:94 P:65 SP:FB PPU:253
E911  EA        NOP A:02 X:EF Y:94 P:65 SP:FB PPU:259
E912  20 84 F9  JSR A:02 X:EF Y:94 P:65 SP:FB PPU:265
F984  50 07     BVC A:02 X:EF Y:94 P:65 SP:F9 PPU:283
F986  90 05     BCC A:02 X:EF Y:94 P:65 SP:F9 PPU:289
F988  C9 02     CMP A:02 X:EF Y:94 P:65 SP:F9 PPU:295
F98A  D0 01     BNE A:02 X:EF Y:94 P:67 SP:F9 PPU:301
F98C  60        RTS A:02 X:EF Y:94 P:67 SP:F9 PPU:307
E915  60        RTS A:02 X:EF Y:94 P:67 SP:FB PPU:325
C63B  20 16 E9  JSR A:02 X:EF Y:94 P:67 SP:FD PPU:  2
E916  A9 FF     LDA A:02 X:EF Y:94 P:67 SP:FB PPU: 20
E918  85 01     STA A:FF X:EF Y:94 P:E5 SP:FB PPU: 26
E91A  A0 95     LDY A:FF X:EF Y:94 P:E5 SP:FB PPU: 35
E91C  A2 02     LDX A:FF X:EF Y:95 P:E5 SP:FB PPU: 41
E91E  A9 47     LDA A:FF X:02 Y:95 P:65 SP:FB PPU: 47
E920  85 47     STA A:47 X:02 Y:95 P:65 SP:FB PPU: 53
E922  A9 06     LDA A:47 X:02 Y:95 P:65 SP:FB PPU: 62
E924  85 48     STA A:06 X:02 Y:95 P:65 SP:FB PPU: 68
E926  A9 EB     LDA A:06 X:02 Y:95 P:65 SP:FB PPU: 77
E928  8D 47 06  STA A:EB X:02 Y:95 P:E5 SP:FB PPU: 83
E92B  20 31 FA  JSR A:EB X:02 Y:95 P:E5 SP:FB PPU: 95
FA31  24 01     BIT A:EB X:02 Y:95 P:E5 SP:F9 PPU:113
FA33  18        CLC A:EB X:02 Y:95 P:E5 SP:F9 PPU:122
FA34  A9 40     LDA A:EB X:02 Y:95 P:E4 SP:F9 PPU:128
FA36  60        RTS A:40 X:02 Y:95 P:64 SP:F9 PPU:134
E92E  C3 45     DCP A:40 X:02 Y:95 P:64 SP:FB PPU:152
E930  EA        NOP A:40 X:02 Y:95 P:64 SP:FB PPU:176
E931  EA        NOP A:40 X:02 Y:95 P:64 SP:FB PPU:182
E932  EA        NOP A:40 X:02 Y:95 P:64 SP:FB PPU:188
E933  EA        NOP A:40 X:02 Y:95 P:64 SP:FB PPU:194
E934  20 37 FA  JSR A:40 X:02 Y:95 P:64 SP:FB PPU:200
FA37  50 2C     BVC A:40 X:02 Y:95 P:64 SP:F9 PPU:218
FA39  B0 2A     BCS A:40 X:02 Y:95 P:64 SP:F9 PPU:224
FA3B  30 28     BMI A:40 X:02 Y:95 P:64 SP:F9 PPU:230
FA3D  C9 40     CMP A:40 X:02 Y:95 P:64 SP:F9 PPU:236
FA3F  D0 24     BNE A:40 X:02 Y:95 P:67 SP:F9 PPU:242
FA41  60        RTS A:40 X:02 Y:95 P:67 SP:F9 PPU:248
E937  AD 47 06  LDA A:40 X:02 Y:95 P:67 SP:FB PPU:266
E93A  C9 EA     CMP A:EA X:02 Y:95 P:E5 SP:FB PPU:278
E93C  F0 02     BEQ A:EA X:02 Y:95 P:67 SP:FB PPU:284
E940  C8        INY A:EA X:02 Y:95 P:67 SP:FB PPU:293
E941  A9 00     LDA A:EA X:02 Y:96 P:E5 SP:FB PPU:299
E943  8D 47 06  STA A:00 X:02 Y:96 P:67 SP:FB PPU:305
E946  20 42 FA  JSR A:00 X:02 Y:96 P:67 SP:FB PPU:317
FA42  B8        CLV A:00 X:02 Y:96 P:67 SP:F9 PPU:335
FA43  38        SEC A:00 X:02 Y:96 P:27 SP:F9 PPU:  0
FA44  A9 FF     LDA A:00 X:02 Y:96 P:27 SP:F9 PPU:  6
FA46  60        RTS A:FF X:02 Y:96 P:A5 SP:F9 PPU: 12
E949  C3 45     DCP A:FF X:02 Y:96 P:A5 SP:FB PPU: 30
E94B  EA        NOP A:FF X:02 Y:96 P:27 SP:FB PPU: 54
E94C  EA        NOP A:FF X:02 Y:96 P:27 SP:FB PPU: 60
E94D  EA        NOP A:FF X:02 Y:96 P:27 SP:FB PPU: 66
E94E  EA        NOP A:FF X:02 Y:96 P:27 SP:FB PPU: 72
E94F  20 47 FA  JSR A:FF X:02 Y:96 P:27 SP:FB PPU: 78
FA47  70 1C     BVS A:FF X:02 Y:96 P:27 SP:F9 PPU: 96
FA49  D0 1A     BNE A:FF X:02 Y:96 P:27 SP:F9 PPU:102
FA4B  30 18     BMI A:FF X:02 Y:96 P:27 SP:F9 PPU:108
FA4D  90 16     BCC A:FF X:02 Y:96 P:27 SP:F9 PPU:114
FA4F  C9 FF     CMP A:FF X:02 Y:96 P:27 SP:F9 PPU:120
FA51  D0 12     BNE A:FF X:02 Y:96 P:27 SP:F9 PPU:126
FA53  60        RTS A:FF X:02 Y:96 P:27 SP:F9 PPU:132
E952  AD 47 06  LDA A:FF X:02 Y:96 P:27 SP:FB PPU:150
E955  C9 FF     CMP A:FF X:02 Y:96 P:A5 SP:FB PPU:162
E957  F0 02     BEQ A:FF X:02 Y:96 P:27 SP:FB PPU:168
E95B  C8        INY A:FF X:02 Y:96 P:27 SP:FB PPU:177
E95C  A9 37     LDA A:FF X:02 Y:97 P:A5 SP:FB PPU:183
E95E  8D 47 06  STA A:37 X:02 Y:97 P:25 SP:FB PPU:189
E961  20 54 FA  JSR A:37 X:02 Y:97 P:25 SP:FB PPU:201
FA54  24 01     BIT A:37 X:02 Y:97 P:25 SP:F9 PPU:219
FA56  A9 F0     LDA A:37 X:02 Y:97 P:E5 SP:F9 PPU:228
FA58  60        RTS A:F0 X:02 Y:97 P:E5 SP:F9 PPU:234
E964  C3 45     DCP A:F0 X:02 Y:97 P:E5 SP:FB PPU:252
E966  EA        NOP A:F0 X:02 Y:97 P:E5 SP:FB PPU:276
E967  EA        NOP A:F0 X:02 Y:97 P:E5 SP:FB PPU:282
E968  EA        NOP A:F0 X:02 Y:97 P:E5 SP:FB PPU:288
E969  EA        NOP A:F0 X:02 Y:97 P:E5 SP:FB PPU:294
E96A  20 59 FA  JSR A:F0 X:02 Y:97 P:E5 SP:FB PPU:300
FA59  50 0A     BVC A:F0 X:02 Y:97 P:E5 SP:F9 PPU:318
FA5B  F0 08     BEQ A:F0 X:02 Y:97 P:E5 SP:F9 PPU:324
FA5D  10 06     BPL A:F0 X:02 Y:97 P:E5 SP:F9 PPU:330
FA5F  90 04     BCC A:F0 X:02 Y:97 P:E5 SP:F9 PPU:336
FA61  C9 F0     CMP A:F0 X:02 Y:97 P:E5 SP:F9 PPU:  1
FA63  F0 02     BEQ A:F0 X:02 Y:97 P:67 SP:F9 PPU:  7
FA67  60        RTS A:F0 X:02 Y:97 P:67 SP:F9 PPU: 16
E96D  AD 47 06  LDA A:F0 X:02 Y:97 P:67 SP:FB PPU: 34
E970  C9 36     CMP A:36 X:02 Y:97 P:65 SP:FB PPU: 46
E972  F0 02     BEQ A:36 X:02 Y:97 P:67 SP:FB PPU: 52
E976  C8        INY A:36 X:02 Y:97 P:67 SP:FB PPU: 61
E977  A9 EB     LDA A:36 X:02 Y:98 P:E5 SP:FB PPU: 67
E979  85 47     STA A:EB X:02 Y:98 P:E5 SP:FB PPU: 73
E97B  20 31 FA  JSR A:EB X:02 Y:98 P:E5 SP:FB PPU: 82
FA31  24 01     BIT A:EB X:02 Y:98 P:E5 SP:F9 PPU:100
FA33  18        CLC A:EB X:02 Y:98 P:E5 SP:F9 PPU:109
FA34  A9 40     LDA A:EB X:02 Y:98 P:E4 SP:F9 PPU:115
FA36  60        RTS A:40 X:02 Y:98 P:64 SP:F9 PPU:121
E97E  C7 47     DCP A:40 X:02 Y:98 P:64 SP:FB PPU:139
E980  EA        NOP A:40 X:02 Y:98 P:64 SP:FB PPU:154
E981  EA        NOP A:40 X:02 Y:98 P:64 SP:FB PPU:160
E982  EA        NOP A:40 X:02 Y:98 P:64 SP:FB PPU:166
E983  EA        NOP A:40 X:02 Y:98 P:64 SP:FB PPU:172
E984  20 37 FA  JSR A:40 X:02 Y:98 P:64 SP:FB PPU:178
FA37  50 2C     BVC A:40 X:02 Y:98 P:64 SP:F9 PPU:196
FA39  B0 2A     BCS A:40 X:02 Y:98 P:64 SP:F9 PPU:202
FA3B  30 28     BMI A:40 X:02 Y:98 P:64 SP:F9 PPU:208
FA3D  C9 40     CMP A:40 X:02 Y:98 P:64 SP:F9 PPU:214
FA3F  D0 24     BNE A:40 X:02 Y:98 P:67 SP:F9 PPU:220
FA41  60        RTS A:40 X:02 Y:98 P:67 SP:F9 PPU:226
E987  A5 47     LDA A:40 X:02 Y:98 P:67 SP:FB PPU:244
E989  C9 EA     CMP A:EA X:02 Y:98 P:E5 SP:FB PPU:253
E98B  F0 02     BEQ A:EA X:02 Y:98 P:67 SP:FB PPU:259
E98F  C8        INY A:EA X:02 Y:98 P:67 SP:FB PPU:268
E990  A9 00     LDA A:EA X:02 Y:99 P:E5 SP:FB PPU:274
E992  85 47     STA A:00 X:02 Y:99 P:67 SP:FB PPU:280
E994  20 42 FA  JSR A:00 X:02 Y:99 P:67 SP:FB PPU:289
FA42  B8        CLV A:00 X:02 Y:99 P:67 SP:F9 PPU:307
FA43  38        SEC A:00 X:02 Y:99 P:27 SP:F9 PPU:313
FA44  A9 FF     LDA A:00 X:02 Y:99 P:27 SP:F9 PPU:319
FA46  60        RTS A:FF X:02 Y:99 P:A5 SP:F9 PPU:325
E997  C7 47     DCP A:FF X:02 Y:99 P:A5 SP:FB PPU:  2
E999  EA        NOP A:FF X:02 Y:99 P:27 SP:FB PPU: 17
E99A  EA        NOP A:FF X:02 Y:99 P:27 SP:FB PPU: 23
E99B  EA        NOP A:FF X:02 Y:99 P:27 SP:FB PPU: 29
E99C  EA        NOP A:FF X:02 Y:99 P:27 SP:FB PPU: 35
E99D  20 47 FA  JSR A:FF X:02 Y:99 P:27 SP:FB PPU: 41
FA47  70 1C     BVS A:FF X:02 Y:99 P:27 SP:F9 PPU: 59
FA49  D0 1A     BNE A:FF X:02 Y:99 P:27 SP:F9 PPU: 65
FA4B  30 18     BMI A:FF X:02 Y:99 P:27 SP:F9 PPU: 71
FA4D  90 16     BCC A:FF X:02 Y:99 P:27 SP:F9 PPU: 77
FA4F  C9 FF     CMP A:FF X:02 Y:99 P:27 SP:F9 PPU: 83
FA51  D0 12     BNE A:FF X:02 Y:99 P:27 SP:F9 PPU: 89
FA53  60        RTS A:FF X:02 Y:99 P:27 SP:F9 PPU: 95
E9A0  A5 47     LDA A:FF X:02 Y:99 P:27 SP:FB PPU:113
E9A2  C9 FF     CMP A:FF X:02 Y:99 P:A5 SP:FB PPU:122
E9A4  F0 02     BEQ A:FF X:02 Y:99 P:27 SP:FB PPU:128
E9A8  C8        INY A:FF X:02 Y:99 P:27 SP:FB PPU:137
E9A9  A9 37     LDA A:FF X:02 Y:9A P:A5 SP:FB PPU:143
E9AB  85 47     STA A:37 X:02 Y:9A P:25 SP:FB PPU:149
E9AD  20 54 FA  JSR A:37 X:02 Y:9A P:25 SP:FB PPU:158
FA54  24 01     BIT A:37 X:02 Y:9A P:25 SP:F9 PPU:176
FA56  A9 F0     LDA A:37 X:02 Y:9A P:E5 SP:F9 PPU:185
FA58  60        RTS A:F0 X:02 Y:9A P:E5 SP:F9 PPU:191
E9B0  C7 47     DCP A:F0 X:02 Y:9A P:E5 SP:FB PPU:209
E9B2  EA        NOP A:F0 X:02 Y:9A P:E5 SP:FB PPU:224
E9B3  EA        NOP A:F0 X:02 Y:9A P:E5 SP:FB PPU:230
E9B4  EA        NOP A:F0 X:02 Y:9A P:E5 SP:FB PPU:236
E9B5  EA        NOP A:F0 X:02 Y:9A P:E5 SP:FB PPU:242
E9B6  20 59 FA  JSR A:F0 X:02 Y:9A P:E5 SP:FB PPU:248
FA59  50 0A     BVC A:F0 X:02 Y:9A P:E5 SP:F9 PPU:266
FA5B  F0 08     BEQ A:F0 X:02 Y:9A P:E5 SP:F9 PPU:272
FA5D  10 06     BPL A:F0 X:02 Y:9A P:E5 SP:F9 PPU:278
FA5F  90 04     BCC A:F0 X:02 Y:9A P:E5 SP:F9 PPU:284
FA61  C9 F0     CMP A:F0 X:02 Y:9A P:E5 SP:F9 PPU:290
FA63  F0 02     BEQ A:F0 X:02 Y:9A P:67 SP:F9 PPU:296
FA67  60        RTS A:F0 X:02 Y:9A P:67 SP:F9 PPU:305
E9B9  A5 47     LDA A:F0 X:02 Y:9A P:67 SP:FB PPU:323
E9BB  C9 36     CMP A:36 X:02 Y:9A P:65 SP:FB PPU:332
E9BD  F0 02     BEQ A:36 X:02 Y:9A P:67 SP:FB PPU:338
E9C1  C8        INY A:36 X:02 Y:9A P:67 SP:FB PPU:  6
E9C2  A9 EB     LDA A:36 X:02 Y:9B P:E5 SP:FB PPU: 12
E9C4  8D 47 06  STA A:EB X:02 Y:9B P:E5 SP:FB PPU: 18
E9C7  20 31 FA  JSR A:EB X:02 Y:9B P:E5 SP:FB PPU: 30
FA31  24 01     BIT A:EB X:02 Y:9B P:E5 SP:F9 PPU: 48
FA33  18        CLC A:EB X:02 Y:9B P:E5 SP:F9 PPU: 57
FA34  A9 40     LDA A:EB X:02 Y:9B P:E4 SP:F9 PPU: 63
FA36  60        RTS A:40 X:02 Y:9B P:64 SP:F9 PPU: 69
E9CA  CF 47 06  DCP A:40 X:02 Y:9B P:64 SP:FB PPU: 87
E9CD  EA        NOP A:40 X:02 Y:9B P:64 SP:FB PPU:105
E9CE  EA        NOP A:40 X:02 Y:9B P:64 SP:FB PPU:111
E9CF  EA        NOP A:40 X:02 Y:9B P:64 SP:FB PPU:117
E9D0  EA        NOP A:40 X:02 Y:9B P:64 SP:FB PPU:123
E9D1  20 37 FA  JSR A:40 X:02 Y:9B P:64 SP:FB PPU:129
FA37  50 2C     BVC A:40 X:02 Y:9B P:64 SP:F9 PPU:147
FA39  B0 2A     BCS A:40 X:02 Y:9B P:64 SP:F9 PPU:153
FA3B  30 28     BMI A:40 X:02 Y:9B P:64 SP:F9 PPU:159
FA3D  C9 40     CMP A:40 X:02 Y:9B P:64 SP:F9 PPU:165
FA3F  D0 24     BNE A:40 X:02 Y:9B P:67 SP:F9 PPU:171
FA41  60        RTS A:40 X:02 Y:9B P:67 SP:F9 PPU:177
E9D4  AD 47 06  LDA A:40 X:02 Y:9B P:67 SP:FB PPU:195
E9D7  C9 EA     CMP A:EA X:02 Y:9B P:E5 SP:FB PPU:207
E9D9  F0 02     BEQ A:EA X:02 Y:9B P:67 SP:FB PPU:213
E9DD  C8        INY A:EA X:02 Y:9B P:67 SP:FB PPU:222
E9DE  A9 00     LDA A:EA X:02 Y:9C P:E5 SP:FB PPU:228
E9E0  8D 47 06  STA A:00 X:02 Y:9C P:67 SP:FB PPU:234
E9E3  20 42 FA  JSR A:00 X:02 Y:9C P:67 SP:FB PPU:246
FA42  B8        CLV A:00 X:02 Y:9C P:67 SP:F9 PPU:264
FA43  38        SEC A:00 X:02 Y:9C P:27 SP:F9 PPU:270
FA44  A9 FF     LDA A:00 X:02 Y:9C P:27 SP:F9 PPU:276
FA46  60        RTS A:FF X:02 Y:9C P:A5 SP:F9 PPU:282
E9E6  CF 47 06  DCP A:FF X:02 Y:9C P:A5 SP:FB PPU:300
E9E9  EA        NOP A:FF X:02 Y:9C P:27 SP:FB PPU:318
E9EA  EA        NOP A:FF X:02 Y:9C P:27 SP:FB PPU:324
E9EB  EA        NOP A:FF X:02 Y:9C P:27 SP:FB PPU:330
E9EC  EA        NOP A:FF X:02 Y:9C P:27 SP:FB PPU:336
E9ED  20 47 FA  JSR A:FF X:02 Y:9C P:27 SP:FB PPU:  1
FA47  70 1C     BVS A:FF X:02 Y:9C P:27 SP:F9 PPU: 19
FA49  D0 1A     BNE A:FF X:02 Y:9C P:27 SP:F9 PPU: 25
FA4B  30 18     BMI A:FF X:02 Y:9C P:27 SP:F9 PPU: 31
FA4D  90 16     BCC A:FF X:02 Y:9C P:27 SP:F9 PPU: 37
FA4F  C9 FF     CMP A:FF X:02 Y:9C P:27 SP:F9 PPU: 43
FA51  D0 12     BNE A:FF X:02 Y:9C P:27 SP:F9 PPU: 49
FA53  60        RTS A:FF X:02 Y:9C P:27 SP:F9 PPU: 55
E9F0  AD 47 06  LDA A:FF X:02 Y:9C P:27 SP:FB PPU: 73
E9F3  C9 FF     CMP A:FF X:02 Y:9C P:A5 SP:FB PPU: 85
E9F5  F0 02     BEQ A:FF X:02 Y:9C P:27 SP:FB PPU: 91
E9F9  C8        INY A:FF X:02 Y:9C P:27 SP:FB PPU:100
E9FA  A9 37     LDA A:FF X:02 Y:9D P:A5 SP:FB PPU:106
E9FC  8D 47 06  STA A:37 X:02 Y:9D P:25 SP:FB PPU:112
E9FF  20 54 FA  JSR A:37 X:02 Y:9D P:25 SP:FB PPU:124
FA54  24 01     BIT A:37 X:02 Y:9D P:25 SP:F9 PPU:142
FA56  A9 F0     LDA A:37 X:02 Y:9D P:E5 SP:F9 PPU:151
FA58  60        RTS A:F0 X:02 Y:9D P:E5 SP:F9 PPU:157
EA02  CF 47 06  DCP A:F0 X:02 Y:9D P:E5 SP:FB PPU:175
EA05  EA        NOP A:F0 X:02 Y:9D P:E5 SP:FB PPU:193
EA06  EA        NOP A:F0 X:02 Y:9D P:E5 SP:FB PPU:199
EA07  EA        NOP A:F0 X:02 Y:9D P:E5 SP:FB PPU:205
EA08  EA        NOP A:F0 X:02 Y:9D P:E5 SP:FB PPU:211
EA09  20 59 FA  JSR A:F0 X:02 Y:9D P:E5 SP:FB PPU:217
FA59  50 0A     BVC A:F0 X:02 Y:9D P:E5 SP:F9 PPU:235
FA5B  F0 08     BEQ A:F0 X:02 Y:9D P:E5 SP:F9 PPU:241
FA5D  10 06     BPL A:F0 X:02 Y:9D P:E5 SP:F9 PPU:247
FA5F  90 04     BCC A:F0 X:02 Y:9D P:E5 SP:F9 PPU:253
FA61  C9 F0     CMP A:F0 X:02 Y:9D P:E5 SP:F9 PPU:259
FA63  F0 02     BEQ A:F0 X:02 Y:9D P:67 SP:F9 PPU:265
FA67  60        RTS A:F0 X:02 Y:9D P:67 SP:F9 PPU:274
EA0C  AD 47 06  LDA A:F0 X:02 Y:9D P:67 SP:FB PPU:292
EA0F  C9 36     CMP A:36 X:02 Y:9D P:65 SP:FB PPU:304
EA11  F0 02     BEQ A:36 X:02 Y:9D P:67 SP:FB PPU:310
EA15  A9 EB     LDA A:36 X:02 Y:9D P:67 SP:FB PPU:319
EA17  8D 47 06  STA A:EB X:02 Y:9D P:E5 SP:FB PPU:325
EA1A  A9 48     LDA A:EB X:02 Y:9D P:E5 SP:FB PPU:337
EA1C  85 45     STA A:48 X:02 Y:9D P:65 SP:FB PPU:  2
EA1E  A9 05     LDA A:48 X:02 Y:9D P:65 SP:FB PPU: 11
EA20  85 46     STA A:05 X:02 Y:9D P:65 SP:FB PPU: 17
EA22  A0 FF     LDY A:05 X:02 Y:9D P:65 SP:FB PPU: 26
EA24  20 31 FA  JSR A:05 X:02 Y:FF P:E5 SP:FB PPU: 32
FA31  24 01     BIT A:05 X:02 Y:FF P:E5 SP:F9 PPU: 50
FA33  18        CLC A:05 X:02 Y:FF P:E5 SP:F9 PPU: 59
FA34  A9 40     LDA A:05 X:02 Y:FF P:E4 SP:F9 PPU: 65
FA36  60        RTS A:40 X:02 Y:FF P:64 SP:F9 PPU: 71
EA27  D3 45     DCP A:40 X:02 Y:FF P:64 SP:FB PPU: 89
EA29  EA        NOP A:40 X:02 Y:FF P:64 SP:FB PPU:113
EA2A  EA        NOP A:40 X:02 Y:FF P:64 SP:FB PPU:119
EA2B  08        PHP A:40 X:02 Y:FF P:64 SP:FB PPU:125
EA2C  48        PHA A:40 X:02 Y:FF P:64 SP:FA PPU:134
EA2D  A0 9E     LDY A:40 X:02 Y:FF P:64 SP:F9 PPU:143
EA2F  68        PLA A:40 X:02 Y:9E P:E4 SP:F9 PPU:149
EA30  28        PLP A:40 X:02 Y:9E P:64 SP:FA PPU:161
EA31  20 37 FA  JSR A:40 X:02 Y:9E P:64 SP:FB PPU:173
FA37  50 2C     BVC A:40 X:02 Y:9E P:64 SP:F9 PPU:191
FA39  B0 2A     BCS A:40 X:02 Y:9E P:64 SP:F9 PPU:197
FA3B  30 28     BMI A:40 X:02 Y:9E P:64 SP:F9 PPU:203
FA3D  C9 40     CMP A:40 X:02 Y:9E P:64 SP:F9 PPU:209
FA3F  D0 24     BNE A:40 X:02 Y:9E P:67 SP:F9 PPU:215
FA41  60        RTS A:40 X:02 Y:9E P:67 SP:F9 PPU:221
EA34  AD 47 06  LDA A:40 X:02 Y:9E P:67 SP:FB PPU:239
EA37  C9 EA     CMP A:EA X:02 Y:9E P:E5 SP:FB PPU:251
EA39  F0 02     BEQ A:EA X:02 Y:9E P:67 SP:FB PPU:257
EA3D  A0 FF     LDY A:EA X:02 Y:9E P:67 SP:FB PPU:266
EA3F  A9 00     LDA A:EA X:02 Y:FF P:E5 SP:FB PPU:272
EA41  8D 47 06  STA A:00 X:02 Y:FF P:67 SP:FB PPU:278
EA44  20 42 FA  JSR A:00 X:02 Y:FF P:67 SP:FB PPU:290
FA42  B8        CLV A:00 X:02 Y:FF P:67 SP:F9 PPU:308
FA43  38        SEC A:00 X:02 Y:FF P:27 SP:F9 PPU:314
FA44  A9 FF     LDA A:00 X:02 Y:FF P:27 SP:F9 PPU:320
FA46  60        RTS A:FF X:02 Y:FF P:A5 SP:F9 PPU:326
EA47  D3 45     DCP A:FF X:02 Y:FF P:A5 SP:FB PPU:  3
EA49  EA        NOP A:FF X:02 Y:FF P:27 SP:FB PPU: 27
EA4A  EA        NOP A:FF X:02 Y:FF P:27 SP:FB PPU: 33
EA4B  08        PHP A:FF X:02 Y:FF P:27 SP:FB PPU: 39
EA4C  48        PHA A:FF X:02 Y:FF P:27 SP:FA PPU: 48
EA4D  A0 9F     LDY A:FF X:02 Y:FF P:27 SP:F9 PPU: 57
EA4F  68        PLA A:FF X:02 Y:9F P:A5 SP:F9 PPU: 63
EA50  28        PLP A:FF X:02 Y:9F P:A5 SP:FA PPU: 75
EA51  20 47 FA  JSR A:FF X:02 Y:9F P:27 SP:FB PPU: 87
FA47  70 1C     BVS A:FF X:02 Y:9F P:27 SP:F9 PPU:105
FA49  D0 1A     BNE A:FF X:02 Y:9F P:27 SP:F9 PPU:111
FA4B  30 18     BMI A:FF X:02 Y:9F P:27 SP:F9 PPU:117
FA4D  90 16     BCC A:FF X:02 Y:9F P:27 SP:F9 PPU:123
FA4F  C9 FF     CMP A:FF X:02 Y:9F P:27 SP:F9 PPU:129
FA51  D0 12     BNE A:FF X:02 Y:9F P:27 SP:F9 PPU:135
FA53  60        RTS A:FF X:02 Y:9F P:27 SP:F9 PPU:141
EA54  AD 47 06  LDA A:FF X:02 Y:9F P:27 SP:FB PPU:159
EA57  C9 FF     CMP A:FF X:02 Y:9F P:A5 SP:FB PPU:171
EA59  F0 02     BEQ A:FF X:02 Y:9F P:27 SP:FB PPU:177
EA5D  A0 FF     LDY A:FF X:02 Y:9F P:27 SP:FB PPU:186
EA5F  A9 37     LDA A:FF X:02 Y:FF P:A5 SP:FB PPU:192
EA61  8D 47 06  STA A:37 X:02 Y:FF P:25 SP:FB PPU:198
EA64  20 54 FA  JSR A:37 X:02 Y:FF P:25 SP:FB PPU:210
FA54  24 01     BIT A:37 X:02 Y:FF P:25 SP:F9 PPU:228
FA56  A9 F0     LDA A:37 X:02 Y:FF P:E5 SP:F9 PPU:237
FA58  60        RTS A:F0 X:02 Y:FF P:E5 SP:F9 PPU:243
EA67  D3 45     DCP A:F0 X:02 Y:FF P:E5 SP:FB PPU:261
EA69  EA        NOP A:F0 X:02 Y:FF P:E5 SP:FB PPU:285
EA6A  EA        NOP A:F0 X:02 Y:FF P:E5 SP:FB PPU:291
EA6B  08        PHP A:F0 X:02 Y:FF P:E5 SP:FB PPU:297
EA6C  48        PHA A:F0 X:02 Y:FF P:E5 SP:FA PPU:306
EA6D  A0 A0     LDY A:F0 X:02 Y:FF P:E5 SP:F9 PPU:315
EA6F  68        PLA A:F0 X:02 Y:A0 P:E5 SP:F9 PPU:321
EA70  28        PLP A:F0 X:02 Y:A0 P:E5 SP:FA PPU:333
EA71  20 59 FA  JSR A:F0 X:02 Y:A0 P:E5 SP:FB PPU:  4
FA59  50 0A     BVC A:F0 X:02 Y:A0 P:E5 SP:F9 PPU: 22
FA5B  F0 08     BEQ A:F0 X:02 Y:A0 P:E5 SP:F9 PPU: 28
FA5D  10 06     BPL A:F0 X:02 Y:A0 P:E5 SP:F9 PPU: 34
FA5F  90 04     BCC A:F0 X:02 Y:A0 P:E5 SP:F9 PPU: 40
FA61  C9 F0     CMP A:F0 X:02 Y:A0 P:E5 SP:F9 PPU: 46
FA63  F0 02     BEQ A:F0 X:02 Y:A0 P:67 SP:F9 PPU: 52
FA67  60        RTS A:F0 X:02 Y:A0 P:67 SP:F9 PPU: 61
EA74  AD 47 06  LDA A:F0 X:02 Y:A0 P:67 SP:FB PPU: 79
EA77  C9 36     CMP A:36 X:02 Y:A0 P:65 SP:FB PPU: 91
EA79  F0 02     BEQ A:36 X:02 Y:A0 P:67 SP:FB PPU: 97
EA7D  A0 A1     LDY A:36 X:02 Y:A0 P:67 SP:FB PPU:106
EA7F  A2 FF     LDX A:36 X:02 Y:A1 P:E5 SP:FB PPU:112
EA81  A9 EB     LDA A:36 X:FF Y:A1 P:E5 SP:FB PPU:118
EA83  85 47     STA A:EB X:FF Y:A1 P:E5 SP:FB PPU:124
EA85  20 31 FA  JSR A:EB X:FF Y:A1 P:E5 SP:FB PPU:133
FA31  24 01     BIT A:EB X:FF Y:A1 P:E5 SP:F9 PPU:151
FA33  18        CLC A:EB X:FF Y:A1 P:E5 SP:F9 PPU:160
FA34  A9 40     LDA A:EB X:FF Y:A1 P:E4 SP:F9 PPU:166
FA36  60        RTS A:40 X:FF Y:A1 P:64 SP:F9 PPU:172
EA88  D7 48     DCP A:40 X:FF Y:A1 P:64 SP:FB PPU:190
EA8A  EA        NOP A:40 X:FF Y:A1 P:64 SP:FB PPU:208
EA8B  EA        NOP A:40 X:FF Y:A1 P:64 SP:FB PPU:214
EA8C  EA        NOP A:40 X:FF Y:A1 P:64 SP:FB PPU:220
EA8D  EA        NOP A:40 X:FF Y:A1 P:64 SP:FB PPU:226
EA8E  20 37 FA  JSR A:40 X:FF Y:A1 P:64 SP:FB PPU:232
FA37  50 2C     BVC A:40 X:FF Y:A1 P:64 SP:F9 PPU:250
FA39  B0 2A     BCS A:40 X:FF Y:A1 P:64 SP:F9 PPU:256
FA3B  30 28     BMI A:40 X:FF Y:A1 P:64 SP:F9 PPU:262
FA3D  C9 40     CMP A:40 X:FF Y:A1 P:64 SP:F9 PPU:268
FA3F  D0 24     BNE A:40 X:FF Y:A1 P:67 SP:F9 PPU:274
FA41  60        RTS A:40 X:FF Y:A1 P:67 SP:F9 PPU:280
EA91  A5 47     LDA A:40 X:FF Y:A1 P:67 SP:FB PPU:298
EA93  C9 EA     CMP A:EA X:FF Y:A1 P:E5 SP:FB PPU:307
EA95  F0 02     BEQ A:EA X:FF Y:A1 P:67 SP:FB PPU:313
EA99  C8        INY A:EA X:FF Y:A1 P:67 SP:FB PPU:322
EA9A  A9 00     LDA A:EA X:FF Y:A2 P:E5 SP:FB PPU:328
EA9C  85 47     STA A:00 X:FF Y:A2 P:67 SP:FB PPU:334
EA9E  20 42 FA  JSR A:00 X:FF Y:A2 P:67 SP:FB PPU:  2
FA42  B8        CLV A:00 X:FF Y:A2 P:67 SP:F9 PPU: 20
FA43  38        SEC A:00 X:FF Y:A2 P:27 SP:F9 PPU: 26
FA44  A9 FF     LDA A:00 X:FF Y:A2 P:27 SP:F9 PPU: 32
FA46  60        RTS A:FF X:FF Y:A2 P:A5 SP:F9 PPU: 38
EAA1  D7 48     DCP A:FF X:FF Y:A2 P:A5 SP:FB PPU: 56
EAA3  EA        NOP A:FF X:FF Y:A2 P:27 SP:FB PPU: 74
EAA4  EA        NOP A:FF X:FF Y:A2 P:27 SP:FB PPU: 80
EAA5  EA        NOP A:FF X:FF Y:A2 P:27 SP:FB PPU: 86
EAA6  EA        NOP A:FF X:FF Y:A2 P:27 SP:FB PPU: 92
EAA7  20 47 FA  JSR A:FF X:FF Y:A2 P:27 SP:FB PPU: 98
FA47  70 1C     BVS A:FF X:FF Y:A2 P:27 SP:F9 PPU:116
FA49  D0 1A     BNE A:FF X:FF Y:A2 P:27 SP:F9 PPU:122
FA4B  30 18     BMI A:FF X:FF Y:A2 P:27 SP:F9 PPU:128
FA4D  90 16     BCC A:FF X:FF Y:A2 P:27 SP:F9 PPU:134
FA4F  C9 FF     CMP A:FF X:FF Y:A2 P:27 SP:F9 PPU:140
FA51  D0 12     BNE A:FF X:FF Y:A2 P:27 SP:F9 PPU:146
FA53  60        RTS A:FF X:FF Y:A2 P:27 SP:F9 PPU:152
EAAA  A5 47     LDA A:FF X:FF Y:A2 P:27 SP:FB PPU:170
EAAC  C9 FF     CMP A:FF X:FF Y:A2 P:A5 SP:FB PPU:179
EAAE  F0 02     BEQ A:FF X:FF Y:A2 P:27 SP:FB PPU:185
EAB2  C8        INY A:FF X:FF Y:A2 P:27 SP:FB PPU:194
EAB3  A9 37     LDA A:FF X:FF Y:A3 P:A5 SP:FB PPU:200
EAB5  85 47     STA A:37 X:FF Y:A3 P:25 SP:FB PPU:206
EAB7  20 54 FA  JSR A:37 X:FF Y:A3 P:25 SP:FB PPU:215
FA54  24 01     BIT A:37 X:FF Y:A3 P:25 SP:F9 PPU:233
FA56  A9 F0     LDA A:37 X:FF Y:A3 P:E5 SP:F9 PPU:242
FA58  60        RTS A:F0 X:FF Y:A3 P:E5 SP:F9 PPU:248
EABA  D7 48     DCP A:F0 X:FF Y:A3 P:E5 SP:FB PPU:266
EABC  EA        NOP A:F0 X:FF Y:A3 P:E5 SP:FB PPU:284
EABD  EA        NOP A:F0 X:FF Y:A3 P:E5 SP:FB PPU:290
EABE  EA        NOP A:F0 X:FF Y:A3 P:E5 SP:FB PPU:296
EABF  EA        NOP A:F0 X:FF Y:A3 P:E5 SP:FB PPU:302
EAC0  20 59 FA  JSR A:F0 X:FF Y:A3 P:E5 SP:FB PPU:308
FA59  50 0A     BVC A:F0 X:FF Y:A3 P:E5 SP:F9 PPU:326
FA5B  F0 08     BEQ A:F0 X:FF Y:A3 P:E5 SP:F9 PPU:332
FA5D  10 06     BPL A:F0 X:FF Y:A3 P:E5 SP:F9 PPU:338
FA5F  90 04     BCC A:F0 X:FF Y:A3 P:E5 SP:F9 PPU:  3
FA61  C9 F0     CMP A:F0 X:FF Y:A3 P:E5 SP:F9 PPU:  9
FA63  F0 02     BEQ A:F0 X:FF Y:A3 P:67 SP:F9 PPU: 15
FA67  60        RTS A:F0 X:FF Y:A3 P:67 SP:F9 PPU: 24
EAC3  A5 47     LDA A:F0 X:FF Y:A3 P:67 SP:FB PPU: 42
EAC5  C9 36     CMP A:36 X:FF Y:A3 P:65 SP:FB PPU: 51
EAC7  F0 02     BEQ A:36 X:FF Y:A3 P:67 SP:FB PPU: 57
EACB  A9 EB     LDA A:36 X:FF Y:A3 P:67 SP:FB PPU: 66
EACD  8D 47 06  STA A:EB X:FF Y:A3 P:E5 SP:FB PPU: 72
EAD0  A0 FF     LDY A:EB X:FF Y:A3 P:E5 SP:FB PPU: 84
EAD2  20 31 FA  JSR A:EB X:FF Y:FF P:E5 SP:FB PPU: 90
FA31  24 01     BIT A:EB X:FF Y:FF P:E5 SP:F9 PPU:108
FA33  18        CLC A:EB X:FF Y:FF P:E5 SP:F9 PPU:117
FA34  A9 40     LDA A:EB X:FF Y:FF P:E4 SP:F9 PPU:123
FA36  60        RTS A:40 X:FF Y:FF P:64 SP:F9 PPU:129
EAD5  DB 48 05  DCP A:40 X:FF Y:FF P:64 SP:FB PPU:147
EAD8  EA        NOP A:40 X:FF Y:FF P:64 SP:FB PPU:168
EAD9  EA        NOP A:40 X:FF Y:FF P:64 SP:FB PPU:174
EADA  08        PHP A:40 X:FF Y:FF P:64 SP:FB PPU:180
EADB  48        PHA A:40 X:FF Y:FF P:64 SP:FA PPU:189
EADC  A0 A4     LDY A:40 X:FF Y:FF P:64 SP:F9 PPU:198
EADE  68        PLA A:40 X:FF Y:A4 P:E4 SP:F9 PPU:204
EADF  28        PLP A:40 X:FF Y:A4 P:64 SP:FA PPU:216
EAE0  20 37 FA  JSR A:40 X:FF Y:A4 P:64 SP:FB PPU:228
FA37  50 2C     BVC A:40 X:FF Y:A4 P:64 SP:F9 PPU:246
FA39  B0 2A     BCS A:40 X:FF Y:A4 P:64 SP:F9 PPU:252
FA3B  30 28     BMI A:40 X:FF Y:A4 P:64 SP:F9 PPU:258
FA3D  C9 40     CMP A:40 X:FF Y:A4 P:64 SP:F9 PPU:264
FA3F  D0 24     BNE A:40 X:FF Y:A4 P:67 SP:F9 PPU:270
FA41  60        RTS A:40 X:FF Y:A4 P:67 SP:F9 PPU:276
EAE3  AD 47 06  LDA A:40 X:FF Y:A4 P:67 SP:FB PPU:294
EAE6  C9 EA     CMP A:EA X:FF Y:A4 P:E5 SP:FB PPU:306
EAE8  F0 02     BEQ A:EA X:FF Y:A4 P:67 SP:FB PPU:312
EAEC  A0 FF     LDY A:EA X:FF Y:A4 P:67 SP:FB PPU:321
EAEE  A9 00     LDA A:EA X:FF Y:FF P:E5 SP:FB PPU:327
EAF0  8D 47 06  STA A:00 X:FF Y:FF P:67 SP:FB PPU:333
EAF3  20 42 FA  JSR A:00 X:FF Y:FF P:67 SP:FB PPU:  4
FA42  B8        CLV A:00 X:FF Y:FF P:67 SP:F9 PPU: 22
FA43  38        SEC A:00 X:FF Y:FF P:27 SP:F9 PPU: 28
FA44  A9 FF     LDA A:00 X:FF Y:FF P:27 SP:F9 PPU: 34
FA46  60        RTS A:FF X:FF Y:FF P:A5 SP:F9 PPU: 40
EAF6  DB 48 05  DCP A:FF X:FF Y:FF P:A5 SP:FB PPU: 58
EAF9  EA        NOP A:FF X:FF Y:FF P:27 SP:FB PPU: 79
EAFA  EA        NOP A:FF X:FF Y:FF P:27 SP:FB PPU: 85
EAFB  08        PHP A:FF X:FF Y:FF P:27 SP:FB PPU: 91
EAFC  48        PHA A:FF X:FF Y:FF P:27 SP:FA PPU:100
EAFD  A0 A5     LDY A:FF X:FF Y:FF P:27 SP:F9 PPU:109
EAFF  68        PLA A:FF X:FF Y:A5 P:A5 SP:F9 PPU:115
EB00  28        PLP A:FF X:FF Y:A5 P:A5 SP:FA PPU:127
EB01  20 47 FA  JSR A:FF X:FF Y:A5 P:27 SP:FB PPU:139
FA47  70 1C     BVS A:FF X:FF Y:A5 P:27 SP:F9 PPU:157
FA49  D0 1A     BNE A:FF X:FF Y:A5 P:27 SP:F9 PPU:163
FA4B  30 18     BMI A:FF X:FF Y:A5 P:27 SP:F9 PPU:169
FA4D  90 16     BCC A:FF X:FF Y:A5 P:27 SP:F9 PPU:175
FA4F  C9 FF     CMP A:FF X:FF Y:A5 P:27 SP:F9 PPU:181
FA51  D0 12     BNE A:FF X:FF Y:A5 P:27 SP:F9 PPU:187
FA53  60        RTS A:FF X:FF Y:A5 P:27 SP:F9 PPU:193
EB04  AD 47 06  LDA A:FF X:FF Y:A5 P:27 SP:FB PPU:211
EB07  C9 FF     CMP A:FF X:FF Y:A5 P:A5 SP:FB PPU:223
EB09  F0 02     BEQ A:FF X:FF Y:A5 P:27 SP:FB PPU:229
EB0D  A0 FF     LDY A:FF X:FF Y:A5 P:27 SP:FB PPU:238
EB0F  A9 37     LDA A:FF X:FF Y:FF P:A5 SP:FB PPU:244
EB11  8D 47 06  STA A:37 X:FF Y:FF P:25 SP:FB PPU:250
EB14  20 54 FA  JSR A:37 X:FF Y:FF P:25 SP:FB PPU:262
FA54  24 01     BIT A:37 X:FF Y:FF P:25 SP:F9 PPU:280
FA56  A9 F0     LDA A:37 X:FF Y:FF P:E5 SP:F9 PPU:289
FA58  60        RTS A:F0 X:FF Y:FF P:E5 SP:F9 PPU:295
EB17  DB 48 05  DCP A:F0 X:FF Y:FF P:E5 SP:FB PPU:313
EB1A  EA        NOP A:F0 X:FF Y:FF P:E5 SP:FB PPU:334
EB1B  EA        NOP A:F0 X:FF Y:FF P:E5 SP:FB PPU:340
EB1C  08        PHP A:F0 X:FF Y:FF P:E5 SP:FB PPU:  5
EB1D  48        PHA A:F0 X:FF Y:FF P:E5 SP:FA PPU: 14
EB1E  A0 A6     LDY A:F0 X:FF Y:FF P:E5 SP:F9 PPU: 23
EB20  68        PLA A:F0 X:FF Y:A6 P:E5 SP:F9 PPU: 29
EB21  28        PLP A:F0 X:FF Y:A6 P:E5 SP:FA PPU: 41
EB22  20 59 FA  JSR A:F0 X:FF Y:A6 P:E5 SP:FB PPU: 53
FA59  50 0A     BVC A:F0 X:FF Y:A6 P:E5 SP:F9 PPU: 71
FA5B  F0 08     BEQ A:F0 X:FF Y:A6 P:E5 SP:F9 PPU: 77
FA5D  10 06     BPL A:F0 X:FF Y:A6 P:E5 SP:F9 PPU: 83
FA5F  90 04     BCC A:F0 X:FF Y:A6 P:E5 SP:F9 PPU: 89
FA61  C9 F0     CMP A:F0 X:FF Y:A6 P:E5 SP:F9 PPU: 95
FA63  F0 02     BEQ A:F0 X:FF Y:A6 P:67 SP:F9 PPU:101
FA67  60        RTS A:F0 X:FF Y:A6 P:67 SP:F9 PPU:110
EB25  AD 47 06  LDA A:F0 X:FF Y:A6 P:67 SP:FB PPU:128
EB28  C9 36     CMP A:36 X:FF Y:A6 P:65 SP:FB PPU:140
EB2A  F0 02     BEQ A:36 X:FF Y:A6 P:67 SP:FB PPU:146
EB2E  A0 A7     LDY A:36 X:FF Y:A6 P:67 SP:FB PPU:155
EB30  A2 FF     LDX A:36 X:FF Y:A7 P:E5 SP:FB PPU:161
EB32  A9 EB     LDA A:36 X:FF Y:A7 P:E5 SP:FB PPU:167
EB34  8D 47 06  STA A:EB X:FF Y:A7 P:E5 SP:FB PPU:173
EB37  20 31 FA  JSR A:EB X:FF Y:A7 P:E5 SP:FB PPU:185
FA31  24 01     BIT A:EB X:FF Y:A7 P:E5 SP:F9 PPU:203
FA33  18        CLC A:EB X:FF Y:A7 P:E5 SP:F9 PPU:212
FA34  A9 40     LDA A:EB X:FF Y:A7 P:E4 SP:F9 PPU:218
FA36  60        RTS A:40 X:FF Y:A7 P:64 SP:F9 PPU:224
EB3A  DF 48 05  DCP A:40 X:FF Y:A7 P:64 SP:FB PPU:242
EB3D  EA        NOP A:40 X:FF Y:A7 P:64 SP:FB PPU:263
EB3E  EA        NOP A:40 X:FF Y:A7 P:64 SP:FB PPU:269
EB3F  EA        NOP A:40 X:FF Y:A7 P:64 SP:FB PPU:275
EB40  EA        NOP A:40 X:FF Y:A7 P:64 SP:FB PPU:281
EB41  20 37 FA  JSR A:40 X:FF Y:A7 P:64 SP:FB PPU:287
FA37  50 2C     BVC A:40 X:FF Y:A7 P:64 SP:F9 PPU:305
FA39  B0 2A     BCS A:40 X:FF Y:A7 P:64 SP:F9 PPU:311
FA3B  30 28     BMI A:40 X:FF Y:A7 P:64 SP:F9 PPU:317
FA3D  C9 40     CMP A:40 X:FF Y:A7 P:64 SP:F9 PPU:323
FA3F  D0 24     BNE A:40 X:FF Y:A7 P:67 SP:F9 PPU:329
FA41  60        RTS A:40 X:FF Y:A7 P:67 SP:F9 PPU:335
EB44  AD 47 06  LDA A:40 X:FF Y:A7 P:67 SP:FB PPU: 12
EB47  C9 EA     CMP A:EA X:FF Y:A7 P:E5 SP:FB PPU: 24
EB49  F0 02     BEQ A:EA X:FF Y:A7 P:67 SP:FB PPU: 30
EB4D  C8        INY A:EA X:FF Y:A7 P:67 SP:FB PPU: 39
EB4E  A9 00     LDA A:EA X:FF Y:A8 P:E5 SP:FB PPU: 45
EB50  8D 47 06  STA A:00 X:FF Y:A8 P:67 SP:FB PPU: 51
EB53  20 42 FA  JSR A:00 X:FF Y:A8 P:67 SP:FB PPU: 63
FA42  B8        CLV A:00 X:FF Y:A8 P:67 SP:F9 PPU: 81
FA43  38        SEC A:00 X:FF Y:A8 P:27 SP:F9 PPU: 87
FA44  A9 FF     LDA A:00 X:FF Y:A8 P:27 SP:F9 PPU: 93
FA46  60        RTS A:FF X:FF Y:A8 P:A5 SP:F9 PPU: 99
EB56  DF 48 05  DCP A:FF X:FF Y:A8 P:A5 SP:FB PPU:117
EB59  EA        NOP A:FF X:FF Y:A8 P:27 SP:FB PPU:138
EB5A  EA        NOP A:FF X:FF Y:A8 P:27 SP:FB PPU:144
EB5B  EA        NOP A:FF X:FF Y:A8 P:27 SP:FB PPU:150
EB5C  EA        NOP A:FF X:FF Y:A8 P:27 SP:FB PPU:156
EB5D  20 47 FA  JSR A:FF X:FF Y:A8 P:27 SP:FB PPU:162
FA47  70 1C     BVS A:FF X:FF Y:A8 P:27 SP:F9 PPU:180
FA49  D0 1A     BNE A:FF X:FF Y:A8 P:27 SP:F9 PPU:186
FA4B  30 18     BMI A:FF X:FF Y:A8 P:27 SP:F9 PPU:192
FA4D  90 16     BCC A:FF X:FF Y:A8 P:27 SP:F9 PPU:198
FA4F  C9 FF     CMP A:FF X:FF Y:A8 P:27 SP:F9 PPU:204
FA51  D0 12     BNE A:FF X:FF Y:A8 P:27 SP:F9 PPU:210
FA53  60        RTS A:FF X:FF Y:A8 P:27 SP:F9 PPU:216
EB60  AD 47 06  LDA A:FF X:FF Y:A8 P:27 SP:FB PPU:234
EB63  C9 FF     CMP A:FF X:FF Y:A8 P:A5 SP:FB PPU:246
EB65  F0 02     BEQ A:FF X:FF Y:A8 P:27 SP:FB PPU:252
EB69  C8        INY A:FF X:FF Y:A8 P:27 SP:FB PPU:261
EB6A  A9 37     LDA A:FF X:FF Y:A9 P:A5 SP:FB PPU:267
EB6C  8D 47 06  STA A:37 X:FF Y:A9 P:25 SP:FB PPU:273
EB6F  20 54 FA  JSR A:37 X:FF Y:A9 P:25 SP:FB PPU:285
FA54  24 01     BIT A:37 X:FF Y:A9 P:25 SP:F9 PPU:303
FA56  A9 F0     LDA A:37 X:FF Y:A9 P:E5 SP:F9 PPU:312
FA58  60        RTS A:F0 X:FF Y:A9 P:E5 SP:F9 PPU:318
EB72  DF 48 05  DCP A:F0 X:FF Y:A9 P:E5 SP:FB PPU:336
EB75  EA        NOP A:F0 X:FF Y:A9 P:E5 SP:FB PPU: 16
EB76  EA        NOP A:F0 X:FF Y:A9 P:E5 SP:FB PPU: 22
EB77  EA        NOP A:F0 X:FF Y:A9 P:E5 SP:FB PPU: 28
EB78  EA        NOP A:F0 X:FF Y:A9 P:E5 SP:FB PPU: 34
EB79  20 59 FA  JSR A:F0 X:FF Y:A9 P:E5 SP:FB PPU: 40
FA59  50 0A     BVC A:F0 X:FF Y:A9 P:E5 SP:F9 PPU: 58
FA5B  F0 08     BEQ A:F0 X:FF Y:A9 P:E5 SP:F9 PPU: 64
FA5D  10 06     BPL A:F0 X:FF Y:A9 P:E5 SP:F9 PPU: 70
FA5F  90 04     BCC A:F0 X:FF Y:A9 P:E5 SP:F9 PPU: 76
FA61  C9 F0     CMP A:F0 X:FF Y:A9 P:E5 SP:F9 PPU: 82
FA63  F0 02     BEQ A:F0 X:FF Y:A9 P:67 SP:F9 PPU: 88
FA67  60        RTS A:F0 X:FF Y:A9 P:67 SP:F9 PPU: 97
EB7C  AD 47 06  LDA A:F0 X:FF Y:A9 P:67 SP:FB PPU:115
EB7F  C9 36     CMP A:36 X:FF Y:A9 P:65 SP:FB PPU:127
EB81  F0 02     BEQ A:36 X:FF Y:A9 P:67 SP:FB PPU:133
EB85  60        RTS A:36 X:FF Y:A9 P:67 SP:FB PPU:142
C63E  20 86 EB  JSR A:36 X:FF Y:A9 P:67 SP:FD PPU:160
EB86  A9 FF     LDA A:36 X:FF Y:A9 P:67 SP:FB PPU:178
EB88  85 01     STA A:FF X:FF Y:A9 P:E5 SP:FB PPU:184
EB8A  A0 AA     LDY A:FF X:FF Y:A9 P:E5 SP:FB PPU:193
EB8C  A2 02     LDX A:FF X:FF Y:AA P:E5 SP:FB PPU:199
EB8E  A9 47     LDA A:FF X:02 Y:AA P:65 SP:FB PPU:205
EB90  85 47     STA A:47 X:02 Y:AA P:65 SP:FB PPU:211
EB92  A9 06     LDA A:47 X:02 Y:AA P:65 SP:FB PPU:220
EB94  85 48     STA A:06 X:02 Y:AA P:65 SP:FB PPU:226
EB96  A9 EB     LDA A:06 X:02 Y:AA P:65 SP:FB PPU:235
EB98  8D 47 06  STA A:EB X:02 Y:AA P:E5 SP:FB PPU:241
EB9B  20 B1 FA  JSR A:EB X:02 Y:AA P:E5 SP:FB PPU:253
FAB1  24 01     BIT A:EB X:02 Y:AA P:E5 SP:F9 PPU:271
FAB3  18        CLC A:EB X:02 Y:AA P:E5 SP:F9 PPU:280
FAB4  A9 40     LDA A:EB X:02 Y:AA P:E4 SP:F9 PPU:286
FAB6  60        RTS A:40 X:02 Y:AA P:64 SP:F9 PPU:292
EB9E  E3 45     ISC A:40 X:02 Y:AA P:64 SP:FB PPU:310
EBA0  EA        NOP A:53 X:02 Y:AA P:24 SP:FB PPU:334
EBA1  EA        NOP A:53 X:02 Y:AA P:24 SP:FB PPU:340
EBA2  EA        NOP A:53 X:02 Y:AA P:24 SP:FB PPU:  5
EBA3  EA        NOP A:53 X:02 Y:AA P:24 SP:FB PPU: 11
EBA4  20 B7 FA  JSR A:53 X:02 Y:AA P:24 SP:FB PPU: 17
FAB7  70 2D     BVS A:53 X:02 Y:AA P:24 SP:F9 PPU: 35
FAB9  B0 2B     BCS A:53 X:02 Y:AA P:24 SP:F9 PPU: 41
FABB  30 29     BMI A:53 X:02 Y:AA P:24 SP:F9 PPU: 47
FABD  C9 53     CMP A:53 X:02 Y:AA P:24 SP:F9 PPU: 53
FABF  D0 25     BNE A:53 X:02 Y:AA P:27 SP:F9 PPU: 59
FAC1  60        RTS A:53 X:02 Y:AA P:27 SP:F9 PPU: 65
EBA7  AD 47 06  LDA A:53 X:02 Y:AA P:27 SP:FB PPU: 83
EBAA  C9 EC     CMP A:EC X:02 Y:AA P:A5 SP:FB PPU: 95
EBAC  F0 02     BEQ A:EC X:02 Y:AA P:27 SP:FB PPU:101
EBB0  C8        INY A:EC X:02 Y:AA P:27 SP:FB PPU:110
EBB1  A9 FF     LDA A:EC X:02 Y:AB P:A5 SP:FB PPU:116
EBB3  8D 47 06  STA A:FF X:02 Y:AB P:A5 SP:FB PPU:122
EBB6  20 C2 FA  JSR A:FF X:02 Y:AB P:A5 SP:FB PPU:134
FAC2  B8        CLV A:FF X:02 Y:AB P:A5 SP:F9 PPU:152
FAC3  38        SEC A:FF X:02 Y:AB P:A5 SP:F9 PPU:158
FAC4  A9 FF     LDA A:FF X:02 Y:AB P:A5 SP:F9 PPU:164
FAC6  60        RTS A:FF X:02 Y:AB P:A5 SP:F9 PPU:170
EBB9  E3 45     ISC A:FF X:02 Y:AB P:A5 SP:FB PPU:188
EBBB  EA        NOP A:FF X:02 Y:AB P:A5 SP:FB PPU:212
EBBC  EA        NOP A:FF X:02 Y:AB P:A5 SP:FB PPU:218
EBBD  EA        NOP A:FF X:02 Y:AB P:A5 SP:FB PPU:224
EBBE  EA        NOP A:FF X:02 Y:AB P:A5 SP:FB PPU:230
EBBF  20 C7 FA  JSR A:FF X:02 Y:AB P:A5 SP:FB PPU:236
FAC7  70 1D     BVS A:FF X:02 Y:AB P:A5 SP:F9 PPU:254
FAC9  F0 1B     BEQ A:FF X:02 Y:AB P:A5 SP:F9 PPU:260
FACB  10 19     BPL A:FF X:02 Y:AB P:A5 SP:F9 PPU:266
FACD  90 17     BCC A:FF X:02 Y:AB P:A5 SP:F9 PPU:272
FACF  C9 FF     CMP A:FF X:02 Y:AB P:A5 SP:F9 PPU:278
FAD1  D0 13     BNE A:FF X:02 Y:AB P:27 SP:F9 PPU:284
FAD3  60        RTS A:FF X:02 Y:AB P:27 SP:F9 PPU:290
EBC2  AD 47 06  LDA A:FF X:02 Y:AB P:27 SP:FB PPU:308
EBC5  C9 00     CMP A:00 X:02 Y:AB P:27 SP:FB PPU:320
EBC7  F0 02     BEQ A:00 X:02 Y:AB P:27 SP:FB PPU:326
EBCB  C8        INY A:00 X:02 Y:AB P:27 SP:FB PPU:335
EBCC  A9 37     LDA A:00 X:02 Y:AC P:A5 SP:FB PPU:  0
EBCE  8D 47 06  STA A:37 X:02 Y:AC P:25 SP:FB PPU:  6
EBD1  20 D4 FA  JSR A:37 X:02 Y:AC P:25 SP:FB PPU: 18
FAD4  24 01     BIT A:37 X:02 Y:AC P:25 SP:F9 PPU: 36
FAD6  38        SEC A:37 X:02 Y:AC P:E5 SP:F9 PPU: 45
FAD7  A9 F0     LDA A:37 X:02 Y:AC P:E5 SP:F9 PPU: 51
FAD9  60        RTS A:F0 X:02 Y:AC P:E5 SP:F9 PPU: 57
EBD4  E3 45     ISC A:F0 X:02 Y:AC P:E5 SP:FB PPU: 75
EBD6  EA        NOP A:B8 X:02 Y:AC P:A5 SP:FB PPU: 99
EBD7  EA        NOP A:B8 X:02 Y:AC P:A5 SP:FB PPU:105
EBD8  EA        NOP A:B8 X:02 Y:AC P:A5 SP:FB PPU:111
EBD9  EA        NOP A:B8 X:02 Y:AC P:A5 SP:FB PPU:117
EBDA  20 DA FA  JSR A:B8 X:02 Y:AC P:A5 SP:FB PPU:123
FADA  70 0A     BVS A:B8 X:02 Y:AC P:A5 SP:F9 PPU:141
FADC  F0 08     BEQ A:B8 X:02 Y:AC P:A5 SP:F9 PPU:147
FADE  10 06     BPL A:B8 X:02 Y:AC P:A5 SP:F9 PPU:153
FAE0  90 04     BCC A:B8 X:02 Y:AC P:A5 SP:F9 PPU:159
FAE2  C9 B8     CMP A:B8 X:02 Y:AC P:A5 SP:F9 PPU:165
FAE4  F0 02     BEQ A:B8 X:02 Y:AC P:27 SP:F9 PPU:171
FAE8  60        RTS A:B8 X:02 Y:AC P:27 SP:F9 PPU:180
EBDD  AD 47 06  LDA A:B8 X:02 Y:AC P:27 SP:FB PPU:198
EBE0  C9 38     CMP A:38 X:02 Y:AC P:25 SP:FB PPU:210
EBE2  F0 02     BEQ A:38 X:02 Y:AC P:27 SP:FB PPU:216
EBE6  C8        INY A:38 X:02 Y:AC P:27 SP:FB PPU:225
EBE7  A9 EB     LDA A:38 X:02 Y:AD P:A5 SP:FB PPU:231
EBE9  85 47     STA A:EB X:02 Y:AD P:A5 SP:FB PPU:237
EBEB  20 B1 FA  JSR A:EB X:02 Y:AD P:A5 SP:FB PPU:246
FAB1  24 01     BIT A:EB X:02 Y:AD P:A5 SP:F9 PPU:264
FAB3  18        CLC A:EB X:02 Y:AD P:E5 SP:F9 PPU:273
FAB4  A9 40     LDA A:EB X:02 Y:AD P:E4 SP:F9 PPU:279
FAB6  60        RTS A:40 X:02 Y:AD P:64 SP:F9 PPU:285
EBEE  E7 47     ISC A:40 X:02 Y:AD P:64 SP:FB PPU:303
EBF0  EA        NOP A:53 X:02 Y:AD P:24 SP:FB PPU:318
EBF1  EA        NOP A:53 X:02 Y:AD P:24 SP:FB PPU:324
EBF2  EA        NOP A:53 X:02 Y:AD P:24 SP:FB PPU:330
EBF3  EA        NOP A:53 X:02 Y:AD P:24 SP:FB PPU:336
EBF4  20 B7 FA  JSR A:53 X:02 Y:AD P:24 SP:FB PPU:  1
FAB7  70 2D     BVS A:53 X:02 Y:AD P:24 SP:F9 PPU: 19
FAB9  B0 2B     BCS A:53 X:02 Y:AD P:24 SP:F9 PPU: 25
FABB  30 29     BMI A:53 X:02 Y:AD P:24 SP:F9 PPU: 31
FABD  C9 53     CMP A:53 X:02 Y:AD P:24 SP:F9 PPU: 37
FABF  D0 25     BNE A:53 X:02 Y:AD P:27 SP:F9 PPU: 43
FAC1  60        RTS A:53 X:02 Y:AD P:27 SP:F9 PPU: 49
EBF7  A5 47     LDA A:53 X:02 Y:AD P:27 SP:FB PPU: 67
EBF9  C9 EC     CMP A:EC X:02 Y:AD P:A5 SP:FB PPU: 76
EBFB  F0 02     BEQ A:EC X:02 Y:AD P:27 SP:FB PPU: 82
EBFF  C8        INY A:EC X:02 Y:AD P:27 SP:FB PPU: 91
EC00  A9 FF     LDA A:EC X:02 Y:AE P:A5 SP:FB PPU: 97
EC02  85 47     STA A:FF X:02 Y:AE P:A5 SP:FB PPU:103
EC04  20 C2 FA  JSR A:FF X:02 Y:AE P:A5 SP:FB PPU:112
FAC2  B8        CLV A:FF X:02 Y:AE P:A5 SP:F9 PPU:130
FAC3  38        SEC A:FF X:02 Y:AE P:A5 SP:F9 PPU:136
FAC4  A9 FF     LDA A:FF X:02 Y:AE P:A5 SP:F9 PPU:142
FAC6  60        RTS A:FF X:02 Y:AE P:A5 SP:F9 PPU:148
EC07  E7 47     ISC A:FF X:02 Y:AE P:A5 SP:FB PPU:166
EC09  EA        NOP A:FF X:02 Y:AE P:A5 SP:FB PPU:181
EC0A  EA        NOP A:FF X:02 Y:AE P:A5 SP:FB PPU:187
EC0B  EA        NOP A:FF X:02 Y:AE P:A5 SP:FB PPU:193
EC0C  EA        NOP A:FF X:02 Y:AE P:A5 SP:FB PPU:199
EC0D  20 C7 FA  JSR A:FF X:02 Y:AE P:A5 SP:FB PPU:205
FAC7  70 1D     BVS A:FF X:02 Y:AE P:A5 SP:F9 PPU:223
FAC9  F0 1B     BEQ A:FF X:02 Y:AE P:A5 SP:F9 PPU:229
FACB  10 19     BPL A:FF X:02 Y:AE P:A5 SP:F9 PPU:235
FACD  90 17     BCC A:FF X:02 Y:AE P:A5 SP:F9 PPU:241
FACF  C9 FF     CMP A:FF X:02 Y:AE P:A5 SP:F9 PPU:247
FAD1  D0 13     BNE A:FF X:02 Y:AE P:27 SP:F9 PPU:253
FAD3  60        RTS A:FF X:02 Y:AE P:27 SP:F9 PPU:259
EC10  A5 47     LDA A:FF X:02 Y:AE P:27 SP:FB PPU:277
EC12  C9 00     CMP A:00 X:02 Y:AE P:27 SP:FB PPU:286
EC14  F0 02     BEQ A:00 X:02 Y:AE P:27 SP:FB PPU:292
EC18  C8        INY A:00 X:02 Y:AE P:27 SP:FB PPU:301
EC19  A9 37     LDA A:00 X:02 Y:AF P:A5 SP:FB PPU:307
EC1B  85 47     STA A:37 X:02 Y:AF P:25 SP:FB PPU:313
EC1D  20 D4 FA  JSR A:37 X:02 Y:AF P:25 SP:FB PPU:322
FAD4  24 01     BIT A:37 X:02 Y:AF P:25 SP:F9 PPU:340
FAD6  38        SEC A:37 X:02 Y:AF P:E5 SP:F9 PPU:  8
FAD7  A9 F0     LDA A:37 X:02 Y:AF P:E5 SP:F9 PPU: 14
FAD9  60        RTS A:F0 X:02 Y:AF P:E5 SP:F9 PPU: 20
EC20  E7 47     ISC A:F0 X:02 Y:AF P:E5 SP:FB PPU: 38
EC22  EA        NOP A:B8 X:02 Y:AF P:A5 SP:FB PPU: 53
EC23  EA        NOP A:B8 X:02 Y:AF P:A5 SP:FB PPU: 59
EC24  EA        NOP A:B8 X:02 Y:AF P:A5 SP:FB PPU: 65
EC25  EA        NOP A:B8 X:02 Y:AF P:A5 SP:FB PPU: 71
EC26  20 DA FA  JSR A:B8 X:02 Y:AF P:A5 SP:FB PPU: 77
FADA  70 0A     BVS A:B8 X:02 Y:AF P:A5 SP:F9 PPU: 95
FADC  F0 08     BEQ A:B8 X:02 Y:AF P:A5 SP:F9 PPU:101
FADE  10 06     BPL A:B8 X:02 Y:AF P:A5 SP:F9 PPU:107
FAE0  90 04     BCC A:B8 X:02 Y:AF P:A5 SP:F9 PPU:113
FAE2  C9 B8     CMP A:B8 X:02 Y:AF P:A5 SP:F9 PPU:119
FAE4  F0 02     BEQ A:B8 X:02 Y:AF P:27 SP:F9 PPU:125
FAE8  60        RTS A:B8 X:02 Y:AF P:27 SP:F9 PPU:134
EC29  A5 47     LDA A:B8 X:02 Y:AF P:27 SP:FB PPU:152
EC2B  C9 38     CMP A:38 X:02 Y:AF P:25 SP:FB PPU:161
EC2D  F0 02     BEQ A:38 X:02 Y:AF P:27 SP:FB PPU:167
EC31  C8        INY A:38 X:02 Y:AF P:27 SP:FB PPU:176
EC32  A9 EB     LDA A:38 X:02 Y:B0 P:A5 SP:FB PPU:182
EC34  8D 47 06  STA A:EB X:02 Y:B0 P:A5 SP:FB PPU:188
EC37  20 B1 FA  JSR A:EB X:02 Y:B0 P:A5 SP:FB PPU:200
FAB1  24 01     BIT A:EB X:02 Y:B0 P:A5 SP:F9 PPU:218
FAB3  18        CLC A:EB X:02 Y:B0 P:E5 SP:F9 PPU:227
FAB4  A9 40     LDA A:EB X:02 Y:B0 P:E4 SP:F9 PPU:233
FAB6  60        RTS A:40 X:02 Y:B0 P:64 SP:F9 PPU:239
EC3A  EF 47 06  ISC A:40 X:02 Y:B0 P:64 SP:FB PPU:257
EC3D  EA        NOP A:53 X:02 Y:B0 P:24 SP:FB PPU:275
EC3E  EA        NOP A:53 X:02 Y:B0 P:24 SP:FB PPU:281
EC3F  EA        NOP A:53 X:02 Y:B0 P:24 SP:FB PPU:287
EC40  EA        NOP A:53 X:02 Y:B0 P:24 SP:FB PPU:293
EC41  20 B7 FA  JSR A:53 X:02 Y:B0 P:24 SP:FB PPU:299
FAB7  70 2D     BVS A:53 X:02 Y:B0 P:24 SP:F9 PPU:317
FAB9  B0 2B     BCS A:53 X:02 Y:B0 P:24 SP:F9 PPU:323
FABB  30 29     BMI A:53 X:02 Y:B0 P:24 SP:F9 PPU:329
FABD  C9 53     CMP A:53 X:02 Y:B0 P:24 SP:F9 PPU:335
FABF  D0 25     BNE A:53 X:02 Y:B0 P:27 SP:F9 PPU:  0
FAC1  60        RTS A:53 X:02 Y:B0 P:27 SP:F9 PPU:  6
EC44  AD 47 06  LDA A:53 X:02 Y:B0 P:27 SP:FB PPU: 24
EC47  C9 EC     CMP A:EC X:02 Y:B0 P:A5 SP:FB PPU: 36
EC49  F0 02     BEQ A:EC X:02 Y:B0 P:27 SP:FB PPU: 42
EC4D  C8        INY A:EC X:02 Y:B0 P:27 SP:FB PPU: 51
EC4E  A9 FF     LDA A:EC X:02 Y:B1 P:A5 SP:FB PPU: 57
EC50  8D 47 06  STA A:FF X:02 Y:B1 P:A5 SP:FB PPU: 63
EC53  20 C2 FA  JSR A:FF X:02 Y:B1 P:A5 SP:FB PPU: 75
FAC2  B8        CLV A:FF X:02 Y:B1 P:A5 SP:F9 PPU: 93
FAC3  38        SEC A:FF X:02 Y:B1 P:A5 SP:F9 PPU: 99
FAC4  A9 FF     LDA A:FF X:02 Y:B1 P:A5 SP:F9 PPU:105
FAC6  60        RTS A:FF X:02 Y:B1 P:A5 SP:F9 PPU:111
EC56  EF 47 06  ISC A:FF X:02 Y:B1 P:A5 SP:FB PPU:129
EC59  EA        NOP A:FF X:02 Y:B1 P:A5 SP:FB PPU:147
EC5A  EA        NOP A:FF X:02 Y:B1 P:A5 SP:FB PPU:153
EC5B  EA        NOP A:FF X:02 Y:B1 P:A5 SP:FB PPU:159
EC5C  EA        NOP A:FF X:02 Y:B1 P:A5 SP:FB PPU:165
EC5D  20 C7 FA  JSR A:FF X:02 Y:B1 P:A5 SP:FB PPU:171
FAC7  70 1D     BVS A:FF X:02 Y:B1 P:A5 SP:F9 PPU:189
FAC9  F0 1B     BEQ A:FF X:02 Y:B1 P:A5 SP:F9 PPU:195
FACB  10 19     BPL A:FF X:02 Y:B1 P:A5 SP:F9 PPU:201
FACD  90 17     BCC A:FF X:02 Y:B1 P:A5 SP:F9 PPU:207
FACF  C9 FF     CMP A:FF X:02 Y:B1 P:A5 SP:F9 PPU:213
FAD1  D0 13     BNE A:FF X:02 Y:B1 P:27 SP:F9 PPU:219
FAD3  60        RTS A:FF X:02 Y:B1 P:27 SP:F9 PPU:225
EC60  AD 47 06  LDA A:FF X:02 Y:B1 P:27 SP:FB PPU:243
EC63  C9 00     CMP A:00 X:02 Y:B1 P:27 SP:FB PPU:255
EC65  F0 02     BEQ A:00 X:02 Y:B1 P:27 SP:FB PPU:261
EC69  C8        INY A:00 X:02 Y:B1 P:27 SP:FB PPU:270
EC6A  A9 37     LDA A:00 X:02 Y:B2 P:A5 SP:FB PPU:276
EC6C  8D 47 06  STA A:37 X:02 Y:B2 P:25 SP:FB PPU:282
EC6F  20 D4 FA  JSR A:37 X:02 Y:B2 P:25 SP:FB PPU:294
FAD4  24 01     BIT A:37 X:02 Y:B2 P:25 SP:F9 PPU:312
FAD6  38        SEC A:37 X:02 Y:B2 P:E5 SP:F9 PPU:321
FAD7  A9 F0     LDA A:37 X:02 Y:B2 P:E5 SP:F9 PPU:327
FAD9  60        RTS A:F0 X:02 Y:B2 P:E5 SP:F9 PPU:333
EC72  EF 47 06  ISC A:F0 X:02 Y:B2 P:E5 SP:FB PPU: 10
EC75  EA        NOP A:B8 X:02 Y:B2 P:A5 SP:FB PPU: 28
EC76  EA        NOP A:B8 X:02 Y:B2 P:A5 SP:FB PPU: 34
EC77  EA        NOP A:B8 X:02 Y:B2 P:A5 SP:FB PPU: 40
EC78  EA        NOP A:B8 X:02 Y:B2 P:A5 SP:FB PPU: 46
EC79  20 DA FA  JSR A:B8 X:02 Y:B2 P:A5 SP:FB PPU: 52
FADA  70 0A     BVS A:B8 X:02 Y:B2 P:A5 SP:F9 PPU: 70
FADC  F0 08     BEQ A:B8 X:02 Y:B2 P:A5 SP:F9 PPU: 76
FADE  10 06     BPL A:B8 X:02 Y:B2 P:A5 SP:F9 PPU: 82
FAE0  90 04     BCC A:B8 X:02 Y:B2 P:A5 SP:F9 PPU: 88
FAE2  C9 B8     CMP A:B8 X:02 Y:B2 P:A5 SP:F9 PPU: 94
FAE4  F0 02     BEQ A:B8 X:02 Y:B2 P:27 SP:F9 PPU:100
FAE8  60        RTS A:B8 X:02 Y:B2 P:27 SP:F9 PPU:109
EC7C  AD 47 06  LDA A:B8 X:02 Y:B2 P:27 SP:FB PPU:127
EC7F  C9 38     CMP A:38 X:02 Y:B2 P:25 SP:FB PPU:139
EC81  F0 02     BEQ A:38 X:02 Y:B2 P:27 SP:FB PPU:145
EC85  A9 EB     LDA A:38 X:02 Y:B2 P:27 SP:FB PPU:154
EC87  8D 47 06  STA A:EB X:02 Y:B2 P:A5 SP:FB PPU:160
EC8A  A9 48     LDA A:EB X:02 Y:B2 P:A5 SP:FB PPU:172
EC8C  85 45     STA A:48 X:02 Y:B2 P:25 SP:FB PPU:178
EC8E  A9 05     LDA A:48 X:02 Y:B2 P:25 SP:FB PPU:187
EC90  85 46     STA A:05 X:02 Y:B2 P:25 SP:FB PPU:193
EC92  A0 FF     LDY A:05 X:02 Y:B2 P:25 SP:FB PPU:202
EC94  20 B1 FA  JSR A:05 X:02 Y:FF P:A5 SP:FB PPU:208
FAB1  24 01     BIT A:05 X:02 Y:FF P:A5 SP:F9 PPU:226
FAB3  18        CLC A:05 X:02 Y:FF P:E5 SP:F9 PPU:235
FAB4  A9 40     LDA A:05 X:02 Y:FF P:E4 SP:F9 PPU:241
FAB6  60        RTS A:40 X:02 Y:FF P:64 SP:F9 PPU:247
EC97  F3 45     ISC A:40 X:02 Y:FF P:64 SP:FB PPU:265
EC99  EA        NOP A:53 X:02 Y:FF P:24 SP:FB PPU:289
EC9A  EA        NOP A:53 X:02 Y:FF P:24 SP:FB PPU:295
EC9B  08        PHP A:53 X:02 Y:FF P:24 SP:FB PPU:301
EC9C  48        PHA A:53 X:02 Y:FF P:24 SP:FA PPU:310
EC9D  A0 B3     LDY A:53 X:02 Y:FF P:24 SP:F9 PPU:319
EC9F  68        PLA A:53 X:02 Y:B3 P:A4 SP:F9 PPU:325
ECA0  28        PLP A:53 X:02 Y:B3 P:24 SP:FA PPU:337
ECA1  20 B7 FA  JSR A:53 X:02 Y:B3 P:24 SP:FB PPU:  8
FAB7  70 2D     BVS A:53 X:02 Y:B3 P:24 SP:F9 PPU: 26
FAB9  B0 2B     BCS A:53 X:02 Y:B3 P:24 SP:F9 PPU: 32
FABB  30 29     BMI A:53 X:02 Y:B3 P:24 SP:F9 PPU: 38
FABD  C9 53     CMP A:53 X:02 Y:B3 P:24 SP:F9 PPU: 44
FABF  D0 25     BNE A:53 X:02 Y:B3 P:27 SP:F9 PPU: 50
FAC1  60        RTS A:53 X:02 Y:B3 P:27 SP:F9 PPU: 56
ECA4  AD 47 06  LDA A:53 X:02 Y:B3 P:27 SP:FB PPU: 74
ECA7  C9 EC     CMP A:EC X:02 Y:B3 P:A5 SP:FB PPU: 86
ECA9  F0 02     BEQ A:EC X:02 Y:B3 P:27 SP:FB PPU: 92
ECAD  A0 FF     LDY A:EC X:02 Y:B3 P:27 SP:FB PPU:101
ECAF  A9 FF     LDA A:EC X:02 Y:FF P:A5 SP:FB PPU:107
ECB1  8D 47 06  STA A:FF X:02 Y:FF P:A5 SP:FB PPU:113
ECB4  20 C2 FA  JSR A:FF X:02 Y:FF P:A5 SP:FB PPU:125
FAC2  B8        CLV A:FF X:02 Y:FF P:A5 SP:F9 PPU:143
FAC3  38        SEC A:FF X:02 Y:FF P:A5 SP:F9 PPU:149
FAC4  A9 FF     LDA A:FF X:02 Y:FF P:A5 SP:F9 PPU:155
FAC6  60        RTS A:FF X:02 Y:FF P:A5 SP:F9 PPU:161
ECB7  F3 45     ISC A:FF X:02 Y:FF P:A5 SP:FB PPU:179
ECB9  EA        NOP A:FF X:02 Y:FF P:A5 SP:FB PPU:203
ECBA  EA        NOP A:FF X:02 Y:FF P:A5 SP:FB PPU:209
ECBB  08        PHP A:FF X:02 Y:FF P:A5 SP:FB PPU:215
ECBC  48        PHA A:FF X:02 Y:FF P:A5 SP:FA PPU:224
ECBD  A0 B4     LDY A:FF X:02 Y:FF P:A5 SP:F9 PPU:233
ECBF  68        PLA A:FF X:02 Y:B4 P:A5 SP:F9 PPU:239
ECC0  28        PLP A:FF X:02 Y:B4 P:A5 SP:FA PPU:251
ECC1  20 C7 FA  JSR A:FF X:02 Y:B4 P:A5 SP:FB PPU:263
FAC7  70 1D     BVS A:FF X:02 Y:B4 P:A5 SP:F9 PPU:281
FAC9  F0 1B     BEQ A:FF X:02 Y:B4 P:A5 SP:F9 PPU:287
FACB  10 19     BPL A:FF X:02 Y:B4 P:A5 SP:F9 PPU:293
FACD  90 17     BCC A:FF X:02 Y:B4 P:A5 SP:F9 PPU:299
FACF  C9 FF     CMP A:FF X:02 Y:B4 P:A5 SP:F9 PPU:305
FAD1  D0 13     BNE A:FF X:02 Y:B4 P:27 SP:F9 PPU:311
FAD3  60        RTS A:FF X:02 Y:B4 P:27 SP:F9 PPU:317
ECC4  AD 47 06  LDA A:FF X:02 Y:B4 P:27 SP:FB PPU:335
ECC7  C9 00     CMP A:00 X:02 Y:B4 P:27 SP:FB PPU:  6
ECC9  F0 02     BEQ A:00 X:02 Y:B4 P:27 SP:FB PPU: 12
ECCD  A0 FF     LDY A:00 X:02 Y:B4 P:27 SP:FB PPU: 21
ECCF  A9 37     LDA A:00 X:02 Y:FF P:A5 SP:FB PPU: 27
ECD1  8D 47 06  STA A:37 X:02 Y:FF P:25 SP:FB PPU: 33
ECD4  20 D4 FA  JSR A:37 X:02 Y:FF P:25 SP:FB PPU: 45
FAD4  24 01     BIT A:37 X:02 Y:FF P:25 SP:F9 PPU: 63
FAD6  38        SEC A:37 X:02 Y:FF P:E5 SP:F9 PPU: 72
FAD7  A9 F0     LDA A:37 X:02 Y:FF P:E5 SP:F9 PPU: 78
FAD9  60        RTS A:F0 X:02 Y:FF P:E5 SP:F9 PPU: 84
ECD7  F3 45     ISC A:F0 X:02 Y:FF P:E5 SP:FB PPU:102
ECD9  EA        NOP A:B8 X:02 Y:FF P:A5 SP:FB PPU:126
ECDA  EA        NOP A:B8 X:02 Y:FF P:A5 SP:FB PPU:132
ECDB  08        PHP A:B8 X:02 Y:FF P:A5 SP:FB PPU:138
ECDC  48        PHA A:B8 X:02 Y:FF P:A5 SP:FA PPU:147
ECDD  A0 B5     LDY A:B8 X:02 Y:FF P:A5 SP:F9 PPU:156
ECDF  68        PLA A:B8 X:02 Y:B5 P:A5 SP:F9 PPU:162
ECE0  28        PLP A:B8 X:02 Y:B5 P:A5 SP:FA PPU:174
ECE1  20 DA FA  JSR A:B8 X:02 Y:B5 P:A5 SP:FB PPU:186
FADA  70 0A     BVS A:B8 X:02 Y:B5 P:A5 SP:F9 PPU:204
FADC  F0 08     BEQ A:B8 X:02 Y:B5 P:A5 SP:F9 PPU:210
FADE  10 06     BPL A:B8 X:02 Y:B5 P:A5 SP:F9 PPU:216
FAE0  90 04     BCC A:B8 X:02 Y:B5 P:A5 SP:F9 PPU:222
FAE2  C9 B8     CMP A:B8 X:02 Y:B5 P:A5 SP:F9 PPU:228
FAE4  F0 02     BEQ A:B8 X:02 Y:B5 P:27 SP:F9 PPU:234
FAE8  60        RTS A:B8 X:02 Y:B5 P:27 SP:F9 PPU:243
ECE4  AD 47 06  LDA A:B8 X:02 Y:B5 P:27 SP:FB PPU:261
ECE7  C9 38     CMP A:38 X:02 Y:B5 P:25 SP:FB PPU:273
ECE9  F0 02     BEQ A:38 X:02 Y:B5 P:27 SP:FB PPU:279
ECED  A0 B6     LDY A:38 X:02 Y:B5 P:27 SP:FB PPU:288
ECEF  A2 FF     LDX A:38 X:02 Y:B6 P:A5 SP:FB PPU:294
ECF1  A9 EB     LDA A:38 X:FF Y:B6 P:A5 SP:FB PPU:300
ECF3  85 47     STA A:EB X:FF Y:B6 P:A5 SP:FB PPU:306
ECF5  20 B1 FA  JSR A:EB X:FF Y:B6 P:A5 SP:FB PPU:315
FAB1  24 01     BIT A:EB X:FF Y:B6 P:A5 SP:F9 PPU:333
FAB3  18        CLC A:EB X:FF Y:B6 P:E5 SP:F9 PPU:  1
FAB4  A9 40     LDA A:EB X:FF Y:B6 P:E4 SP:F9 PPU:  7
FAB6  60        RTS A:40 X:FF Y:B6 P:64 SP:F9 PPU: 13
ECF8  F7 48     ISC A:40 X:FF Y:B6 P:64 SP:FB PPU: 31
ECFA  EA        NOP A:53 X:FF Y:B6 P:24 SP:FB PPU: 49
ECFB  EA        NOP A:53 X:FF Y:B6 P:24 SP:FB PPU: 55
ECFC  EA        NOP A:53 X:FF Y:B6 P:24 SP:FB PPU: 61
ECFD  EA        NOP A:53 X:FF Y:B6 P:24 SP:FB PPU: 67
ECFE  20 B7 FA  JSR A:53 X:FF Y:B6 P:24 SP:FB PPU: 73
FAB7  70 2D     BVS A:53 X:FF Y:B6 P:24 SP:F9 PPU: 91
FAB9  B0 2B     BCS A:53 X:FF Y:B6 P:24 SP:F9 PPU: 97
FABB  30 29     BMI A:53 X:FF Y:B6 P:24 SP:F9 PPU:103
FABD  C9 53     CMP A:53 X:FF Y:B6 P:24 SP:F9 PPU:109
FABF  D0 25     BNE A:53 X:FF Y:B6 P:27 SP:F9 PPU:115
FAC1  60        RTS A:53 X:FF Y:B6 P:27 SP:F9 PPU:121
ED01  A5 47     LDA A:53 X:FF Y:B6 P:27 SP:FB PPU:139
ED03  C9 EC     CMP A:EC X:FF Y:B6 P:A5 SP:FB PPU:148
ED05  F0 02     BEQ A:EC X:FF Y:B6 P:27 SP:FB PPU:154
ED09  C8        INY A:EC X:FF Y:B6 P:27 SP:FB PPU:163
ED0A  A9 FF     LDA A:EC X:FF Y:B7 P:A5 SP:FB PPU:169
ED0C  85 47     STA A:FF X:FF Y:B7 P:A5 SP:FB PPU:175
ED0E  20 C2 FA  JSR A:FF X:FF Y:B7 P:A5 SP:FB PPU:184
FAC2  B8        CLV A:FF X:FF Y:B7 P:A5 SP:F9 PPU:202
FAC3  38        SEC A:FF X:FF Y:B7 P:A5 SP:F9 PPU:208
FAC4  A9 FF     LDA A:FF X:FF Y:B7 P:A5 SP:F9 PPU:214
FAC6  60        RTS A:FF X:FF Y:B7 P:A5 SP:F9 PPU:220
ED11  F7 48     ISC A:FF X:FF Y:B7 P:A5 SP:FB PPU:238
ED13  EA        NOP A:FF X:FF Y:B7 P:A5 SP:FB PPU:256
ED14  EA        NOP A:FF X:FF Y:B7 P:A5 SP:FB PPU:262
ED15  EA        NOP A:FF X:FF Y:B7 P:A5 SP:FB PPU:268
ED16  EA        NOP A:FF X:FF Y:B7 P:A5 SP:FB PPU:274
ED17  20 C7 FA  JSR A:FF X:FF Y:B7 P:A5 SP:FB PPU:280
FAC7  70 1D     BVS A:FF X:FF Y:B7 P:A5 SP:F9 PPU:298
FAC9  F0 1B     BEQ A:FF X:FF Y:B7 P:A5 SP:F9 PPU:304
FACB  10 19     BPL A:FF X:FF Y:B7 P:A5 SP:F9 PPU:310
FACD  90 17     BCC A:FF X:FF Y:B7 P:A5 SP:F9 PPU:316
FACF  C9 FF     CMP A:FF X:FF Y:B7 P:A5 SP:F9 PPU:322
FAD1  D0 13     BNE A:FF X:FF Y:B7 P:27 SP:F9 PPU:328
FAD3  60        RTS A:FF X:FF Y:B7 P:27 SP:F9 PPU:334
ED1A  A5 47     LDA A:FF X:FF Y:B7 P:27 SP:FB PPU: 11
ED1C  C9 00     CMP A:00 X:FF Y:B7 P:27 SP:FB PPU: 20
ED1E  F0 02     BEQ A:00 X:FF Y:B7 P:27 SP:FB PPU: 26
ED22  C8        INY A:00 X:FF Y:B7 P:27 SP:FB PPU: 35
ED23  A9 37     LDA A:00 X:FF Y:B8 P:A5 SP:FB PPU: 41
ED25  85 47     STA A:37 X:FF Y:B8 P:25 SP:FB PPU: 47
ED27  20 D4 FA  JSR A:37 X:FF Y:B8 P:25 SP:FB PPU: 56
FAD4  24 01     BIT A:37 X:FF Y:B8 P:25 SP:F9 PPU: 74
FAD6  38        SEC A:37 X:FF Y:B8 P:E5 SP:F9 PPU: 83
FAD7  A9 F0     LDA A:37 X:FF Y:B8 P:E5 SP:F9 PPU: 89
FAD9  60        RTS A:F0 X:FF Y:B8 P:E5 SP:F9 PPU: 95
ED2A  F7 48     ISC A:F0 X:FF Y:B8 P:E5 SP:FB PPU:113
ED2C  EA        NOP A:B8 X:FF Y:B8 P:A5 SP:FB PPU:131
ED2D  EA        NOP A:B8 X:FF Y:B8 P:A5 SP:FB PPU:137
ED2E  EA        NOP A:B8 X:FF Y:B8 P:A5 SP:FB PPU:143
ED2F  EA        NOP A:B8 X:FF Y:B8 P:A5 SP:FB PPU:149
ED30  20 DA FA  JSR A:B8 X:FF Y:B8 P:A5 SP:FB PPU:155
FADA  70 0A     BVS A:B8 X:FF Y:B8 P:A5 SP:F9 PPU:173
FADC  F0 08     BEQ A:B8 X:FF Y:B8 P:A5 SP:F9 PPU:179
FADE  10 06     BPL A:B8 X:FF Y:B8 P:A5 SP:F9 PPU:185
FAE0  90 04     BCC A:B8 X:FF Y:B8 P:A5 SP:F9 PPU:191
FAE2  C9 B8     CMP A:B8 X:FF Y:B8 P:A5 SP:F9 PPU:197
FAE4  F0 02     BEQ A:B8 X:FF Y:B8 P:27 SP:F9 PPU:203
FAE8  60        RTS A:B8 X:FF Y:B8 P:27 SP:F9 PPU:212
ED33  A5 47     LDA A:B8 X:FF Y:B8 P:27 SP:FB PPU:230
ED35  C9 38     CMP A:38 X:FF Y:B8 P:25 SP:FB PPU:239
ED37  F0 02     BEQ A:38 X:FF Y:B8 P:27 SP:FB PPU:245
ED3B  A9 EB     LDA A:38 X:FF Y:B8 P:27 SP:FB PPU:254
ED3D  8D 47 06  STA A:EB X:FF Y:B8 P:A5 SP:FB PPU:260
ED40  A0 FF     LDY A:EB X:FF Y:B8 P:A5 SP:FB PPU:272
ED42  20 B1 FA  JSR A:EB X:FF Y:FF P:A5 SP:FB PPU:278
FAB1  24 01     BIT A:EB X:FF Y:FF P:A5 SP:F9 PPU:296
FAB3  18        CLC A:EB X:FF Y:FF P:E5 SP:F9 PPU:305
FAB4  A9 40     LDA A:EB X:FF Y:FF P:E4 SP:F9 PPU:311
FAB6  60        RTS A:40 X:FF Y:FF P:64 SP:F9 PPU:317
ED45  FB 48 05  ISC A:40 X:FF Y:FF P:64 SP:FB PPU:335
ED48  EA        NOP A:53 X:FF Y:FF P:24 SP:FB PPU: 15
ED49  EA        NOP A:53 X:FF Y:FF P:24 SP:FB PPU: 21
ED4A  08        PHP A:53 X:FF Y:FF P:24 SP:FB PPU: 27
ED4B  48        PHA A:53 X:FF Y:FF P:24 SP:FA PPU: 36
ED4C  A0 B9     LDY A:53 X:FF Y:FF P:24 SP:F9 PPU: 45
ED4E  68        PLA A:53 X:FF Y:B9 P:A4 SP:F9 PPU: 51
ED4F  28        PLP A:53 X:FF Y:B9 P:24 SP:FA PPU: 63
ED50  20 B7 FA  JSR A:53 X:FF Y:B9 P:24 SP:FB PPU: 75
FAB7  70 2D     BVS A:53 X:FF Y:B9 P:24 SP:F9 PPU: 93
FAB9  B0 2B     BCS A:53 X:FF Y:B9 P:24 SP:F9 PPU: 99
FABB  30 29     BMI A:53 X:FF Y:B9 P:24 SP:F9 PPU:105
FABD  C9 53     CMP A:53 X:FF Y:B9 P:24 SP:F9 PPU:111
FABF  D0 25     BNE A:53 X:FF Y:B9 P:27 SP:F9 PPU:117
FAC1  60        RTS A:53 X:FF Y:B9 P:27 SP:F9 PPU:123
ED53  AD 47 06  LDA A:53 X:FF Y:B9 P:27 SP:FB PPU:141
ED56  C9 EC     CMP A:EC X:FF Y:B9 P:A5 SP:FB PPU:153
ED58  F0 02     BEQ A:EC X:FF Y:B9 P:27 SP:FB PPU:159
ED5C  A0 FF     LDY A:EC X:FF Y:B9 P:27 SP:FB PPU:168
ED5E  A9 FF     LDA A:EC X:FF Y:FF P:A5 SP:FB PPU:174
ED60  8D 47 06  STA A:FF X:FF Y:FF P:A5 SP:FB PPU:180
ED63  20 C2 FA  JSR A:FF X:FF Y:FF P:A5 SP:FB PPU:192
FAC2  B8        CLV A:FF X:FF Y:FF P:A5 SP:F9 PPU:210
FAC3  38        SEC A:FF X:FF Y:FF P:A5 SP:F9 PPU:216
FAC4  A9 FF     LDA A:FF X:FF Y:FF P:A5 SP:F9 PPU:222
FAC6  60        RTS A:FF X:FF Y:FF P:A5 SP:F9 PPU:228
ED66  FB 48 05  ISC A:FF X:FF Y:FF P:A5 SP:FB PPU:246
ED69  EA        NOP A:FF X:FF Y:FF P:A5 SP:FB PPU:267
ED6A  EA        NOP A:FF X:FF Y:FF P:A5 SP:FB PPU:273
ED6B  08        PHP A:FF X:FF Y:FF P:A5 SP:FB PPU:279
ED6C  48        PHA A:FF X:FF Y:FF P:A5 SP:FA PPU:288
ED6D  A0 BA     LDY A:FF X:FF Y:FF P:A5 SP:F9 PPU:297
ED6F  68        PLA A:FF X:FF Y:BA P:A5 SP:F9 PPU:303
ED70  28        PLP A:FF X:FF Y:BA P:A5 SP:FA PPU:315
ED71  20 C7 FA  JSR A:FF X:FF Y:BA P:A5 SP:FB PPU:327
FAC7  70 1D     BVS A:FF X:FF Y:BA P:A5 SP:F9 PPU:  4
FAC9  F0 1B     BEQ A:FF X:FF Y:BA P:A5 SP:F9 PPU: 10
FACB  10 19     BPL A:FF X:FF Y:BA P:A5 SP:F9 PPU: 16
FACD  90 17     BCC A:FF X:FF Y:BA P:A5 SP:F9 PPU: 22
FACF  C9 FF     CMP A:FF X:FF Y:BA P:A5 SP:F9 PPU: 28
FAD1  D0 13     BNE A:FF X:FF Y:BA P:27 SP:F9 PPU: 34
FAD3  60        RTS A:FF X:FF Y:BA P:27 SP:F9 PPU: 40
ED74  AD 47 06  LDA A:FF X:FF Y:BA P:27 SP:FB PPU: 58
ED77  C9 00     CMP A:00 X:FF Y:BA P:27 SP:FB PPU: 70
ED79  F0 02     BEQ A:00 X:FF Y:BA P:27 SP:FB PPU: 76
ED7D  A0 FF     LDY A:00 X:FF Y:BA P:27 SP:FB PPU: 85
ED7F  A9 37     LDA A:00 X:FF Y:FF P:A5 SP:FB PPU: 91
ED81  8D 47 06  STA A:37 X:FF Y:FF P:25 SP:FB PPU: 97
ED84  20 D4 FA  JSR A:37 X:FF Y:FF P:25 SP:FB PPU:109
FAD4  24 01     BIT A:37 X:FF Y:FF P:25 SP:F9 PPU:127
FAD6  38        SEC A:37 X:FF Y:FF P:E5 SP:F9 PPU:136
FAD7  A9 F0     LDA A:37 X:FF Y:FF P:E5 SP:F9 PPU:142
FAD9  60        RTS A:F0 X:FF Y:FF P:E5 SP:F9 PPU:148
ED87  FB 48 05  ISC A:F0 X:FF Y:FF P:E5 SP:FB PPU:166
ED8A  EA        NOP A:B8 X:FF Y:FF P:A5 SP:FB PPU:187
ED8B  EA        NOP A:B8 X:FF Y:FF P:A5 SP:FB PPU:193
ED8C  08        PHP A:B8 X:FF Y:FF P:A5 SP:FB PPU:199
ED8D  48        PHA A:B8 X:FF Y:FF P:A5 SP:FA PPU:208
ED8E  A0 BB     LDY A:B8 X:FF Y:FF P:A5 SP:F9 PPU:217
ED90  68        PLA A:B8 X:FF Y:BB P:A5 SP:F9 PPU:223
ED91  28        PLP A:B8 X:FF Y:BB P:A5 SP:FA PPU:235
ED92  20 DA FA  JSR A:B8 X:FF Y:BB P:A5 SP:FB PPU:247
FADA  70 0A     BVS A:B8 X:FF Y:BB P:A5 SP:F9 PPU:265
FADC  F0 08     BEQ A:B8 X:FF Y:BB P:A5 SP:F9 PPU:271
FADE  10 06     BPL A:B8 X:FF Y:BB P:A5 SP:F9 PPU:277
FAE0  90 04     BCC A:B8 X:FF Y:BB P:A5 SP:F9 PPU:283
FAE2  C9 B8     CMP A:B8 X:FF Y:BB P:A5 SP:F9 PPU:289
FAE4  F0 02     BEQ A:B8 X:FF Y:BB P:27 SP:F9 PPU:295
FAE8  60        RTS A:B8 X:FF Y:BB P:27 SP:F9 PPU:304
ED95  AD 47 06  LDA A:B8 X:FF Y:BB P:27 SP:FB PPU:322
ED98  C9 38     CMP A:38 X:FF Y:BB P:25 SP:FB PPU:334
ED9A  F0 02     BEQ A:38 X:FF Y:BB P:27 SP:FB PPU:340
ED9E  A0 BC     LDY A:38 X:FF Y:BB P:27 SP:FB PPU:  8
EDA0  A2 FF     LDX A:38 X:FF Y:BC P:A5 SP:FB PPU: 14
EDA2  A9 EB     LDA A:38 X:FF Y:BC P:A5 SP:FB PPU: 20
EDA4  8D 47 06  STA A:EB X:FF Y:BC P:A5 SP:FB PPU: 26
EDA7  20 B1 FA  JSR A:EB X:FF Y:BC P:A5 SP:FB PPU: 38
FAB1  24 01     BIT A:EB X:FF Y:BC P:A5 SP:F9 PPU: 56
FAB3  18        CLC A:EB X:FF Y:BC P:E5 SP:F9 PPU: 65
FAB4  A9 40     LDA A:EB X:FF Y:BC P:E4 SP:F9 PPU: 71
FAB6  60        RTS A:40 X:FF Y:BC P:64 SP:F9 PPU: 77
EDAA  FF 48 05  ISC A:40 X:FF Y:BC P:64 SP:FB PPU: 95
EDAD  EA        NOP A:53 X:FF Y:BC P:24 SP:FB PPU:116
EDAE  EA        NOP A:53 X:FF Y:BC P:24 SP:FB PPU:122
EDAF  EA        NOP A:53 X:FF Y:BC P:24 SP:FB PPU:128
EDB0  EA        NOP A:53 X:FF Y:BC P:24 SP:FB PPU:134
EDB1  20 B7 FA  JSR A:53 X:FF Y:BC P:24 SP:FB PPU:140
FAB7  70 2D     BVS A:53 X:FF Y:BC P:24 SP:F9 PPU:158
FAB9  B0 2B     BCS A:53 X:FF Y:BC P:24 SP:F9 PPU:164
FABB  30 29     BMI A:53 X:FF Y:BC P:24 SP:F9 PPU:170
FABD  C9 53     CMP A:53 X:FF Y:BC P:24 SP:F9 PPU:176
FABF  D0 25     BNE A:53 X:FF Y:BC P:27 SP:F9 PPU:182
FAC1  60        RTS A:53 X:FF Y:BC P:27 SP:F9 PPU:188
EDB4  AD 47 06  LDA A:53 X:FF Y:BC P:27 SP:FB PPU:206
EDB7  C9 EC     CMP A:EC X:FF Y:BC P:A5 SP:FB PPU:218
EDB9  F0 02     BEQ A:EC X:FF Y:BC P:27 SP:FB PPU:224
EDBD  C8        INY A:EC X:FF Y:BC P:27 SP:FB PPU:233
EDBE  A9 FF     LDA A:EC X:FF Y:BD P:A5 SP:FB PPU:239
EDC0  8D 47 06  STA A:FF X:FF Y:BD P:A5 SP:FB PPU:245
EDC3  20 C2 FA  JSR A:FF X:FF Y:BD P:A5 SP:FB PPU:257
FAC2  B8        CLV A:FF X:FF Y:BD P:A5 SP:F9 PPU:275
FAC3  38        SEC A:FF X:FF Y:BD P:A5 SP:F9 PPU:281
FAC4  A9 FF     LDA A:FF X:FF Y:BD P:A5 SP:F9 PPU:287
FAC6  60        RTS A:FF X:FF Y:BD P:A5 SP:F9 PPU:293
EDC6  FF 48 05  ISC A:FF X:FF Y:BD P:A5 SP:FB PPU:311
EDC9  EA        NOP A:FF X:FF Y:BD P:A5 SP:FB PPU:332
EDCA  EA        NOP A:FF X:FF Y:BD P:A5 SP:FB PPU:338
EDCB  EA        NOP A:FF X:FF Y:BD P:A5 SP:FB PPU:  3
EDCC  EA        NOP A:FF X:FF Y:BD P:A5 SP:FB PPU:  9
EDCD  20 C7 FA  JSR A:FF X:FF Y:BD P:A5 SP:FB PPU: 15
FAC7  70 1D     BVS A:FF X:FF Y:BD P:A5 SP:F9 PPU: 33
FAC9  F0 1B     BEQ A:FF X:FF Y:BD P:A5 SP:F9 PPU: 39
FACB  10 19     BPL A:FF X:FF Y:BD P:A5 SP:F9 PPU: 45
FACD  90 17     BCC A:FF X:FF Y:BD P:A5 SP:F9 PPU: 51
FACF  C9 FF     CMP A:FF X:FF Y:BD P:A5 SP:F9 PPU: 57
FAD1  D0 13     BNE A:FF X:FF Y:BD P:27 SP:F9 PPU: 63
FAD3  60        RTS A:FF X:FF Y:BD P:27 SP:F9 PPU: 69
EDD0  AD 47 06  LDA A:FF X:FF Y:BD P:27 SP:FB PPU: 87
EDD3  C9 00     CMP A:00 X:FF Y:BD P:27 SP:FB PPU: 99
EDD5  F0 02     BEQ A:00 X:FF Y:BD P:27 SP:FB PPU:105
EDD9  C8        INY A:00 X:FF Y:BD P:27 SP:FB PPU:114
EDDA  A9 37     LDA A:00 X:FF Y:BE P:A5 SP:FB PPU:120
EDDC  8D 47 06  STA A:37 X:FF Y:BE P:25 SP:FB PPU:126
EDDF  20 D4 FA  JSR A:37 X:FF Y:BE P:25 SP:FB PPU:138
FAD4  24 01     BIT A:37 X:FF Y:BE P:25 SP:F9 PPU:156
FAD6  38        SEC A:37 X:FF Y:BE P:E5 SP:F9 PPU:165
FAD7  A9 F0     LDA A:37 X:FF Y:BE P:E5 SP:F9 PPU:171
FAD9  60        RTS A:F0 X:FF Y:BE P:E5 SP:F9 PPU:177
EDE2  FF 48 05  ISC A:F0 X:FF Y:BE P:E5 SP:FB PPU:195
EDE5  EA        NOP A:B8 X:FF Y:BE P:A5 SP:FB PPU:216
EDE6  EA        NOP A:B8 X:FF Y:BE P:A5 SP:FB PPU:222
EDE7  EA        NOP A:B8 X:FF Y:BE P:A5 SP:FB PPU:228
EDE8  EA        NOP A:B8 X:FF Y:BE P:A5 SP:FB PPU:234
EDE9  20 DA FA  JSR A:B8 X:FF Y:BE P:A5 SP:FB PPU:240
FADA  70 0A     BVS A:B8 X:FF Y:BE P:A5 SP:F9 PPU:258
FADC  F0 08     BEQ A:B8 X:FF Y:BE P:A5 SP:F9 PPU:264
FADE  10 06     BPL A:B8 X:FF Y:BE P:A5 SP:F9 PPU:270
FAE0  90 04     BCC A:B8 X:FF Y:BE P:A5 SP:F9 PPU:276
FAE2  C9 B8     CMP A:B8 X:FF Y:BE P:A5 SP:F9 PPU:282
FAE4  F0 02     BEQ A:B8 X:FF Y:BE P:27 SP:F9 PPU:288
FAE8  60        RTS A:B8 X:FF Y:BE P:27 SP:F9 PPU:297
EDEC  AD 47 06  LDA A:B8 X:FF Y:BE P:27 SP:FB PPU:315
EDEF  C9 38     CMP A:38 X:FF Y:BE P:25 SP:FB PPU:327
EDF1  F0 02     BEQ A:38 X:FF Y:BE P:27 SP:FB PPU:333
EDF5  60        RTS A:38 X:FF Y:BE P:27 SP:FB PPU:  1
C641  20 F6 ED  JSR A:38 X:FF Y:BE P:27 SP:FD PPU: 19
EDF6  A9 FF     LDA A:38 X:FF Y:BE P:27 SP:FB PPU: 37
EDF8  85 01     STA A:FF X:FF Y:BE P:A5 SP:FB PPU: 43
EDFA  A0 BF     LDY A:FF X:FF Y:BE P:A5 SP:FB PPU: 52
EDFC  A2 02     LDX A:FF X:FF Y:BF P:A5 SP:FB PPU: 58
EDFE  A9 47     LDA A:FF X:02 Y:BF P:25 SP:FB PPU: 64
EE00  85 47     STA A:47 X:02 Y:BF P:25 SP:FB PPU: 70
EE02  A9 06     LDA A:47 X:02 Y:BF P:25 SP:FB PPU: 79
EE04  85 48     STA A:06 X:02 Y:BF P:25 SP:FB PPU: 85
EE06  A9 A5     LDA A:06 X:02 Y:BF P:25 SP:FB PPU: 94
EE08  8D 47 06  STA A:A5 X:02 Y:BF P:A5 SP:FB PPU:100
EE0B  20 7B FA  JSR A:A5 X:02 Y:BF P:A5 SP:FB PPU:112
FA7B  24 01     BIT A:A5 X:02 Y:BF P:A5 SP:F9 PPU:130
FA7D  18        CLC A:A5 X:02 Y:BF P:E5 SP:F9 PPU:139
FA7E  A9 B3     LDA A:A5 X:02 Y:BF P:E4 SP:F9 PPU:145
FA80  60        RTS A:B3 X:02 Y:BF P:E4 SP:F9 PPU:151
EE0E  03 45     SLO A:B3 X:02 Y:BF P:E4 SP:FB PPU:169
EE10  EA        NOP A:FB X:02 Y:BF P:E5 SP:FB PPU:193
EE11  EA        NOP A:FB X:02 Y:BF P:E5 SP:FB PPU:199
EE12  EA        NOP A:FB X:02 Y:BF P:E5 SP:FB PPU:205
EE13  EA        NOP A:FB X:02 Y:BF P:E5 SP:FB PPU:211
EE14  20 81 FA  JSR A:FB X:02 Y:BF P:E5 SP:FB PPU:217
FA81  50 63     BVC A:FB X:02 Y:BF P:E5 SP:F9 PPU:235
FA83  90 61     BCC A:FB X:02 Y:BF P:E5 SP:F9 PPU:241
FA85  10 5F     BPL A:FB X:02 Y:BF P:E5 SP:F9 PPU:247
FA87  C9 FB     CMP A:FB X:02 Y:BF P:E5 SP:F9 PPU:253
FA89  D0 5B     BNE A:FB X:02 Y:BF P:67 SP:F9 PPU:259
FA8B  60        RTS A:FB X:02 Y:BF P:67 SP:F9 PPU:265
EE17  AD 47 06  LDA A:FB X:02 Y:BF P:67 SP:FB PPU:283
EE1A  C9 4A     CMP A:4A X:02 Y:BF P:65 SP:FB PPU:295
EE1C  F0 02     BEQ A:4A X:02 Y:BF P:67 SP:FB PPU:301
EE20  C8        INY A:4A X:02 Y:BF P:67 SP:FB PPU:310
EE21  A9 29     LDA A:4A X:02 Y:C0 P:E5 SP:FB PPU:316
EE23  8D 47 06  STA A:29 X:02 Y:C0 P:65 SP:FB PPU:322
EE26  20 8C FA  JSR A:29 X:02 Y:C0 P:65 SP:FB PPU:334
FA8C  B8        CLV A:29 X:02 Y:C0 P:65 SP:F9 PPU: 11
FA8D  18        CLC A:29 X:02 Y:C0 P:25 SP:F9 PPU: 17
FA8E  A9 C3     LDA A:29 X:02 Y:C0 P:24 SP:F9 PPU: 23
FA90  60        RTS A:C3 X:02 Y:C0 P:A4 SP:F9 PPU: 29
EE29  03 45     SLO A:C3 X:02 Y:C0 P:A4 SP:FB PPU: 47
EE2B  EA        NOP A:D3 X:02 Y:C0 P:A4 SP:FB PPU: 71
EE2C  EA        NOP A:D3 X:02 Y:C0 P:A4 SP:FB PPU: 77
EE2D  EA        NOP A:D3 X:02 Y:C0 P:A4 SP:FB PPU: 83
EE2E  EA        NOP A:D3 X:02 Y:C0 P:A4 SP:FB PPU: 89
EE2F  20 91 FA  JSR A:D3 X:02 Y:C0 P:A4 SP:FB PPU: 95
FA91  70 53     BVS A:D3 X:02 Y:C0 P:A4 SP:F9 PPU:113
FA93  F0 51     BEQ A:D3 X:02 Y:C0 P:A4 SP:F9 PPU:119
FA95  10 4F     BPL A:D3 X:02 Y:C0 P:A4 SP:F9 PPU:125
FA97  B0 4D     BCS A:D3 X:02 Y:C0 P:A4 SP:F9 PPU:131
FA99  C9 D3     CMP A:D3 X:02 Y:C0 P:A4 SP:F9 PPU:137
FA9B  D0 49     BNE A:D3 X:02 Y:C0 P:27 SP:F9 PPU:143
FA9D  60        RTS A:D3 X:02 Y:C0 P:27 SP:F9 PPU:149
EE32  AD 47 06  LDA A:D3 X:02 Y:C0 P:27 SP:FB PPU:167
EE35  C9 52     CMP A:52 X:02 Y:C0 P:25 SP:FB PPU:179
EE37  F0 02     BEQ A:52 X:02 Y:C0 P:27 SP:FB PPU:185
EE3B  C8        INY A:52 X:02 Y:C0 P:27 SP:FB PPU:194
EE3C  A9 37     LDA A:52 X:02 Y:C1 P:A5 SP:FB PPU:200
EE3E  8D 47 06  STA A:37 X:02 Y:C1 P:25 SP:FB PPU:206
EE41  20 9E FA  JSR A:37 X:02 Y:C1 P:25 SP:FB PPU:218
FA9E  24 01     BIT A:37 X:02 Y:C1 P:25 SP:F9 PPU:236
FAA0  38        SEC A:37 X:02 Y:C1 P:E5 SP:F9 PPU:245
FAA1  A9 10     LDA A:37 X:02 Y:C1 P:E5 SP:F9 PPU:251
FAA3  60        RTS A:10 X:02 Y:C1 P:65 SP:F9 PPU:257
EE44  03 45     SLO A:10 X:02 Y:C1 P:65 SP:FB PPU:275
EE46  EA        NOP A:7E X:02 Y:C1 P:64 SP:FB PPU:299
EE47  EA        NOP A:7E X:02 Y:C1 P:64 SP:FB PPU:305
EE48  EA        NOP A:7E X:02 Y:C1 P:64 SP:FB PPU:311
EE49  EA        NOP A:7E X:02 Y:C1 P:64 SP:FB PPU:317
EE4A  20 A4 FA  JSR A:7E X:02 Y:C1 P:64 SP:FB PPU:323
FAA4  50 40     BVC A:7E X:02 Y:C1 P:64 SP:F9 PPU:  0
FAA6  F0 3E     BEQ A:7E X:02 Y:C1 P:64 SP:F9 PPU:  6
FAA8  30 3C     BMI A:7E X:02 Y:C1 P:64 SP:F9 PPU: 12
FAAA  B0 3A     BCS A:7E X:02 Y:C1 P:64 SP:F9 PPU: 18
FAAC  C9 7E     CMP A:7E X:02 Y:C1 P:64 SP:F9 PPU: 24
FAAE  D0 36     BNE A:7E X:02 Y:C1 P:67 SP:F9 PPU: 30
FAB0  60        RTS A:7E X:02 Y:C1 P:67 SP:F9 PPU: 36
EE4D  AD 47 06  LDA A:7E X:02 Y:C1 P:67 SP:FB PPU: 54
EE50  C9 6E     CMP A:6E X:02 Y:C1 P:65 SP:FB PPU: 66
EE52  F0 02     BEQ A:6E X:02 Y:C1 P:67 SP:FB PPU: 72
EE56  C8        INY A:6E X:02 Y:C1 P:67 SP:FB PPU: 81
EE57  A9 A5     LDA A:6E X:02 Y:C2 P:E5 SP:FB PPU: 87
EE59  85 47     STA A:A5 X:02 Y:C2 P:E5 SP:FB PPU: 93
EE5B  20 7B FA  JSR A:A5 X:02 Y:C2 P:E5 SP:FB PPU:102
FA7B  24 01     BIT A:A5 X:02 Y:C2 P:E5 SP:F9 PPU:120
FA7D  18        CLC A:A5 X:02 Y:C2 P:E5 SP:F9 PPU:129
FA7E  A9 B3     LDA A:A5 X:02 Y:C2 P:E4 SP:F9 PPU:135
FA80  60        RTS A:B3 X:02 Y:C2 P:E4 SP:F9 PPU:141
EE5E  07 47     SLO A:B3 X:02 Y:C2 P:E4 SP:FB PPU:159
EE60  EA        NOP A:FB X:02 Y:C2 P:E5 SP:FB PPU:174
EE61  EA        NOP A:FB X:02 Y:C2 P:E5 SP:FB PPU:180
EE62  EA        NOP A:FB X:02 Y:C2 P:E5 SP:FB PPU:186
EE63  EA        NOP A:FB X:02 Y:C2 P:E5 SP:FB PPU:192
EE64  20 81 FA  JSR A:FB X:02 Y:C2 P:E5 SP:FB PPU:198
FA81  50 63     BVC A:FB X:02 Y:C2 P:E5 SP:F9 PPU:216
FA83  90 61     BCC A:FB X:02 Y:C2 P:E5 SP:F9 PPU:222
FA85  10 5F     BPL A:FB X:02 Y:C2 P:E5 SP:F9 PPU:228
FA87  C9 FB     CMP A:FB X:02 Y:C2 P:E5 SP:F9 PPU:234
FA89  D0 5B     BNE A:FB X:02 Y:C2 P:67 SP:F9 PPU:240
FA8B  60        RTS A:FB X:02 Y:C2 P:67 SP:F9 PPU:246
EE67  A5 47     LDA A:FB X:02 Y:C2 P:67 SP:FB PPU:264
EE69  C9 4A     CMP A:4A X:02 Y:C2 P:65 SP:FB PPU:273
EE6B  F0 02     BEQ A:4A X:02 Y:C2 P:67 SP:FB PPU:279
EE6F  C8        INY A:4A X:02 Y:C2 P:67 SP:FB PPU:288
EE70  A9 29     LDA A:4A X:02 Y:C3 P:E5 SP:FB PPU:294
EE72  85 47     STA A:29 X:02 Y:C3 P:65 SP:FB PPU:300
EE74  20 8C FA  JSR A:29 X:02 Y:C3 P:65 SP:FB PPU:309
FA8C  B8        CLV A:29 X:02 Y:C3 P:65 SP:F9 PPU:327
FA8D  18        CLC A:29 X:02 Y:C3 P:25 SP:F9 PPU:333
FA8E  A9 C3     LDA A:29 X:02 Y:C3 P:24 SP:F9 PPU:339
FA90  60        RTS A:C3 X:02 Y:C3 P:A4 SP:F9 PPU:  4
EE77  07 47     SLO A:C3 X:02 Y:C3 P:A4 SP:FB PPU: 22
EE79  EA        NOP A:D3 X:02 Y:C3 P:A4 SP:FB PPU: 37
EE7A  EA        NOP A:D3 X:02 Y:C3 P:A4 SP:FB PPU: 43
EE7B  EA        NOP A:D3 X:02 Y:C3 P:A4 SP:FB PPU: 49
EE7C  EA        NOP A:D3 X:02 Y:C3 P:A4 SP:FB PPU: 55
EE7D  20 91 FA  JSR A:D3 X:02 Y:C3 P:A4 SP:FB PPU: 61
FA91  70 53     BVS A:D3 X:02 Y:C3 P:A4 SP:F9 PPU: 79
FA93  F0 51     BEQ A:D3 X:02 Y:C3 P:A4 SP:F9 PPU: 85
FA95  10 4F     BPL A:D3 X:02 Y:C3 P:A4 SP:F9 PPU: 91
FA97  B0 4D     BCS A:D3 X:02 Y:C3 P:A4 SP:F9 PPU: 97
FA99  C9 D3     CMP A:D3 X:02 Y:C3 P:A4 SP:F9 PPU:103
FA9B  D0 49     BNE A:D3 X:02 Y:C3 P:27 SP:F9 PPU:109
FA9D  60        RTS A:D3 X:02 Y:C3 P:27 SP:F9 PPU:115
EE80  A5 47     LDA A:D3 X:02 Y:C3 P:27 SP:FB PPU:133
EE82  C9 52     CMP A:52 X:02 Y:C3 P:25 SP:FB PPU:142
EE84  F0 02     BEQ A:52 X:02 Y:C3 P:27 SP:FB PPU:148
EE88  C8        INY A:52 X:02 Y:C3 P:27 SP:FB PPU:157
EE89  A9 37     LDA A:52 X:02 Y:C4 P:A5 SP:FB PPU:163
EE8B  85 47     STA A:37 X:02 Y:C4 P:25 SP:FB PPU:169
EE8D  20 9E FA  JSR A:37 X:02 Y:C4 P:25 SP:FB PPU:178
FA9E  24 01     BIT A:37 X:02 Y:C4 P:25 SP:F9 PPU:196
FAA0  38        SEC A:37 X:02 Y:C4 P:E5 SP:F9 PPU:205
FAA1  A9 10     LDA A:37 X:02 Y:C4 P:E5 SP:F9 PPU:211
FAA3  60        RTS A:10 X:02 Y:C4 P:65 SP:F9 PPU:217
EE90  07 47     SLO A:10 X:02 Y:C4 P:65 SP:FB PPU:235
EE92  EA        NOP A:7E X:02 Y:C4 P:64 SP:FB PPU:250
EE93  EA        NOP A:7E X:02 Y:C4 P:64 SP:FB PPU:256
EE94  EA        NOP A:7E X:02 Y:C4 P:64 SP:FB PPU:262
EE95  EA        NOP A:7E X:02 Y:C4 P:64 SP:FB PPU:268
EE96  20 A4 FA  JSR A:7E X:02 Y:C4 P:64 SP:FB PPU:274
FAA4  50 40     BVC A:7E X:02 Y:C4 P:64 SP:F9 PPU:292
FAA6  F0 3E     BEQ A:7E X:02 Y:C4 P:64 SP:F9 PPU:298
FAA8  30 3C     BMI A:7E X:02 Y:C4 P:64 SP:F9 PPU:304
FAAA  B0 3A     BCS A:7E X:02 Y:C4 P:64 SP:F9 PPU:310
FAAC  C9 7E     CMP A:7E X:02 Y:C4 P:64 SP:F9 PPU:316
FAAE  D0 36     BNE A:7E X:02 Y:C4 P:67 SP:F9 PPU:322
FAB0  60        RTS A:7E X:02 Y:C4 P:67 SP:F9 PPU:328
EE99  A5 47     LDA A:7E X:02 Y:C4 P:67 SP:FB PPU:  5
EE9B  C9 6E     CMP A:6E X:02 Y:C4 P:65 SP:FB PPU: 14
EE9D  F0 02     BEQ A:6E X:02 Y:C4 P:67 SP:FB PPU: 20
EEA1  C8        INY A:6E X:02 Y:C4 P:67 SP:FB PPU: 29
EEA2  A9 A5     LDA A:6E X:02 Y:C5 P:E5 SP:FB PPU: 35
EEA4  8D 47 06  STA A:A5 X:02 Y:C5 P:E5 SP:FB PPU: 41
EEA7  20 7B FA  JSR A:A5 X:02 Y:C5 P:E5 SP:FB PPU: 53
FA7B  24 01     BIT A:A5 X:02 Y:C5 P:E5 SP:F9 PPU: 71
FA7D  18        CLC A:A5 X:02 Y:C5 P:E5 SP:F9 PPU: 80
FA7E  A9 B3     LDA A:A5 X:02 Y:C5 P:E4 SP:F9 PPU: 86
FA80  60        RTS A:B3 X:02 Y:C5 P:E4 SP:F9 PPU: 92
EEAA  0F 47 06  SLO A:B3 X:02 Y:C5 P:E4 SP:FB PPU:110
EEAD  EA        NOP A:FB X:02 Y:C5 P:E5 SP:FB PPU:128
EEAE  EA        NOP A:FB X:02 Y:C5 P:E5 SP:FB PPU:134
EEAF  EA        NOP A:FB X:02 Y:C5 P:E5 SP:FB PPU:140
EEB0  EA        NOP A:FB X:02 Y:C5 P:E5 SP:FB PPU:146
EEB1  20 81 FA  JSR A:FB X:02 Y:C5 P:E5 SP:FB PPU:152
FA81  50 63     BVC A:FB X:02 Y:C5 P:E5 SP:F9 PPU:170
FA83  90 61     BCC A:FB X:02 Y:C5 P:E5 SP:F9 PPU:176
FA85  10 5F     BPL A:FB X:02 Y:C5 P:E5 SP:F9 PPU:182
FA87  C9 FB     CMP A:FB X:02 Y:C5 P:E5 SP:F9 PPU:188
FA89  D0 5B     BNE A:FB X:02 Y:C5 P:67 SP:F9 PPU:194
FA8B  60        RTS A:FB X:02 Y:C5 P:67 SP:F9 PPU:200
EEB4  AD 47 06  LDA A:FB X:02 Y:C5 P:67 SP:FB PPU:218
EEB7  C9 4A     CMP A:4A X:02 Y:C5 P:65 SP:FB PPU:230
EEB9  F0 02     BEQ A:4A X:02 Y:C5 P:67 SP:FB PPU:236
EEBD  C8        INY A:4A X:02 Y:C5 P:67 SP:FB PPU:245
EEBE  A9 29     LDA A:4A X:02 Y:C6 P:E5 SP:FB PPU:251
EEC0  8D 47 06  STA A:29 X:02 Y:C6 P:65 SP:FB PPU:257
EEC3  20 8C FA  JSR A:29 X:02 Y:C6 P:65 SP:FB PPU:269
FA8C  B8        CLV A:29 X:02 Y:C6 P:65 SP:F9 PPU:287
FA8D  18        CLC A:29 X:02 Y:C6 P:25 SP:F9 PPU:293
FA8E  A9 C3     LDA A:29 X:02 Y:C6 P:24 SP:F9 PPU:299
FA90  60        RTS A:C3 X:02 Y:C6 P:A4 SP:F9 PPU:305
EEC6  0F 47 06  SLO A:C3 X:02 Y:C6 P:A4 SP:FB PPU:323
EEC9  EA        NOP A:D3 X:02 Y:C6 P:A4 SP:FB PPU:  0
EECA  EA        NOP A:D3 X:02 Y:C6 P:A4 SP:FB PPU:  6
EECB  EA        NOP A:D3 X:02 Y:C6 P:A4 SP:FB PPU: 12
EECC  EA        NOP A:D3 X:02 Y:C6 P:A4 SP:FB PPU: 18
EECD  20 91 FA  JSR A:D3 X:02 Y:C6 P:A4 SP:FB PPU: 24
FA91  70 53     BVS A:D3 X:02 Y:C6 P:A4 SP:F9 PPU: 42
FA93  F0 51     BEQ A:D3 X:02 Y:C6 P:A4 SP:F9 PPU: 48
FA95  10 4F     BPL A:D3 X:02 Y:C6 P:A4 SP:F9 PPU: 54
FA97  B0 4D     BCS A:D3 X:02 Y:C6 P:A4 SP:F9 PPU: 60
FA99  C9 D3     CMP A:D3 X:02 Y:C6 P:A4 SP:F9 PPU: 66
FA9B  D0 49     BNE A:D3 X:02 Y:C6 P:27 SP:F9 PPU: 72
FA9D  60        RTS A:D3 X:02 Y:C6 P:27 SP:F9 PPU: 78
EED0  AD 47 06  LDA A:D3 X:02 Y:C6 P:27 SP:FB PPU: 96
EED3  C9 52     CMP A:52 X:02 Y:C6 P:25 SP:FB PPU:108
EED5  F0 02     BEQ A:52 X:02 Y:C6 P:27 SP:FB PPU:114
EED9  C8        INY A:52 X:02 Y:C6 P:27 SP:FB PPU:123
EEDA  A9 37     LDA A:52 X:02 Y:C7 P:A5 SP:FB PPU:129
EEDC  8D 47 06  STA A:37 X:02 Y:C7 P:25 SP:FB PPU:135
EEDF  20 9E FA  JSR A:37 X:02 Y:C7 P:25 SP:FB PPU:147
FA9E  24 01     BIT A:37 X:02 Y:C7 P:25 SP:F9 PPU:165
FAA0  38        SEC A:37 X:02 Y:C7 P:E5 SP:F9 PPU:174
FAA1  A9 10     LDA A:37 X:02 Y:C7 P:E5 SP:F9 PPU:180
FAA3  60        RTS A:10 X:02 Y:C7 P:65 SP:F9 PPU:186
EEE2  0F 47 06  SLO A:10 X:02 Y:C7 P:65 SP:FB PPU:204
EEE5  EA        NOP A:7E X:02 Y:C7 P:64 SP:FB PPU:222
EEE6  EA        NOP A:7E X:02 Y:C7 P:64 SP:FB PPU:228
EEE7  EA        NOP A:7E X:02 Y:C7 P:64 SP:FB PPU:234
EEE8  EA        NOP A:7E X:02 Y:C7 P:64 SP:FB PPU:240
EEE9  20 A4 FA  JSR A:7E X:02 Y:C7 P:64 SP:FB PPU:246
FAA4  50 40     BVC A:7E X:02 Y:C7 P:64 SP:F9 PPU:264
FAA6  F0 3E     BEQ A:7E X:02 Y:C7 P:64 SP:F9 PPU:270
FAA8  30 3C     BMI A:7E X:02 Y:C7 P:64 SP:F9 PPU:276
FAAA  B0 3A     BCS A:7E X:02 Y:C7 P:64 SP:F9 PPU:282
FAAC  C9 7E     CMP A:7E X:02 Y:C7 P:64 SP:F9 PPU:288
FAAE  D0 36     BNE A:7E X:02 Y:C7 P:67 SP:F9 PPU:294
FAB0  60        RTS A:7E X:02 Y:C7 P:67 SP:F9 PPU:300
EEEC  AD 47 06  LDA A:7E X:02 Y:C7 P:67 SP:FB PPU:318
EEEF  C9 6E     CMP A:6E X:02 Y:C7 P:65 SP:FB PPU:330
EEF1  F0 02     BEQ A:6E X:02 Y:C7 P:67 SP:FB PPU:336
EEF5  A9 A5     LDA A:6E X:02 Y:C7 P:67 SP:FB PPU:  4
EEF7  8D 47 06  STA A:A5 X:02 Y:C7 P:E5 SP:FB PPU: 10
EEFA  A9 48     LDA A:A5 X:02 Y:C7 P:E5 SP:FB PPU: 22
EEFC  85 45     STA A:48 X:02 Y:C7 P:65 SP:FB PPU: 28
EEFE  A9 05     LDA A:48 X:02 Y:C7 P:65 SP:FB PPU: 37
EF00  85 46     STA A:05 X:02 Y:C7 P:65 SP:FB PPU: 43
EF02  A0 FF     LDY A:05 X:02 Y:C7 P:65 SP:FB PPU: 52
EF04  20 7B FA  JSR A:05 X:02 Y:FF P:E5 SP:FB PPU: 58
FA7B  24 01     BIT A:05 X:02 Y:FF P:E5 SP:F9 PPU: 76
FA7D  18        CLC A:05 X:02 Y:FF P:E5 SP:F9 PPU: 85
FA7E  A9 B3     LDA A:05 X:02 Y:FF P:E4 SP:F9 PPU: 91
FA80  60        RTS A:B3 X:02 Y:FF P:E4 SP:F9 PPU: 97
EF07  13 45     SLO A:B3 X:02 Y:FF P:E4 SP:FB PPU:115
EF09  EA        NOP A:FB X:02 Y:FF P:E5 SP:FB PPU:139
EF0A  EA        NOP A:FB X:02 Y:FF P:E5 SP:FB PPU:145
EF0B  08        PHP A:FB X:02 Y:FF P:E5 SP:FB PPU:151
EF0C  48        PHA A:FB X:02 Y:FF P:E5 SP:FA PPU:160
EF0D  A0 C8     LDY A:FB X:02 Y:FF P:E5 SP:F9 PPU:169
EF0F  68        PLA A:FB X:02 Y:C8 P:E5 SP:F9 PPU:175
EF10  28        PLP A:FB X:02 Y:C8 P:E5 SP:FA PPU:187
EF11  20 81 FA  JSR A:FB X:02 Y:C8 P:E5 SP:FB PPU:199
FA81  50 63     BVC A:FB X:02 Y:C8 P:E5 SP:F9 PPU:217
FA83  90 61     BCC A:FB X:02 Y:C8 P:E5 SP:F9 PPU:223
FA85  10 5F     BPL A:FB X:02 Y:C8 P:E5 SP:F9 PPU:229
FA87  C9 FB     CMP A:FB X:02 Y:C8 P:E5 SP:F9 PPU:235
FA89  D0 5B     BNE A:FB X:02 Y:C8 P:67 SP:F9 PPU:241
FA8B  60        RTS A:FB X:02 Y:C8 P:67 SP:F9 PPU:247
EF14  AD 47 06  LDA A:FB X:02 Y:C8 P:67 SP:FB PPU:265
EF17  C9 4A     CMP A:4A X:02 Y:C8 P:65 SP:FB PPU:277
EF19  F0 02     BEQ A:4A X:02 Y:C8 P:67 SP:FB PPU:283
EF1D  A0 FF     LDY A:4A X:02 Y:C8 P:67 SP:FB PPU:292
EF1F  A9 29     LDA A:4A X:02 Y:FF P:E5 SP:FB PPU:298
EF21  8D 47 06  STA A:29 X:02 Y:FF P:65 SP:FB PPU:304
EF24  20 8C FA  JSR A:29 X:02 Y:FF P:65 SP:FB PPU:316
FA8C  B8        CLV A:29 X:02 Y:FF P:65 SP:F9 PPU:334
FA8D  18        CLC A:29 X:02 Y:FF P:25 SP:F9 PPU:340
FA8E  A9 C3     LDA A:29 X:02 Y:FF P:24 SP:F9 PPU:  5
FA90  60        RTS A:C3 X:02 Y:FF P:A4 SP:F9 PPU: 11
EF27  13 45     SLO A:C3 X:02 Y:FF P:A4 SP:FB PPU: 29
EF29  EA        NOP A:D3 X:02 Y:FF P:A4 SP:FB PPU: 53
EF2A  EA        NOP A:D3 X:02 Y:FF P:A4 SP:FB PPU: 59
EF2B  08        PHP A:D3 X:02 Y:FF P:A4 SP:FB PPU: 65
EF2C  48        PHA A:D3 X:02 Y:FF P:A4 SP:FA PPU: 74
EF2D  A0 C9     LDY A:D3 X:02 Y:FF P:A4 SP:F9 PPU: 83
EF2F  68        PLA A:D3 X:02 Y:C9 P:A4 SP:F9 PPU: 89
EF30  28        PLP A:D3 X:02 Y:C9 P:A4 SP:FA PPU:101
EF31  20 91 FA  JSR A:D3 X:02 Y:C9 P:A4 SP:FB PPU:113
FA91  70 53     BVS A:D3 X:02 Y:C9 P:A4 SP:F9 PPU:131
FA93  F0 51     BEQ A:D3 X:02 Y:C9 P:A4 SP:F9 PPU:137
FA95  10 4F     BPL A:D3 X:02 Y:C9 P:A4 SP:F9 PPU:143
FA97  B0 4D     BCS A:D3 X:02 Y:C9 P:A4 SP:F9 PPU:149
FA99  C9 D3     CMP A:D3 X:02 Y:C9 P:A4 SP:F9 PPU:155
FA9B  D0 49     BNE A:D3 X:02 Y:C9 P:27 SP:F9 PPU:161
FA9D  60        RTS A:D3 X:02 Y:C9 P:27 SP:F9 PPU:167
EF34  AD 47 06  LDA A:D3 X:02 Y:C9 P:27 SP:FB PPU:185
EF37  C9 52     CMP A:52 X:02 Y:C9 P:25 SP:FB PPU:197
EF39  F0 02     BEQ A:52 X:02 Y:C9 P:27 SP:FB PPU:203
EF3D  A0 FF     LDY A:52 X:02 Y:C9 P:27 SP:FB PPU:212
EF3F  A9 37     LDA A:52 X:02 Y:FF P:A5 SP:FB PPU:218
EF41  8D 47 06  STA A:37 X:02 Y:FF P:25 SP:FB PPU:224
EF44  20 9E FA  JSR A:37 X:02 Y:FF P:25 SP:FB PPU:236
FA9E  24 01     BIT A:37 X:02 Y:FF P:25 SP:F9 PPU:254
FAA0  38        SEC A:37 X:02 Y:FF P:E5 SP:F9 PPU:263
FAA1  A9 10     LDA A:37 X:02 Y:FF P:E5 SP:F9 PPU:269
FAA3  60        RTS A:10 X:02 Y:FF P:65 SP:F9 PPU:275
EF47  13 45     SLO A:10 X:02 Y:FF P:65 SP:FB PPU:293
EF49  EA        NOP A:7E X:02 Y:FF P:64 SP:FB PPU:317
EF4A  EA        NOP A:7E X:02 Y:FF P:64 SP:FB PPU:323
EF4B  08        PHP A:7E X:02 Y:FF P:64 SP:FB PPU:329
EF4C  48        PHA A:7E X:02 Y:FF P:64 SP:FA PPU:338
EF4D  A0 CA     LDY A:7E X:02 Y:FF P:64 SP:F9 PPU:  6
EF4F  68        PLA A:7E X:02 Y:CA P:E4 SP:F9 PPU: 12
EF50  28        PLP A:7E X:02 Y:CA P:64 SP:FA PPU: 24
EF51  20 A4 FA  JSR A:7E X:02 Y:CA P:64 SP:FB PPU: 36
FAA4  50 40     BVC A:7E X:02 Y:CA P:64 SP:F9 PPU: 54
FAA6  F0 3E     BEQ A:7E X:02 Y:CA P:64 SP:F9 PPU: 60
FAA8  30 3C     BMI A:7E X:02 Y:CA P:64 SP:F9 PPU: 66
FAAA  B0 3A     BCS A:7E X:02 Y:CA P:64 SP:F9 PPU: 72
FAAC  C9 7E     CMP A:7E X:02 Y:CA P:64 SP:F9 PPU: 78
FAAE  D0 36     BNE A:7E X:02 Y:CA P:67 SP:F9 PPU: 84
FAB0  60        RTS A:7E X:02 Y:CA P:67 SP:F9 PPU: 90
EF54  AD 47 06  LDA A:7E X:02 Y:CA P:67 SP:FB PPU:108
EF57  C9 6E     CMP A:6E X:02 Y:CA P:65 SP:FB PPU:120
EF59  F0 02     BEQ A:6E X:02 Y:CA P:67 SP:FB PPU:126
EF5D  A0 CB     LDY A:6E X:02 Y:CA P:67 SP:FB PPU:135
EF5F  A2 FF     LDX A:6E X:02 Y:CB P:E5 SP:FB PPU:141
EF61  A9 A5     LDA A:6E X:FF Y:CB P:E5 SP:FB PPU:147
EF63  85 47     STA A:A5 X:FF Y:CB P:E5 SP:FB PPU:153
EF65  20 7B FA  JSR A:A5 X:FF Y:CB P:E5 SP:FB PPU:162
FA7B  24 01     BIT A:A5 X:FF Y:CB P:E5 SP:F9 PPU:180
FA7D  18        CLC A:A5 X:FF Y:CB P:E5 SP:F9 PPU:189
FA7E  A9 B3     LDA A:A5 X:FF Y:CB P:E4 SP:F9 PPU:195
FA80  60        RTS A:B3 X:FF Y:CB P:E4 SP:F9 PPU:201
EF68  17 48     SLO A:B3 X:FF Y:CB P:E4 SP:FB PPU:219
EF6A  EA        NOP A:FB X:FF Y:CB P:E5 SP:FB PPU:237
EF6B  EA        NOP A:FB X:FF Y:CB P:E5 SP:FB PPU:243
EF6C  EA        NOP A:FB X:FF Y:CB P:E5 SP:FB PPU:249
EF6D  EA        NOP A:FB X:FF Y:CB P:E5 SP:FB PPU:255
EF6E  20 81 FA  JSR A:FB X:FF Y:CB P:E5 SP:FB PPU:261
FA81  50 63     BVC A:FB X:FF Y:CB P:E5 SP:F9 PPU:279
FA83  90 61     BCC A:FB X:FF Y:CB P:E5 SP:F9 PPU:285
FA85  10 5F     BPL A:FB X:FF Y:CB P:E5 SP:F9 PPU:291
FA87  C9 FB     CMP A:FB X:FF Y:CB P:E5 SP:F9 PPU:297
FA89  D0 5B     BNE A:FB X:FF Y:CB P:67 SP:F9 PPU:303
FA8B  60        RTS A:FB X:FF Y:CB P:67 SP:F9 PPU:309
EF71  A5 47     LDA A:FB X:FF Y:CB P:67 SP:FB PPU:327
EF73  C9 4A     CMP A:4A X:FF Y:CB P:65 SP:FB PPU:336
EF75  F0 02     BEQ A:4A X:FF Y:CB P:67 SP:FB PPU:  1
EF79  C8        INY A:4A X:FF Y:CB P:67 SP:FB PPU: 10
EF7A  A9 29     LDA A:4A X:FF Y:CC P:E5 SP:FB PPU: 16
EF7C  85 47     STA A:29 X:FF Y:CC P:65 SP:FB PPU: 22
EF7E  20 8C FA  JSR A:29 X:FF Y:CC P:65 SP:FB PPU: 31
FA8C  B8        CLV A:29 X:FF Y:CC P:65 SP:F9 PPU: 49
FA8D  18        CLC A:29 X:FF Y:CC P:25 SP:F9 PPU: 55
FA8E  A9 C3     LDA A:29 X:FF Y:CC P:24 SP:F9 PPU: 61
FA90  60        RTS A:C3 X:FF Y:CC P:A4 SP:F9 PPU: 67
EF81  17 48     SLO A:C3 X:FF Y:CC P:A4 SP:FB PPU: 85
EF83  EA        NOP A:D3 X:FF Y:CC P:A4 SP:FB PPU:103
EF84  EA        NOP A:D3 X:FF Y:CC P:A4 SP:FB PPU:109
EF85  EA        NOP A:D3 X:FF Y:CC P:A4 SP:FB PPU:115
EF86  EA        NOP A:D3 X:FF Y:CC P:A4 SP:FB PPU:121
EF87  20 91 FA  JSR A:D3 X:FF Y:CC P:A4 SP:FB PPU:127
FA91  70 53     BVS A:D3 X:FF Y:CC P:A4 SP:F9 PPU:145
FA93  F0 51     BEQ A:D3 X:FF Y:CC P:A4 SP:F9 PPU:151
FA95  10 4F     BPL A:D3 X:FF Y:CC P:A4 SP:F9 PPU:157
FA97  B0 4D     BCS A:D3 X:FF Y:CC P:A4 SP:F9 PPU:163
FA99  C9 D3     CMP A:D3 X:FF Y:CC P:A4 SP:F9 PPU:169
FA9B  D0 49     BNE A:D3 X:FF Y:CC P:27 SP:F9 PPU:175
FA9D  60        RTS A:D3 X:FF Y:CC P:27 SP:F9 PPU:181
EF8A  A5 47     LDA A:D3 X:FF Y:CC P:27 SP:FB PPU:199
EF8C  C9 52     CMP A:52 X:FF Y:CC P:25 SP:FB PPU:208
EF8E  F0 02     BEQ A:52 X:FF Y:CC P:27 SP:FB PPU:214
EF92  C8        INY A:52 X:FF Y:CC P:27 SP:FB PPU:223
EF93  A9 37     LDA A:52 X:FF Y:CD P:A5 SP:FB PPU:229
EF95  85 47     STA A:37 X:FF Y:CD P:25 SP:FB PPU:235
EF97  20 9E FA  JSR A:37 X:FF Y:CD P:25 SP:FB PPU:244
FA9E  24 01     BIT A:37 X:FF Y:CD P:25 SP:F9 PPU:262
FAA0  38        SEC A:37 X:FF Y:CD P:E5 SP:F9 PPU:271
FAA1  A9 10     LDA A:37 X:FF Y:CD P:E5 SP:F9 PPU:277
FAA3  60        RTS A:10 X:FF Y:CD P:65 SP:F9 PPU:283
EF9A  17 48     SLO A:10 X:FF Y:CD P:65 SP:FB PPU:301
EF9C  EA        NOP A:7E X:FF Y:CD P:64 SP:FB PPU:319
EF9D  EA        NOP A:7E X:FF Y:CD P:64 SP:FB PPU:325
EF9E  EA        NOP A:7E X:FF Y:CD P:64 SP:FB PPU:331
EF9F  EA        NOP A:7E X:FF Y:CD P:64 SP:FB PPU:337
EFA0  20 A4 FA  JSR A:7E X:FF Y:CD P:64 SP:FB PPU:  2
FAA4  50 40     BVC A:7E X:FF Y:CD P:64 SP:F9 PPU: 20
FAA6  F0 3E     BEQ A:7E X:FF Y:CD P:64 SP:F9 PPU: 26
FAA8  30 3C     BMI A:7E X:FF Y:CD P:64 SP:F9 PPU: 32
FAAA  B0 3A     BCS A:7E X:FF Y:CD P:64 SP:F9 PPU: 38
FAAC  C9 7E     CMP A:7E X:FF Y:CD P:64 SP:F9 PPU: 44
FAAE  D0 36     BNE A:7E X:FF Y:CD P:67 SP:F9 PPU: 50
FAB0  60        RTS A:7E X:FF Y:CD P:67 SP:F9 PPU: 56
EFA3  A5 47     LDA A:7E X:FF Y:CD P:67 SP:FB PPU: 74
EFA5  C9 6E     CMP A:6E X:FF Y:CD P:65 SP:FB PPU: 83
EFA7  F0 02     BEQ A:6E X:FF Y:CD P:67 SP:FB PPU: 89
EFAB  A9 A5     LDA A:6E X:FF Y:CD P:67 SP:FB PPU: 98
EFAD  8D 47 06  STA A:A5 X:FF Y:CD P:E5 SP:FB PPU:104
EFB0  A0 FF     LDY A:A5 X:FF Y:CD P:E5 SP:FB PPU:116
EFB2  20 7B FA  JSR A:A5 X:FF Y:FF P:E5 SP:FB PPU:122
FA7B  24 01     BIT A:A5 X:FF Y:FF P:E5 SP:F9 PPU:140
FA7D  18        CLC A:A5 X:FF Y:FF P:E5 SP:F9 PPU:149
FA7E  A9 B3     LDA A:A5 X:FF Y:FF P:E4 SP:F9 PPU:155
FA80  60        RTS A:B3 X:FF Y:FF P:E4 SP:F9 PPU:161
EFB5  1B 48 05  SLO A:B3 X:FF Y:FF P:E4 SP:FB PPU:179
EFB8  EA        NOP A:FB X:FF Y:FF P:E5 SP:FB PPU:200
EFB9  EA        NOP A:FB X:FF Y:FF P:E5 SP:FB PPU:206
EFBA  08        PHP A:FB X:FF Y:FF P:E5 SP:FB PPU:212
EFBB  48        PHA A:FB X:FF Y:FF P:E5 SP:FA PPU:221
EFBC  A0 CE     LDY A:FB X:FF Y:FF P:E5 SP:F9 PPU:230
EFBE  68        PLA A:FB X:FF Y:CE P:E5 SP:F9 PPU:236
EFBF  28        PLP A:FB X:FF Y:CE P:E5 SP:FA PPU:248
EFC0  20 81 FA  JSR A:FB X:FF Y:CE P:E5 SP:FB PPU:260
FA81  50 63     BVC A:FB X:FF Y:CE P:E5 SP:F9 PPU:278
FA83  90 61     BCC A:FB X:FF Y:CE P:E5 SP:F9 PPU:284
FA85  10 5F     BPL A:FB X:FF Y:CE P:E5 SP:F9 PPU:290
FA87  C9 FB     CMP A:FB X:FF Y:CE P:E5 SP:F9 PPU:296
FA89  D0 5B     BNE A:FB X:FF Y:CE P:67 SP:F9 PPU:302
FA8B  60        RTS A:FB X:FF Y:CE P:67 SP:F9 PPU:308
EFC3  AD 47 06  LDA A:FB X:FF Y:CE P:67 SP:FB PPU:326
EFC6  C9 4A     CMP A:4A X:FF Y:CE P:65 SP:FB PPU:338
EFC8  F0 02     BEQ A:4A X:FF Y:CE P:67 SP:FB PPU:  3
EFCC  A0 FF     LDY A:4A X:FF Y:CE P:67 SP:FB PPU: 12
EFCE  A9 29     LDA A:4A X:FF Y:FF P:E5 SP:FB PPU: 18
EFD0  8D 47 06  STA A:29 X:FF Y:FF P:65 SP:FB PPU: 24
EFD3  20 8C FA  JSR A:29 X:FF Y:FF P:65 SP:FB PPU: 36
FA8C  B8        CLV A:29 X:FF Y:FF P:65 SP:F9 PPU: 54
FA8D  18        CLC A:29 X:FF Y:FF P:25 SP:F9 PPU: 60
FA8E  A9 C3     LDA A:29 X:FF Y:FF P:24 SP:F9 PPU: 66
FA90  60        RTS A:C3 X:FF Y:FF P:A4 SP:F9 PPU: 72
EFD6  1B 48 05  SLO A:C3 X:FF Y:FF P:A4 SP:FB PPU: 90
EFD9  EA        NOP A:D3 X:FF Y:FF P:A4 SP:FB PPU:111
EFDA  EA        NOP A:D3 X:FF Y:FF P:A4 SP:FB PPU:117
EFDB  08        PHP A:D3 X:FF Y:FF P:A4 SP:FB PPU:123
EFDC  48        PHA A:D3 X:FF Y:FF P:A4 SP:FA PPU:132
EFDD  A0 CF     LDY A:D3 X:FF Y:FF P:A4 SP:F9 PPU:141
EFDF  68        PLA A:D3 X:FF Y:CF P:A4 SP:F9 PPU:147
EFE0  28        PLP A:D3 X:FF Y:CF P:A4 SP:FA PPU:159
EFE1  20 91 FA  JSR A:D3 X:FF Y:CF P:A4 SP:FB PPU:171
FA91  70 53     BVS A:D3 X:FF Y:CF P:A4 SP:F9 PPU:189
FA93  F0 51     BEQ A:D3 X:FF Y:CF P:A4 SP:F9 PPU:195
FA95  10 4F     BPL A:D3 X:FF Y:CF P:A4 SP:F9 PPU:201
FA97  B0 4D     BCS A:D3 X:FF Y:CF P:A4 SP:F9 PPU:207
FA99  C9 D3     CMP A:D3 X:FF Y:CF P:A4 SP:F9 PPU:213
FA9B  D0 49     BNE A:D3 X:FF Y:CF P:27 SP:F9 PPU:219
FA9D  60        RTS A:D3 X:FF Y:CF P:27 SP:F9 PPU:225
EFE4  AD 47 06  LDA A:D3 X:FF Y:CF P:27 SP:FB PPU:243
EFE7  C9 52     CMP A:52 X:FF Y:CF P:25 SP:FB PPU:255
EFE9  F0 02     BEQ A:52 X:FF Y:CF P:27 SP:FB PPU:261
EFED  A0 FF     LDY A:52 X:FF Y:CF P:27 SP:FB PPU:270
EFEF  A9 37     LDA A:52 X:FF Y:FF P:A5 SP:FB PPU:276
EFF1  8D 47 06  STA A:37 X:FF Y:FF P:25 SP:FB PPU:282
EFF4  20 9E FA  JSR A:37 X:FF Y:FF P:25 SP:FB PPU:294
FA9E  24 01     BIT A:37 X:FF Y:FF P:25 SP:F9 PPU:312
FAA0  38        SEC A:37 X:FF Y:FF P:E5 SP:F9 PPU:321
FAA1  A9 10     LDA A:37 X:FF Y:FF P:E5 SP:F9 PPU:327
FAA3  60        RTS A:10 X:FF Y:FF P:65 SP:F9 PPU:333
EFF7  1B 48 05  SLO A:10 X:FF Y:FF P:65 SP:FB PPU: 10
EFFA  EA        NOP A:7E X:FF Y:FF P:64 SP:FB PPU: 31
EFFB  EA        NOP A:7E X:FF Y:FF P:64 SP:FB PPU: 37
EFFC  08        PHP A:7E X:FF Y:FF P:64 SP:FB PPU: 43
EFFD  48        PHA A:7E X:FF Y:FF P:64 SP:FA PPU: 52
EFFE  A0 D0     LDY A:7E X:FF Y:FF P:64 SP:F9 PPU: 61
F000  68        PLA A:7E X:FF Y:D0 P:E4 SP:F9 PPU: 67
F001  28        PLP A:7E X:FF Y:D0 P:64 SP:FA PPU: 79
F002  20 A4 FA  JSR A:7E X:FF Y:D0 P:64 SP:FB PPU: 91
FAA4  50 40     BVC A:7E X:FF Y:D0 P:64 SP:F9 PPU:109
FAA6  F0 3E     BEQ A:7E X:FF Y:D0 P:64 SP:F9 PPU:115
FAA8  30 3C     BMI A:7E X:FF Y:D0 P:64 SP:F9 PPU:121
FAAA  B0 3A     BCS A:7E X:FF Y:D0 P:64 SP:F9 PPU:127
FAAC  C9 7E     CMP A:7E X:FF Y:D0 P:64 SP:F9 PPU:133
FAAE  D0 36     BNE A:7E X:FF Y:D0 P:67 SP:F9 PPU:139
FAB0  60        RTS A:7E X:FF Y:D0 P:67 SP:F9 PPU:145
F005  AD 47 06  LDA A:7E X:FF Y:D0 P:67 SP:FB PPU:163
F008  C9 6E     CMP A:6E X:FF Y:D0 P:65 SP:FB PPU:175
F00A  F0 02     BEQ A:6E X:FF Y:D0 P:67 SP:FB PPU:181
F00E  A0 D1     LDY A:6E X:FF Y:D0 P:67 SP:FB PPU:190
F010  A2 FF     LDX A:6E X:FF Y:D1 P:E5 SP:FB PPU:196
F012  A9 A5     LDA A:6E X:FF Y:D1 P:E5 SP:FB PPU:202
F014  8D 47 06  STA A:A5 X:FF Y:D1 P:E5 SP:FB PPU:208
F017  20 7B FA  JSR A:A5 X:FF Y:D1 P:E5 SP:FB PPU:220
FA7B  24 01     BIT A:A5 X:FF Y:D1 P:E5 SP:F9 PPU:238
FA7D  18        CLC A:A5 X:FF Y:D1 P:E5 SP:F9 PPU:247
FA7E  A9 B3     LDA A:A5 X:FF Y:D1 P:E4 SP:F9 PPU:253
FA80  60        RTS A:B3 X:FF Y:D1 P:E4 SP:F9 PPU:259
F01A  1F 48 05  SLO A:B3 X:FF Y:D1 P:E4 SP:FB PPU:277
F01D  EA        NOP A:FB X:FF Y:D1 P:E5 SP:FB PPU:298
F01E  EA        NOP A:FB X:FF Y:D1 P:E5 SP:FB PPU:304
F01F  EA        NOP A:FB X:FF Y:D1 P:E5 SP:FB PPU:310
F020  EA        NOP A:FB X:FF Y:D1 P:E5 SP:FB PPU:316
F021  20 81 FA  JSR A:FB X:FF Y:D1 P:E5 SP:FB PPU:322
FA81  50 63     BVC A:FB X:FF Y:D1 P:E5 SP:F9 PPU:340
FA83  90 61     BCC A:FB X:FF Y:D1 P:E5 SP:F9 PPU:  5
FA85  10 5F     BPL A:FB X:FF Y:D1 P:E5 SP:F9 PPU: 11
FA87  C9 FB     CMP A:FB X:FF Y:D1 P:E5 SP:F9 PPU: 17
FA89  D0 5B     BNE A:FB X:FF Y:D1 P:67 SP:F9 PPU: 23
FA8B  60        RTS A:FB X:FF Y:D1 P:67 SP:F9 PPU: 29
F024  AD 47 06  LDA A:FB X:FF Y:D1 P:67 SP:FB PPU: 47
F027  C9 4A     CMP A:4A X:FF Y:D1 P:65 SP:FB PPU: 59
F029  F0 02     BEQ A:4A X:FF Y:D1 P:67 SP:FB PPU: 65
F02D  C8        INY A:4A X:FF Y:D1 P:67 SP:FB PPU: 74
F02E  A9 29     LDA A:4A X:FF Y:D2 P:E5 SP:FB PPU: 80
F030  8D 47 06  STA A:29 X:FF Y:D2 P:65 SP:FB PPU: 86
F033  20 8C FA  JSR A:29 X:FF Y:D2 P:65 SP:FB PPU: 98
FA8C  B8        CLV A:29 X:FF Y:D2 P:65 SP:F9 PPU:116
FA8D  18        CLC A:29 X:FF Y:D2 P:25 SP:F9 PPU:122
FA8E  A9 C3     LDA A:29 X:FF Y:D2 P:24 SP:F9 PPU:128
FA90  60        RTS A:C3 X:FF Y:D2 P:A4 SP:F9 PPU:134
F036  1F 48 05  SLO A:C3 X:FF Y:D2 P:A4 SP:FB PPU:152
F039  EA        NOP A:D3 X:FF Y:D2 P:A4 SP:FB PPU:173
F03A  EA        NOP A:D3 X:FF Y:D2 P:A4 SP:FB PPU:179
F03B  EA        NOP A:D3 X:FF Y:D2 P:A4 SP:FB PPU:185
F03C  EA        NOP A:D3 X:FF Y:D2 P:A4 SP:FB PPU:191
F03D  20 91 FA  JSR A:D3 X:FF Y:D2 P:A4 SP:FB PPU:197
FA91  70 53     BVS A:D3 X:FF Y:D2 P:A4 SP:F9 PPU:215
FA93  F0 51     BEQ A:D3 X:FF Y:D2 P:A4 SP:F9 PPU:221
FA95  10 4F     BPL A:D3 X:FF Y:D2 P:A4 SP:F9 PPU:227
FA97  B0 4D     BCS A:D3 X:FF Y:D2 P:A4 SP:F9 PPU:233
FA99  C9 D3     CMP A:D3 X:FF Y:D2 P:A4 SP:F9 PPU:239
FA9B  D0 49     BNE A:D3 X:FF Y:D2 P:27 SP:F9 PPU:245
FA9D  60        RTS A:D3 X:FF Y:D2 P:27 SP:F9 PPU:251
F040  AD 47 06  LDA A:D3 X:FF Y:D2 P:27 SP:FB PPU:269
F043  C9 52     CMP A:52 X:FF Y:D2 P:25 SP:FB PPU:281
F045  F0 02     BEQ A:52 X:FF Y:D2 P:27 SP:FB PPU:287
F049  C8        INY A:52 X:FF Y:D2 P:27 SP:FB PPU:296
F04A  A9 37     LDA A:52 X:FF Y:D3 P:A5 SP:FB PPU:302
F04C  8D 47 06  STA A:37 X:FF Y:D3 P:25 SP:FB PPU:308
F04F  20 9E FA  JSR A:37 X:FF Y:D3 P:25 SP:FB PPU:320
FA9E  24 01     BIT A:37 X:FF Y:D3 P:25 SP:F9 PPU:338
FAA0  38        SEC A:37 X:FF Y:D3 P:E5 SP:F9 PPU:  6
FAA1  A9 10     LDA A:37 X:FF Y:D3 P:E5 SP:F9 PPU: 12
FAA3  60        RTS A:10 X:FF Y:D3 P:65 SP:F9 PPU: 18
F052  1F 48 05  SLO A:10 X:FF Y:D3 P:65 SP:FB PPU: 36
F055  EA        NOP A:7E X:FF Y:D3 P:64 SP:FB PPU: 57
F056  EA        NOP A:7E X:FF Y:D3 P:64 SP:FB PPU: 63
F057  EA        NOP A:7E X:FF Y:D3 P:64 SP:FB PPU: 69
F058  EA        NOP A:7E X:FF Y:D3 P:64 SP:FB PPU: 75
F059  20 A4 FA  JSR A:7E X:FF Y:D3 P:64 SP:FB PPU: 81
FAA4  50 40     BVC A:7E X:FF Y:D3 P:64 SP:F9 PPU: 99
FAA6  F0 3E     BEQ A:7E X:FF Y:D3 P:64 SP:F9 PPU:105
FAA8  30 3C     BMI A:7E X:FF Y:D3 P:64 SP:F9 PPU:111
FAAA  B0 3A     BCS A:7E X:FF Y:D3 P:64 SP:F9 PPU:117
FAAC  C9 7E     CMP A:7E X:FF Y:D3 P:64 SP:F9 PPU:123
FAAE  D0 36     BNE A:7E X:FF Y:D3 P:67 SP:F9 PPU:129
FAB0  60        RTS A:7E X:FF Y:D3 P:67 SP:F9 PPU:135
F05C  AD 47 06  LDA A:7E X:FF Y:D3 P:67 SP:FB PPU:153
F05F  C9 6E     CMP A:6E X:FF Y:D3 P:65 SP:FB PPU:165
F061  F0 02     BEQ A:6E X:FF Y:D3 P:67 SP:FB PPU:171
F065  60        RTS A:6E X:FF Y:D3 P:67 SP:FB PPU:180
C644  20 66 F0  JSR A:6E X:FF Y:D3 P:67 SP:FD PPU:198
F066  A9 FF     LDA A:6E X:FF Y:D3 P:67 SP:FB PPU:216
F068  85 01     STA A:FF X:FF Y:D3 P:E5 SP:FB PPU:222
F06A  A0 D4     LDY A:FF X:FF Y:D3 P:E5 SP:FB PPU:231
F06C  A2 02     LDX A:FF X:FF Y:D4 P:E5 SP:FB PPU:237
F06E  A9 47     LDA A:FF X:02 Y:D4 P:65 SP:FB PPU:243
F070  85 47     STA A:47 X:02 Y:D4 P:65 SP:FB PPU:249
F072  A9 06     LDA A:47 X:02 Y:D4 P:65 SP:FB PPU:258
F074  85 48     STA A:06 X:02 Y:D4 P:65 SP:FB PPU:264
F076  A9 A5     LDA A:06 X:02 Y:D4 P:65 SP:FB PPU:273
F078  8D 47 06  STA A:A5 X:02 Y:D4 P:E5 SP:FB PPU:279
F07B  20 53 FB  JSR A:A5 X:02 Y:D4 P:E5 SP:FB PPU:291
FB53  24 01     BIT A:A5 X:02 Y:D4 P:E5 SP:F9 PPU:309
FB55  18        CLC A:A5 X:02 Y:D4 P:E5 SP:F9 PPU:318
FB56  A9 B3     LDA A:A5 X:02 Y:D4 P:E4 SP:F9 PPU:324
FB58  60        RTS A:B3 X:02 Y:D4 P:E4 SP:F9 PPU:330
F07E  23 45     RLA A:B3 X:02 Y:D4 P:E4 SP:FB PPU:  7
F080  EA        NOP A:02 X:02 Y:D4 P:65 SP:FB PPU: 31
F081  EA        NOP A:02 X:02 Y:D4 P:65 SP:FB PPU: 37
F082  EA        NOP A:02 X:02 Y:D4 P:65 SP:FB PPU: 43
F083  EA        NOP A:02 X:02 Y:D4 P:65 SP:FB PPU: 49
F084  20 59 FB  JSR A:02 X:02 Y:D4 P:65 SP:FB PPU: 55
FB59  50 1A     BVC A:02 X:02 Y:D4 P:65 SP:F9 PPU: 73
FB5B  90 18     BCC A:02 X:02 Y:D4 P:65 SP:F9 PPU: 79
FB5D  30 16     BMI A:02 X:02 Y:D4 P:65 SP:F9 PPU: 85
FB5F  C9 02     CMP A:02 X:02 Y:D4 P:65 SP:F9 PPU: 91
FB61  D0 12     BNE A:02 X:02 Y:D4 P:67 SP:F9 PPU: 97
FB63  60        RTS A:02 X:02 Y:D4 P:67 SP:F9 PPU:103
F087  AD 47 06  LDA A:02 X:02 Y:D4 P:67 SP:FB PPU:121
F08A  C9 4A     CMP A:4A X:02 Y:D4 P:65 SP:FB PPU:133
F08C  F0 02     BEQ A:4A X:02 Y:D4 P:67 SP:FB PPU:139
F090  C8        INY A:4A X:02 Y:D4 P:67 SP:FB PPU:148
F091  A9 29     LDA A:4A X:02 Y:D5 P:E5 SP:FB PPU:154
F093  8D 47 06  STA A:29 X:02 Y:D5 P:65 SP:FB PPU:160
F096  20 64 FB  JSR A:29 X:02 Y:D5 P:65 SP:FB PPU:172
FB64  B8        CLV A:29 X:02 Y:D5 P:65 SP:F9 PPU:190
FB65  18        CLC A:29 X:02 Y:D5 P:25 SP:F9 PPU:196
FB66  A9 42     LDA A:29 X:02 Y:D5 P:24 SP:F9 PPU:202
FB68  60        RTS A:42 X:02 Y:D5 P:24 SP:F9 PPU:208
F099  23 45     RLA A:42 X:02 Y:D5 P:24 SP:FB PPU:226
F09B  EA        NOP A:42 X:02 Y:D5 P:24 SP:FB PPU:250
F09C  EA        NOP A:42 X:02 Y:D5 P:24 SP:FB PPU:256
F09D  EA        NOP A:42 X:02 Y:D5 P:24 SP:FB PPU:262
F09E  EA        NOP A:42 X:02 Y:D5 P:24 SP:FB PPU:268
F09F  20 69 FB  JSR A:42 X:02 Y:D5 P:24 SP:FB PPU:274
FB69  70 0A     BVS A:42 X:02 Y:D5 P:24 SP:F9 PPU:292
FB6B  F0 08     BEQ A:42 X:02 Y:D5 P:24 SP:F9 PPU:298
FB6D  30 06     BMI A:42 X:02 Y:D5 P:24 SP:F9 PPU:304
FB6F  B0 04     BCS A:42 X:02 Y:D5 P:24 SP:F9 PPU:310
FB71  C9 42     CMP A:42 X:02 Y:D5 P:24 SP:F9 PPU:316
FB73  F0 02     BEQ A:42 X:02 Y:D5 P:27 SP:F9 PPU:322
FB77  60        RTS A:42 X:02 Y:D5 P:27 SP:F9 PPU:331
F0A2  AD 47 06  LDA A:42 X:02 Y:D5 P:27 SP:FB PPU:  8
F0A5  C9 52     CMP A:52 X:02 Y:D5 P:25 SP:FB PPU: 20
F0A7  F0 02     BEQ A:52 X:02 Y:D5 P:27 SP:FB PPU: 26
F0AB  C8        INY A:52 X:02 Y:D5 P:27 SP:FB PPU: 35
F0AC  A9 37     LDA A:52 X:02 Y:D6 P:A5 SP:FB PPU: 41
F0AE  8D 47 06  STA A:37 X:02 Y:D6 P:25 SP:FB PPU: 47
F0B1  20 68 FA  JSR A:37 X:02 Y:D6 P:25 SP:FB PPU: 59
FA68  24 01     BIT A:37 X:02 Y:D6 P:25 SP:F9 PPU: 77
FA6A  38        SEC A:37 X:02 Y:D6 P:E5 SP:F9 PPU: 86
FA6B  A9 75     LDA A:37 X:02 Y:D6 P:E5 SP:F9 PPU: 92
FA6D  60        RTS A:75 X:02 Y:D6 P:65 SP:F9 PPU: 98
F0B4  23 45     RLA A:75 X:02 Y:D6 P:65 SP:FB PPU:116
F0B6  EA        NOP A:65 X:02 Y:D6 P:64 SP:FB PPU:140
F0B7  EA        NOP A:65 X:02 Y:D6 P:64 SP:FB PPU:146
F0B8  EA        NOP A:65 X:02 Y:D6 P:64 SP:FB PPU:152
F0B9  EA        NOP A:65 X:02 Y:D6 P:64 SP:FB PPU:158
F0BA  20 6E FA  JSR A:65 X:02 Y:D6 P:64 SP:FB PPU:164
FA6E  50 76     BVC A:65 X:02 Y:D6 P:64 SP:F9 PPU:182
FA70  F0 74     BEQ A:65 X:02 Y:D6 P:64 SP:F9 PPU:188
FA72  30 72     BMI A:65 X:02 Y:D6 P:64 SP:F9 PPU:194
FA74  B0 70     BCS A:65 X:02 Y:D6 P:64 SP:F9 PPU:200
FA76  C9 65     CMP A:65 X:02 Y:D6 P:64 SP:F9 PPU:206
FA78  D0 6C     BNE A:65 X:02 Y:D6 P:67 SP:F9 PPU:212
FA7A  60        RTS A:65 X:02 Y:D6 P:67 SP:F9 PPU:218
F0BD  AD 47 06  LDA A:65 X:02 Y:D6 P:67 SP:FB PPU:236
F0C0  C9 6F     CMP A:6F X:02 Y:D6 P:65 SP:FB PPU:248
F0C2  F0 02     BEQ A:6F X:02 Y:D6 P:67 SP:FB PPU:254
F0C6  C8        INY A:6F X:02 Y:D6 P:67 SP:FB PPU:263
F0C7  A9 A5     LDA A:6F X:02 Y:D7 P:E5 SP:FB PPU:269
F0C9  85 47     STA A:A5 X:02 Y:D7 P:E5 SP:FB PPU:275
F0CB  20 53 FB  JSR A:A5 X:02 Y:D7 P:E5 SP:FB PPU:284
FB53  24 01     BIT A:A5 X:02 Y:D7 P:E5 SP:F9 PPU:302
FB55  18        CLC A:A5 X:02 Y:D7 P:E5 SP:F9 PPU:311
FB56  A9 B3     LDA A:A5 X:02 Y:D7 P:E4 SP:F9 PPU:317
FB58  60        RTS A:B3 X:02 Y:D7 P:E4 SP:F9 PPU:323
F0CE  27 47     RLA A:B3 X:02 Y:D7 P:E4 SP:FB PPU:  0
F0D0  EA        NOP A:02 X:02 Y:D7 P:65 SP:FB PPU: 15
F0D1  EA        NOP A:02 X:02 Y:D7 P:65 SP:FB PPU: 21
F0D2  EA        NOP A:02 X:02 Y:D7 P:65 SP:FB PPU: 27
F0D3  EA        NOP A:02 X:02 Y:D7 P:65 SP:FB PPU: 33
F0D4  20 59 FB  JSR A:02 X:02 Y:D7 P:65 SP:FB PPU: 39
FB59  50 1A     BVC A:02 X:02 Y:D7 P:65 SP:F9 PPU: 57
FB5B  90 18     BCC A:02 X:02 Y:D7 P:65 SP:F9 PPU: 63
FB5D  30 16     BMI A:02 X:02 Y:D7 P:65 SP:F9 PPU: 69
FB5F  C9 02     CMP A:02 X:02 Y:D7 P:65 SP:F9 PPU: 75
FB61  D0 12     BNE A:02 X:02 Y:D7 P:67 SP:F9 PPU: 81
FB63  60        RTS A:02 X:02 Y:D7 P:67 SP:F9 PPU: 87
F0D7  A5 47     LDA A:02 X:02 Y:D7 P:67 SP:FB PPU:105
F0D9  C9 4A     CMP A:4A X:02 Y:D7 P:65 SP:FB PPU:114
F0DB  F0 02     BEQ A:4A X:02 Y:D7 P:67 SP:FB PPU:120
F0DF  C8        INY A:4A X:02 Y:D7 P:67 SP:FB PPU:129
F0E0  A9 29     LDA A:4A X:02 Y:D8 P:E5 SP:FB PPU:135
F0E2  85 47     STA A:29 X:02 Y:D8 P:65 SP:FB PPU:141
F0E4  20 64 FB  JSR A:29 X:02 Y:D8 P:65 SP:FB PPU:150
FB64  B8        CLV A:29 X:02 Y:D8 P:65 SP:F9 PPU:168
FB65  18        CLC A:29 X:02 Y:D8 P:25 SP:F9 PPU:174
FB66  A9 42     LDA A:29 X:02 Y:D8 P:24 SP:F9 PPU:180
FB68  60        RTS A:42 X:02 Y:D8 P:24 SP:F9 PPU:186
F0E7  27 47     RLA A:42 X:02 Y:D8 P:24 SP:FB PPU:204
F0E9  EA        NOP A:42 X:02 Y:D8 P:24 SP:FB PPU:219
F0EA  EA        NOP A:42 X:02 Y:D8 P:24 SP:FB PPU:225
F0EB  EA        NOP A:42 X:02 Y:D8 P:24 SP:FB PPU:231
F0EC  EA        NOP A:42 X:02 Y:D8 P:24 SP:FB PPU:237
F0ED  20 69 FB  JSR A:42 X:02 Y:D8 P:24 SP:FB PPU:243
FB69  70 0A     BVS A:42 X:02 Y:D8 P:24 SP:F9 PPU:261
FB6B  F0 08     BEQ A:42 X:02 Y:D8 P:24 SP:F9 PPU:267
FB6D  30 06     BMI A:42 X:02 Y:D8 P:24 SP:F9 PPU:273
FB6F  B0 04     BCS A:42 X:02 Y:D8 P:24 SP:F9 PPU:279
FB71  C9 42     CMP A:42 X:02 Y:D8 P:24 SP:F9 PPU:285
FB73  F0 02     BEQ A:42 X:02 Y:D8 P:27 SP:F9 PPU:291
FB77  60        RTS A:42 X:02 Y:D8 P:27 SP:F9 PPU:300
F0F0  A5 47     LDA A:42 X:02 Y:D8 P:27 SP:FB PPU:318
F0F2  C9 52     CMP A:52 X:02 Y:D8 P:25 SP:FB PPU:327
F0F4  F0 02     BEQ A:52 X:02 Y:D8 P:27 SP:FB PPU:333
F0F8  C8        INY A:52 X:02 Y:D8 P:27 SP:FB PPU:  1
F0F9  A9 37     LDA A:52 X:02 Y:D9 P:A5 SP:FB PPU:  7
F0FB  85 47     STA A:37 X:02 Y:D9 P:25 SP:FB PPU: 13
F0FD  20 68 FA  JSR A:37 X:02 Y:D9 P:25 SP:FB PPU: 22
FA68  24 01     BIT A:37 X:02 Y:D9 P:25 SP:F9 PPU: 40
FA6A  38        SEC A:37 X:02 Y:D9 P:E5 SP:F9 PPU: 49
FA6B  A9 75     LDA A:37 X:02 Y:D9 P:E5 SP:F9 PPU: 55
FA6D  60        RTS A:75 X:02 Y:D9 P:65 SP:F9 PPU: 61
F100  27 47     RLA A:75 X:02 Y:D9 P:65 SP:FB PPU: 79
F102  EA        NOP A:65 X:02 Y:D9 P:64 SP:FB PPU: 94
F103  EA        NOP A:65 X:02 Y:D9 P:64 SP:FB PPU:100
F104  EA        NOP A:65 X:02 Y:D9 P:64 SP:FB PPU:106
F105  EA        NOP A:65 X:02 Y:D9 P:64 SP:FB PPU:112
F106  20 6E FA  JSR A:65 X:02 Y:D9 P:64 SP:FB PPU:118
FA6E  50 76     BVC A:65 X:02 Y:D9 P:64 SP:F9 PPU:136
FA70  F0 74     BEQ A:65 X:02 Y:D9 P:64 SP:F9 PPU:142
FA72  30 72     BMI A:65 X:02 Y:D9 P:64 SP:F9 PPU:148
FA74  B0 70     BCS A:65 X:02 Y:D9 P:64 SP:F9 PPU:154
FA76  C9 65     CMP A:65 X:02 Y:D9 P:64 SP:F9 PPU:160
FA78  D0 6C     BNE A:65 X:02 Y:D9 P:67 SP:F9 PPU:166
FA7A  60        RTS A:65 X:02 Y:D9 P:67 SP:F9 PPU:172
F109  A5 47     LDA A:65 X:02 Y:D9 P:67 SP:FB PPU:190
F10B  C9 6F     CMP A:6F X:02 Y:D9 P:65 SP:FB PPU:199
F10D  F0 02     BEQ A:6F X:02 Y:D9 P:67 SP:FB PPU:205
F111  C8        INY A:6F X:02 Y:D9 P:67 SP:FB PPU:214
F112  A9 A5     LDA A:6F X:02 Y:DA P:E5 SP:FB PPU:220
F114  8D 47 06  STA A:A5 X:02 Y:DA P:E5 SP:FB PPU:226
F117  20 53 FB  JSR A:A5 X:02 Y:DA P:E5 SP:FB PPU:238
FB53  24 01     BIT A:A5 X:02 Y:DA P:E5 SP:F9 PPU:256
FB55  18        CLC A:A5 X:02 Y:DA P:E5 SP:F9 PPU:265
FB56  A9 B3     LDA A:A5 X:02 Y:DA P:E4 SP:F9 PPU:271
FB58  60        RTS A:B3 X:02 Y:DA P:E4 SP:F9 PPU:277
F11A  2F 47 06  RLA A:B3 X:02 Y:DA P:E4 SP:FB PPU:295
F11D  EA        NOP A:02 X:02 Y:DA P:65 SP:FB PPU:313
F11E  EA        NOP A:02 X:02 Y:DA P:65 SP:FB PPU:319
F11F  EA        NOP A:02 X:02 Y:DA P:65 SP:FB PPU:325
F120  EA        NOP A:02 X:02 Y:DA P:65 SP:FB PPU:331
F121  20 59 FB  JSR A:02 X:02 Y:DA P:65 SP:FB PPU:337
FB59  50 1A     BVC A:02 X:02 Y:DA P:65 SP:F9 PPU: 14
FB5B  90 18     BCC A:02 X:02 Y:DA P:65 SP:F9 PPU: 20
FB5D  30 16     BMI A:02 X:02 Y:DA P:65 SP:F9 PPU: 26
FB5F  C9 02     CMP A:02 X:02 Y:DA P:65 SP:F9 PPU: 32
FB61  D0 12     BNE A:02 X:02 Y:DA P:67 SP:F9 PPU: 38
FB63  60        RTS A:02 X:02 Y:DA P:67 SP:F9 PPU: 44
F124  AD 47 06  LDA A:02 X:02 Y:DA P:67 SP:FB PPU: 62
F127  C9 4A     CMP A:4A X:02 Y:DA P:65 SP:FB PPU: 74
F129  F0 02     BEQ A:4A X:02 Y:DA P:67 SP:FB PPU: 80
F12D  C8        INY A:4A X:02 Y:DA P:67 SP:FB PPU: 89
F12E  A9 29     LDA A:4A X:02 Y:DB P:E5 SP:FB PPU: 95
F130  8D 47 06  STA A:29 X:02 Y:DB P:65 SP:FB PPU:101
F133  20 64 FB  JSR A:29 X:02 Y:DB P:65 SP:FB PPU:113
FB64  B8        CLV A:29 X:02 Y:DB P:65 SP:F9 PPU:131
FB65  18        CLC A:29 X:02 Y:DB P:25 SP:F9 PPU:137
FB66  A9 42     LDA A:29 X:02 Y:DB P:24 SP:F9 PPU:143
FB68  60        RTS A:42 X:02 Y:DB P:24 SP:F9 PPU:149
F136  2F 47 06  RLA A:42 X:02 Y:DB P:24 SP:FB PPU:167
F139  EA        NOP A:42 X:02 Y:DB P:24 SP:FB PPU:185
F13A  EA        NOP A:42 X:02 Y:DB P:24 SP:FB PPU:191
F13B  EA        NOP A:42 X:02 Y:DB P:24 SP:FB PPU:197
F13C  EA        NOP A:42 X:02 Y:DB P:24 SP:FB PPU:203
F13D  20 69 FB  JSR A:42 X:02 Y:DB P:24 SP:FB PPU:209
FB69  70 0A     BVS A:42 X:02 Y:DB P:24 SP:F9 PPU:227
FB6B  F0 08     BEQ A:42 X:02 Y:DB P:24 SP:F9 PPU:233
FB6D  30 06     BMI A:42 X:02 Y:DB P:24 SP:F9 PPU:239
FB6F  B0 04     BCS A:42 X:02 Y:DB P:24 SP:F9 PPU:245
FB71  C9 42     CMP A:42 X:02 Y:DB P:24 SP:F9 PPU:251
FB73  F0 02     BEQ A:42 X:02 Y:DB P:27 SP:F9 PPU:257
FB77  60        RTS A:42 X:02 Y:DB P:27 SP:F9 PPU:266
F140  AD 47 06  LDA A:42 X:02 Y:DB P:27 SP:FB PPU:284
F143  C9 52     CMP A:52 X:02 Y:DB P:25 SP:FB PPU:296
F145  F0 02     BEQ A:52 X:02 Y:DB P:27 SP:FB PPU:302
F149  C8        INY A:52 X:02 Y:DB P:27 SP:FB PPU:311
F14A  A9 37     LDA A:52 X:02 Y:DC P:A5 SP:FB PPU:317
F14C  8D 47 06  STA A:37 X:02 Y:DC P:25 SP:FB PPU:323
F14F  20 68 FA  JSR A:37 X:02 Y:DC P:25 SP:FB PPU:335
FA68  24 01     BIT A:37 X:02 Y:DC P:25 SP:F9 PPU: 12
FA6A  38        SEC A:37 X:02 Y:DC P:E5 SP:F9 PPU: 21
FA6B  A9 75     LDA A:37 X:02 Y:DC P:E5 SP:F9 PPU: 27
FA6D  60        RTS A:75 X:02 Y:DC P:65 SP:F9 PPU: 33
F152  2F 47 06  RLA A:75 X:02 Y:DC P:65 SP:FB PPU: 51
F155  EA        NOP A:65 X:02 Y:DC P:64 SP:FB PPU: 69
F156  EA        NOP A:65 X:02 Y:DC P:64 SP:FB PPU: 75
F157  EA        NOP A:65 X:02 Y:DC P:64 SP:FB PPU: 81
F158  EA        NOP A:65 X:02 Y:DC P:64 SP:FB PPU: 87
F159  20 6E FA  JSR A:65 X:02 Y:DC P:64 SP:FB PPU: 93
FA6E  50 76     BVC A:65 X:02 Y:DC P:64 SP:F9 PPU:111
FA70  F0 74     BEQ A:65 X:02 Y:DC P:64 SP:F9 PPU:117
FA72  30 72     BMI A:65 X:02 Y:DC P:64 SP:F9 PPU:123
FA74  B0 70     BCS A:65 X:02 Y:DC P:64 SP:F9 PPU:129
FA76  C9 65     CMP A:65 X:02 Y:DC P:64 SP:F9 PPU:135
FA78  D0 6C     BNE A:65 X:02 Y:DC P:67 SP:F9 PPU:141
FA7A  60        RTS A:65 X:02 Y:DC P:67 SP:F9 PPU:147
F15C  AD 47 06  LDA A:65 X:02 Y:DC P:67 SP:FB PPU:165
F15F  C9 6F     CMP A:6F X:02 Y:DC P:65 SP:FB PPU:177
F161  F0 02     BEQ A:6F X:02 Y:DC P:67 SP:FB PPU:183
F165  A9 A5     LDA A:6F X:02 Y:DC P:67 SP:FB PPU:192
F167  8D 47 06  STA A:A5 X:02 Y:DC P:E5 SP:FB PPU:198
F16A  A9 48     LDA A:A5 X:02 Y:DC P:E5 SP:FB PPU:210
F16C  85 45     STA A:48 X:02 Y:DC P:65 SP:FB PPU:216
F16E  A9 05     LDA A:48 X:02 Y:DC P:65 SP:FB PPU:225
F170  85 46     STA A:05 X:02 Y:DC P:65 SP:FB PPU:231
F172  A0 FF     LDY A:05 X:02 Y:DC P:65 SP:FB PPU:240
F174  20 53 FB  JSR A:05 X:02 Y:FF P:E5 SP:FB PPU:246
FB53  24 01     BIT A:05 X:02 Y:FF P:E5 SP:F9 PPU:264
FB55  18        CLC A:05 X:02 Y:FF P:E5 SP:F9 PPU:273
FB56  A9 B3     LDA A:05 X:02 Y:FF P:E4 SP:F9 PPU:279
FB58  60        RTS A:B3 X:02 Y:FF P:E4 SP:F9 PPU:285
F177  33 45     RLA A:B3 X:02 Y:FF P:E4 SP:FB PPU:303
F179  EA        NOP A:02 X:02 Y:FF P:65 SP:FB PPU:327
F17A  EA        NOP A:02 X:02 Y:FF P:65 SP:FB PPU:333
F17B  08        PHP A:02 X:02 Y:FF P:65 SP:FB PPU:339
F17C  48        PHA A:02 X:02 Y:FF P:65 SP:FA PPU:  7
F17D  A0 DD     LDY A:02 X:02 Y:FF P:65 SP:F9 PPU: 16
F17F  68        PLA A:02 X:02 Y:DD P:E5 SP:F9 PPU: 22
F180  28        PLP A:02 X:02 Y:DD P:65 SP:FA PPU: 34
F181  20 59 FB  JSR A:02 X:02 Y:DD P:65 SP:FB PPU: 46
FB59  50 1A     BVC A:02 X:02 Y:DD P:65 SP:F9 PPU: 64
FB5B  90 18     BCC A:02 X:02 Y:DD P:65 SP:F9 PPU: 70
FB5D  30 16     BMI A:02 X:02 Y:DD P:65 SP:F9 PPU: 76
FB5F  C9 02     CMP A:02 X:02 Y:DD P:65 SP:F9 PPU: 82
FB61  D0 12     BNE A:02 X:02 Y:DD P:67 SP:F9 PPU: 88
FB63  60        RTS A:02 X:02 Y:DD P:67 SP:F9 PPU: 94
F184  AD 47 06  LDA A:02 X:02 Y:DD P:67 SP:FB PPU:112
F187  C9 4A     CMP A:4A X:02 Y:DD P:65 SP:FB PPU:124
F189  F0 02     BEQ A:4A X:02 Y:DD P:67 SP:FB PPU:130
F18D  A0 FF     LDY A:4A X:02 Y:DD P:67 SP:FB PPU:139
F18F  A9 29     LDA A:4A X:02 Y:FF P:E5 SP:FB PPU:145
F191  8D 47 06  STA A:29 X:02 Y:FF P:65 SP:FB PPU:151
F194  20 64 FB  JSR A:29 X:02 Y:FF P:65 SP:FB PPU:163
FB64  B8        CLV A:29 X:02 Y:FF P:65 SP:F9 PPU:181
FB65  18        CLC A:29 X:02 Y:FF P:25 SP:F9 PPU:187
FB66  A9 42     LDA A:29 X:02 Y:FF P:24 SP:F9 PPU:193
FB68  60        RTS A:42 X:02 Y:FF P:24 SP:F9 PPU:199
F197  33 45     RLA A:42 X:02 Y:FF P:24 SP:FB PPU:217
F199  EA        NOP A:42 X:02 Y:FF P:24 SP:FB PPU:241
F19A  EA        NOP A:42 X:02 Y:FF P:24 SP:FB PPU:247
F19B  08        PHP A:42 X:02 Y:FF P:24 SP:FB PPU:253
F19C  48        PHA A:42 X:02 Y:FF P:24 SP:FA PPU:262
F19D  A0 DE     LDY A:42 X:02 Y:FF P:24 SP:F9 PPU:271
F19F  68        PLA A:42 X:02 Y:DE P:A4 SP:F9 PPU:277
F1A0  28        PLP A:42 X:02 Y:DE P:24 SP:FA PPU:289
F1A1  20 69 FB  JSR A:42 X:02 Y:DE P:24 SP:FB PPU:301
FB69  70 0A     BVS A:42 X:02 Y:DE P:24 SP:F9 PPU:319
FB6B  F0 08     BEQ A:42 X:02 Y:DE P:24 SP:F9 PPU:325
FB6D  30 06     BMI A:42 X:02 Y:DE P:24 SP:F9 PPU:331
FB6F  B0 04     BCS A:42 X:02 Y:DE P:24 SP:F9 PPU:337
FB71  C9 42     CMP A:42 X:02 Y:DE P:24 SP:F9 PPU:  2
FB73  F0 02     BEQ A:42 X:02 Y:DE P:27 SP:F9 PPU:  8
FB77  60        RTS A:42 X:02 Y:DE P:27 SP:F9 PPU: 17
F1A4  AD 47 06  LDA A:42 X:02 Y:DE P:27 SP:FB PPU: 35
F1A7  C9 52     CMP A:52 X:02 Y:DE P:25 SP:FB PPU: 47
F1A9  F0 02     BEQ A:52 X:02 Y:DE P:27 SP:FB PPU: 53
F1AD  A0 FF     LDY A:52 X:02 Y:DE P:27 SP:FB PPU: 62
F1AF  A9 37     LDA A:52 X:02 Y:FF P:A5 SP:FB PPU: 68
F1B1  8D 47 06  STA A:37 X:02 Y:FF P:25 SP:FB PPU: 74
F1B4  20 68 FA  JSR A:37 X:02 Y:FF P:25 SP:FB PPU: 86
FA68  24 01     BIT A:37 X:02 Y:FF P:25 SP:F9 PPU:104
FA6A  38        SEC A:37 X:02 Y:FF P:E5 SP:F9 PPU:113
FA6B  A9 75     LDA A:37 X:02 Y:FF P:E5 SP:F9 PPU:119
FA6D  60        RTS A:75 X:02 Y:FF P:65 SP:F9 PPU:125
F1B7  33 45     RLA A:75 X:02 Y:FF P:65 SP:FB PPU:143
F1B9  EA        NOP A:65 X:02 Y:FF P:64 SP:FB PPU:167
F1BA  EA        NOP A:65 X:02 Y:FF P:64 SP:FB PPU:173
F1BB  08        PHP A:65 X:02 Y:FF P:64 SP:FB PPU:179
F1BC  48        PHA A:65 X:02 Y:FF P:64 SP:FA PPU:188
F1BD  A0 DF     LDY A:65 X:02 Y:FF P:64 SP:F9 PPU:197
F1BF  68        PLA A:65 X:02 Y:DF P:E4 SP:F9 PPU:203
F1C0  28        PLP A:65 X:02 Y:DF P:64 SP:FA PPU:215
F1C1  20 6E FA  JSR A:65 X:02 Y:DF P:64 SP:FB PPU:227
FA6E  50 76     BVC A:65 X:02 Y:DF P:64 SP:F9 PPU:245
FA70  F0 74     BEQ A:65 X:02 Y:DF P:64 SP:F9 PPU:251
FA72  30 72     BMI A:65 X:02 Y:DF P:64 SP:F9 PPU:257
FA74  B0 70     BCS A:65 X:02 Y:DF P:64 SP:F9 PPU:263
FA76  C9 65     CMP A:65 X:02 Y:DF P:64 SP:F9 PPU:269
FA78  D0 6C     BNE A:65 X:02 Y:DF P:67 SP:F9 PPU:275
FA7A  60        RTS A:65 X:02 Y:DF P:67 SP:F9 PPU:281
F1C4  AD 47 06  LDA A:65 X:02 Y:DF P:67 SP:FB PPU:299
F1C7  C9 6F     CMP A:6F X:02 Y:DF P:65 SP:FB PPU:311
F1C9  F0 02     BEQ A:6F X:02 Y:DF P:67 SP:FB PPU:317
F1CD  A0 E0     LDY A:6F X:02 Y:DF P:67 SP:FB PPU:326
F1CF  A2 FF     LDX A:6F X:02 Y:E0 P:E5 SP:FB PPU:332
F1D1  A9 A5     LDA A:6F X:FF Y:E0 P:E5 SP:FB PPU:338
F1D3  85 47     STA A:A5 X:FF Y:E0 P:E5 SP:FB PPU:  3
F1D5  20 53 FB  JSR A:A5 X:FF Y:E0 P:E5 SP:FB PPU: 12
FB53  24 01     BIT A:A5 X:FF Y:E0 P:E5 SP:F9 PPU: 30
FB55  18        CLC A:A5 X:FF Y:E0 P:E5 SP:F9 PPU: 39
FB56  A9 B3     LDA A:A5 X:FF Y:E0 P:E4 SP:F9 PPU: 45
FB58  60        RTS A:B3 X:FF Y:E0 P:E4 SP:F9 PPU: 51
F1D8  37 48     RLA A:B3 X:FF Y:E0 P:E4 SP:FB PPU: 69
F1DA  EA        NOP A:02 X:FF Y:E0 P:65 SP:FB PPU: 87
F1DB  EA        NOP A:02 X:FF Y:E0 P:65 SP:FB PPU: 93
F1DC  EA        NOP A:02 X:FF Y:E0 P:65 SP:FB PPU: 99
F1DD  EA        NOP A:02 X:FF Y:E0 P:65 SP:FB PPU:105
F1DE  20 59 FB  JSR A:02 X:FF Y:E0 P:65 SP:FB PPU:111
FB59  50 1A     BVC A:02 X:FF Y:E0 P:65 SP:F9 PPU:129
FB5B  90 18     BCC A:02 X:FF Y:E0 P:65 SP:F9 PPU:135
FB5D  30 16     BMI A:02 X:FF Y:E0 P:65 SP:F9 PPU:141
FB5F  C9 02     CMP A:02 X:FF Y:E0 P:65 SP:F9 PPU:147
FB61  D0 12     BNE A:02 X:FF Y:E0 P:67 SP:F9 PPU:153
FB63  60        RTS A:02 X:FF Y:E0 P:67 SP:F9 PPU:159
F1E1  A5 47     LDA A:02 X:FF Y:E0 P:67 SP:FB PPU:177
F1E3  C9 4A     CMP A:4A X:FF Y:E0 P:65 SP:FB PPU:186
F1E5  F0 02     BEQ A:4A X:FF Y:E0 P:67 SP:FB PPU:192
F1E9  C8        INY A:4A X:FF Y:E0 P:67 SP:FB PPU:201
F1EA  A9 29     LDA A:4A X:FF Y:E1 P:E5 SP:FB PPU:207
F1EC  85 47     STA A:29 X:FF Y:E1 P:65 SP:FB PPU:213
F1EE  20 64 FB  JSR A:29 X:FF Y:E1 P:65 SP:FB PPU:222
FB64  B8        CLV A:29 X:FF Y:E1 P:65 SP:F9 PPU:240
FB65  18        CLC A:29 X:FF Y:E1 P:25 SP:F9 PPU:246
FB66  A9 42     LDA A:29 X:FF Y:E1 P:24 SP:F9 PPU:252
FB68  60        RTS A:42 X:FF Y:E1 P:24 SP:F9 PPU:258
F1F1  37 48     RLA A:42 X:FF Y:E1 P:24 SP:FB PPU:276
F1F3  EA        NOP A:42 X:FF Y:E1 P:24 SP:FB PPU:294
F1F4  EA        NOP A:42 X:FF Y:E1 P:24 SP:FB PPU:300
F1F5  EA        NOP A:42 X:FF Y:E1 P:24 SP:FB PPU:306
F1F6  EA        NOP A:42 X:FF Y:E1 P:24 SP:FB PPU:312
F1F7  20 69 FB  JSR A:42 X:FF Y:E1 P:24 SP:FB PPU:318
FB69  70 0A     BVS A:42 X:FF Y:E1 P:24 SP:F9 PPU:336
FB6B  F0 08     BEQ A:42 X:FF Y:E1 P:24 SP:F9 PPU:  1
FB6D  30 06     BMI A:42 X:FF Y:E1 P:24 SP:F9 PPU:  7
FB6F  B0 04     BCS A:42 X:FF Y:E1 P:24 SP:F9 PPU: 13
FB71  C9 42     CMP A:42 X:FF Y:E1 P:24 SP:F9 PPU: 19
FB73  F0 02     BEQ A:42 X:FF Y:E1 P:27 SP:F9 PPU: 25
FB77  60        RTS A:42 X:FF Y:E1 P:27 SP:F9 PPU: 34
F1FA  A5 47     LDA A:42 X:FF Y:E1 P:27 SP:FB PPU: 52
F1FC  C9 52     CMP A:52 X:FF Y:E1 P:25 SP:FB PPU: 61
F1FE  F0 02     BEQ A:52 X:FF Y:E1 P:27 SP:FB PPU: 67
F202  C8        INY A:52 X:FF Y:E1 P:27 SP:FB PPU: 76
F203  A9 37     LDA A:52 X:FF Y:E2 P:A5 SP:FB PPU: 82
F205  85 47     STA A:37 X:FF Y:E2 P:25 SP:FB PPU: 88
F207  20 68 FA  JSR A:37 X:FF Y:E2 P:25 SP:FB PPU: 97
FA68  24 01     BIT A:37 X:FF Y:E2 P:25 SP:F9 PPU:115
FA6A  38        SEC A:37 X:FF Y:E2 P:E5 SP:F9 PPU:124
FA6B  A9 75     LDA A:37 X:FF Y:E2 P:E5 SP:F9 PPU:130
FA6D  60        RTS A:75 X:FF Y:E2 P:65 SP:F9 PPU:136
F20A  37 48     RLA A:75 X:FF Y:E2 P:65 SP:FB PPU:154
F20C  EA        NOP A:65 X:FF Y:E2 P:64 SP:FB PPU:172
F20D  EA        NOP A:65 X:FF Y:E2 P:64 SP:FB PPU:178
F20E  EA        NOP A:65 X:FF Y:E2 P:64 SP:FB PPU:184
F20F  EA        NOP A:65 X:FF Y:E2 P:64 SP:FB PPU:190
F210  20 6E FA  JSR A:65 X:FF Y:E2 P:64 SP:FB PPU:196
FA6E  50 76     BVC A:65 X:FF Y:E2 P:64 SP:F9 PPU:214
FA70  F0 74     BEQ A:65 X:FF Y:E2 P:64 SP:F9 PPU:220
FA72  30 72     BMI A:65 X:FF Y:E2 P:64 SP:F9 PPU:226
FA74  B0 70     BCS A:65 X:FF Y:E2 P:64 SP:F9 PPU:232
FA76  C9 65     CMP A:65 X:FF Y:E2 P:64 SP:F9 PPU:238
FA78  D0 6C     BNE A:65 X:FF Y:E2 P:67 SP:F9 PPU:244
FA7A  60        RTS A:65 X:FF Y:E2 P:67 SP:F9 PPU:250
F213  A5 47     LDA A:65 X:FF Y:E2 P:67 SP:FB PPU:268
F215  C9 6F     CMP A:6F X:FF Y:E2 P:65 SP:FB PPU:277
F217  F0 02     BEQ A:6F X:FF Y:E2 P:67 SP:FB PPU:283
F21B  A9 A5     LDA A:6F X:FF Y:E2 P:67 SP:FB PPU:292
F21D  8D 47 06  STA A:A5 X:FF Y:E2 P:E5 SP:FB PPU:298
F220  A0 FF     LDY A:A5 X:FF Y:E2 P:E5 SP:FB PPU:310
F222  20 53 FB  JSR A:A5 X:FF Y:FF P:E5 SP:FB PPU:316
FB53  24 01     BIT A:A5 X:FF Y:FF P:E5 SP:F9 PPU:334
FB55  18        CLC A:A5 X:FF Y:FF P:E5 SP:F9 PPU:  2
FB56  A9 B3     LDA A:A5 X:FF Y:FF P:E4 SP:F9 PPU:  8
FB58  60        RTS A:B3 X:FF Y:FF P:E4 SP:F9 PPU: 14
F225  3B 48 05  RLA A:B3 X:FF Y:FF P:E4 SP:FB PPU: 32
F228  EA        NOP A:02 X:FF Y:FF P:65 SP:FB PPU: 53
F229  EA        NOP A:02 X:FF Y:FF P:65 SP:FB PPU: 59
F22A  08        PHP A:02 X:FF Y:FF P:65 SP:FB PPU: 65
F22B  48        PHA A:02 X:FF Y:FF P:65 SP:FA PPU: 74
F22C  A0 E3     LDY A:02 X:FF Y:FF P:65 SP:F9 PPU: 83
F22E  68        PLA A:02 X:FF Y:E3 P:E5 SP:F9 PPU: 89
F22F  28        PLP A:02 X:FF Y:E3 P:65 SP:FA PPU:101
F230  20 59 FB  JSR A:02 X:FF Y:E3 P:65 SP:FB PPU:113
FB59  50 1A     BVC A:02 X:FF Y:E3 P:65 SP:F9 PPU:131
FB5B  90 18     BCC A:02 X:FF Y:E3 P:65 SP:F9 PPU:137
FB5D  30 16     BMI A:02 X:FF Y:E3 P:65 SP:F9 PPU:143
FB5F  C9 02     CMP A:02 X:FF Y:E3 P:65 SP:F9 PPU:149
FB61  D0 12     BNE A:02 X:FF Y:E3 P:67 SP:F9 PPU:155
FB63  60        RTS A:02 X:FF Y:E3 P:67 SP:F9 PPU:161
F233  AD 47 06  LDA A:02 X:FF Y:E3 P:67 SP:FB PPU:179
F236  C9 4A     CMP A:4A X:FF Y:E3 P:65 SP:FB PPU:191
F238  F0 02     BEQ A:4A X:FF Y:E3 P:67 SP:FB PPU:197
F23C  A0 FF     LDY A:4A X:FF Y:E3 P:67 SP:FB PPU:206
F23E  A9 29     LDA A:4A X:FF Y:FF P:E5 SP:FB PPU:212
F240  8D 47 06  STA A:29 X:FF Y:FF P:65 SP:FB PPU:218
F243  20 64 FB  JSR A:29 X:FF Y:FF P:65 SP:FB PPU:230
FB64  B8        CLV A:29 X:FF Y:FF P:65 SP:F9 PPU:248
FB65  18        CLC A:29 X:FF Y:FF P:25 SP:F9 PPU:254
FB66  A9 42     LDA A:29 X:FF Y:FF P:24 SP:F9 PPU:260
FB68  60        RTS A:42 X:FF Y:FF P:24 SP:F9 PPU:266
F246  3B 48 05  RLA A:42 X:FF Y:FF P:24 SP:FB PPU:284
F249  EA        NOP A:42 X:FF Y:FF P:24 SP:FB PPU:305
F24A  EA        NOP A:42 X:FF Y:FF P:24 SP:FB PPU:311
F24B  08        PHP A:42 X:FF Y:FF P:24 SP:FB PPU:317
F24C  48        PHA A:42 X:FF Y:FF P:24 SP:FA PPU:326
F24D  A0 E4     LDY A:42 X:FF Y:FF P:24 SP:F9 PPU:335
F24F  68        PLA A:42 X:FF Y:E4 P:A4 SP:F9 PPU:  0
F250  28        PLP A:42 X:FF Y:E4 P:24 SP:FA PPU: 12
F251  20 69 FB  JSR A:42 X:FF Y:E4 P:24 SP:FB PPU: 24
FB69  70 0A     BVS A:42 X:FF Y:E4 P:24 SP:F9 PPU: 42
FB6B  F0 08     BEQ A:42 X:FF Y:E4 P:24 SP:F9 PPU: 48
FB6D  30 06     BMI A:42 X:FF Y:E4 P:24 SP:F9 PPU: 54
FB6F  B0 04     BCS A:42 X:FF Y:E4 P:24 SP:F9 PPU: 60
FB71  C9 42     CMP A:42 X:FF Y:E4 P:24 SP:F9 PPU: 66
FB73  F0 02     BEQ A:42 X:FF Y:E4 P:27 SP:F9 PPU: 72
FB77  60        RTS A:42 X:FF Y:E4 P:27 SP:F9 PPU: 81
F254  AD 47 06  LDA A:42 X:FF Y:E4 P:27 SP:FB PPU: 99
F257  C9 52     CMP A:52 X:FF Y:E4 P:25 SP:FB PPU:111
F259  F0 02     BEQ A:52 X:FF Y:E4 P:27 SP:FB PPU:117
F25D  A0 FF     LDY A:52 X:FF Y:E4 P:27 SP:FB PPU:126
F25F  A9 37     LDA A:52 X:FF Y:FF P:A5 SP:FB PPU:132
F261  8D 47 06  STA A:37 X:FF Y:FF P:25 SP:FB PPU:138
F264  20 68 FA  JSR A:37 X:FF Y:FF P:25 SP:FB PPU:150
FA68  24 01     BIT A:37 X:FF Y:FF P:25 SP:F9 PPU:168
FA6A  38        SEC A:37 X:FF Y:FF P:E5 SP:F9 PPU:177
FA6B  A9 75     LDA A:37 X:FF Y:FF P:E5 SP:F9 PPU:183
FA6D  60        RTS A:75 X:FF Y:FF P:65 SP:F9 PPU:189
F267  3B 48 05  RLA A:75 X:FF Y:FF P:65 SP:FB PPU:207
F26A  EA        NOP A:65 X:FF Y:FF P:64 SP:FB PPU:228
F26B  EA        NOP A:65 X:FF Y:FF P:64 SP:FB PPU:234
F26C  08        PHP A:65 X:FF Y:FF P:64 SP:FB PPU:240
F26D  48        PHA A:65 X:FF Y:FF P:64 SP:FA PPU:249
F26E  A0 E5     LDY A:65 X:FF Y:FF P:64 SP:F9 PPU:258
F270  68        PLA A:65 X:FF Y:E5 P:E4 SP:F9 PPU:264
F271  28        PLP A:65 X:FF Y:E5 P:64 SP:FA PPU:276
F272  20 6E FA  JSR A:65 X:FF Y:E5 P:64 SP:FB PPU:288
FA6E  50 76     BVC A:65 X:FF Y:E5 P:64 SP:F9 PPU:306
FA70  F0 74     BEQ A:65 X:FF Y:E5 P:64 SP:F9 PPU:312
FA72  30 72     BMI A:65 X:FF Y:E5 P:64 SP:F9 PPU:318
FA74  B0 70     BCS A:65 X:FF Y:E5 P:64 SP:F9 PPU:324
FA76  C9 65     CMP A:65 X:FF Y:E5 P:64 SP:F9 PPU:330
FA78  D0 6C     BNE A:65 X:FF Y:E5 P:67 SP:F9 PPU:336
FA7A  60        RTS A:65 X:FF Y:E5 P:67 SP:F9 PPU:  1
F275  AD 47 06  LDA A:65 X:FF Y:E5 P:67 SP:FB PPU: 19
F278  C9 6F     CMP A:6F X:FF Y:E5 P:65 SP:FB PPU: 31
F27A  F0 02     BEQ A:6F X:FF Y:E5 P:67 SP:FB PPU: 37
F27E  A0 E6     LDY A:6F X:FF Y:E5 P:67 SP:FB PPU: 46
F280  A2 FF     LDX A:6F X:FF Y:E6 P:E5 SP:FB PPU: 52
F282  A9 A5     LDA A:6F X:FF Y:E6 P:E5 SP:FB PPU: 58
F284  8D 47 06  STA A:A5 X:FF Y:E6 P:E5 SP:FB PPU: 64
F287  20 53 FB  JSR A:A5 X:FF Y:E6 P:E5 SP:FB PPU: 76
FB53  24 01     BIT A:A5 X:FF Y:E6 P:E5 SP:F9 PPU: 94
FB55  18        CLC A:A5 X:FF Y:E6 P:E5 SP:F9 PPU:103
FB56  A9 B3     LDA A:A5 X:FF Y:E6 P:E4 SP:F9 PPU:109
FB58  60        RTS A:B3 X:FF Y:E6 P:E4 SP:F9 PPU:115
F28A  3F 48 05  RLA A:B3 X:FF Y:E6 P:E4 SP:FB PPU:133
F28D  EA        NOP A:02 X:FF Y:E6 P:65 SP:FB PPU:154
F28E  EA        NOP A:02 X:FF Y:E6 P:65 SP:FB PPU:160
F28F  EA        NOP A:02 X:FF Y:E6 P:65 SP:FB PPU:166
F290  EA        NOP A:02 X:FF Y:E6 P:65 SP:FB PPU:172
F291  20 59 FB  JSR A:02 X:FF Y:E6 P:65 SP:FB PPU:178
FB59  50 1A     BVC A:02 X:FF Y:E6 P:65 SP:F9 PPU:196
FB5B  90 18     BCC A:02 X:FF Y:E6 P:65 SP:F9 PPU:202
FB5D  30 16     BMI A:02 X:FF Y:E6 P:65 SP:F9 PPU:208
FB5F  C9 02     CMP A:02 X:FF Y:E6 P:65 SP:F9 PPU:214
FB61  D0 12     BNE A:02 X:FF Y:E6 P:67 SP:F9 PPU:220
FB63  60        RTS A:02 X:FF Y:E6 P:67 SP:F9 PPU:226
F294  AD 47 06  LDA A:02 X:FF Y:E6 P:67 SP:FB PPU:244
F297  C9 4A     CMP A:4A X:FF Y:E6 P:65 SP:FB PPU:256
F299  F0 02     BEQ A:4A X:FF Y:E6 P:67 SP:FB PPU:262
F29D  C8        INY A:4A X:FF Y:E6 P:67 SP:FB PPU:271
F29E  A9 29     LDA A:4A X:FF Y:E7 P:E5 SP:FB PPU:277
F2A0  8D 47 06  STA A:29 X:FF Y:E7 P:65 SP:FB PPU:283
F2A3  20 64 FB  JSR A:29 X:FF Y:E7 P:65 SP:FB PPU:295
FB64  B8        CLV A:29 X:FF Y:E7 P:65 SP:F9 PPU:313
FB65  18        CLC A:29 X:FF Y:E7 P:25 SP:F9 PPU:319
FB66  A9 42     LDA A:29 X:FF Y:E7 P:24 SP:F9 PPU:325
FB68  60        RTS A:42 X:FF Y:E7 P:24 SP:F9 PPU:331
F2A6  3F 48 05  RLA A:42 X:FF Y:E7 P:24 SP:FB PPU:  8
F2A9  EA        NOP A:42 X:FF Y:E7 P:24 SP:FB PPU: 29
F2AA  EA        NOP A:42 X:FF Y:E7 P:24 SP:FB PPU: 35
F2AB  EA        NOP A:42 X:FF Y:E7 P:24 SP:FB PPU: 41
F2AC  EA        NOP A:42 X:FF Y:E7 P:24 SP:FB PPU: 47
F2AD  20 69 FB  JSR A:42 X:FF Y:E7 P:24 SP:FB PPU: 53
FB69  70 0A     BVS A:42 X:FF Y:E7 P:24 SP:F9 PPU: 71
FB6B  F0 08     BEQ A:42 X:FF Y:E7 P:24 SP:F9 PPU: 77
FB6D  30 06     BMI A:42 X:FF Y:E7 P:24 SP:F9 PPU: 83
FB6F  B0 04     BCS A:42 X:FF Y:E7 P:24 SP:F9 PPU: 89
FB71  C9 42     CMP A:42 X:FF Y:E7 P:24 SP:F9 PPU: 95
FB73  F0 02     BEQ A:42 X:FF Y:E7 P:27 SP:F9 PPU:101
FB77  60        RTS A:42 X:FF Y:E7 P:27 SP:F9 PPU:110
F2B0  AD 47 06  LDA A:42 X:FF Y:E7 P:27 SP:FB PPU:128
F2B3  C9 52     CMP A:52 X:FF Y:E7 P:25 SP:FB PPU:140
F2B5  F0 02     BEQ A:52 X:FF Y:E7 P:27 SP:FB PPU:146
F2B9  C8        INY A:52 X:FF Y:E7 P:27 SP:FB PPU:155
F2BA  A9 37     LDA A:52 X:FF Y:E8 P:A5 SP:FB PPU:161
F2BC  8D 47 06  STA A:37 X:FF Y:E8 P:25 SP:FB PPU:167
F2BF  20 68 FA  JSR A:37 X:FF Y:E8 P:25 SP:FB PPU:179
FA68  24 01     BIT A:37 X:FF Y:E8 P:25 SP:F9 PPU:197
FA6A  38        SEC A:37 X:FF Y:E8 P:E5 SP:F9 PPU:206
FA6B  A9 75     LDA A:37 X:FF Y:E8 P:E5 SP:F9 PPU:212
FA6D  60        RTS A:75 X:FF Y:E8 P:65 SP:F9 PPU:218
F2C2  3F 48 05  RLA A:75 X:FF Y:E8 P:65 SP:FB PPU:236
F2C5  EA        NOP A:65 X:FF Y:E8 P:64 SP:FB PPU:257
F2C6  EA        NOP A:65 X:FF Y:E8 P:64 SP:FB PPU:263
F2C7  EA        NOP A:65 X:FF Y:E8 P:64 SP:FB PPU:269
F2C8  EA        NOP A:65 X:FF Y:E8 P:64 SP:FB PPU:275
F2C9  20 6E FA  JSR A:65 X:FF Y:E8 P:64 SP:FB PPU:281
FA6E  50 76     BVC A:65 X:FF Y:E8 P:64 SP:F9 PPU:299
FA70  F0 74     BEQ A:65 X:FF Y:E8 P:64 SP:F9 PPU:305
FA72  30 72     BMI A:65 X:FF Y:E8 P:64 SP:F9 PPU:311
FA74  B0 70     BCS A:65 X:FF Y:E8 P:64 SP:F9 PPU:317
FA76  C9 65     CMP A:65 X:FF Y:E8 P:64 SP:F9 PPU:323
FA78  D0 6C     BNE A:65 X:FF Y:E8 P:67 SP:F9 PPU:329
FA7A  60        RTS A:65 X:FF Y:E8 P:67 SP:F9 PPU:335
F2CC  AD 47 06  LDA A:65 X:FF Y:E8 P:67 SP:FB PPU: 12
F2CF  C9 6F     CMP A:6F X:FF Y:E8 P:65 SP:FB PPU: 24
F2D1  F0 02     BEQ A:6F X:FF Y:E8 P:67 SP:FB PPU: 30
F2D5  60        RTS A:6F X:FF Y:E8 P:67 SP:FB PPU: 39
C647  20 D6 F2  JSR A:6F X:FF Y:E8 P:67 SP:FD PPU: 57
F2D6  A9 FF     LDA A:6F X:FF Y:E8 P:67 SP:FB PPU: 75
F2D8  85 01     STA A:FF X:FF Y:E8 P:E5 SP:FB PPU: 81
F2DA  A0 E9     LDY A:FF X:FF Y:E8 P:E5 SP:FB PPU: 90
F2DC  A2 02     LDX A:FF X:FF Y:E9 P:E5 SP:FB PPU: 96
F2DE  A9 47     LDA A:FF X:02 Y:E9 P:65 SP:FB PPU:102
F2E0  85 47     STA A:47 X:02 Y:E9 P:65 SP:FB PPU:108
F2E2  A9 06     LDA A:47 X:02 Y:E9 P:65 SP:FB PPU:117
F2E4  85 48     STA A:06 X:02 Y:E9 P:65 SP:FB PPU:123
F2E6  A9 A5     LDA A:06 X:02 Y:E9 P:65 SP:FB PPU:132
F2E8  8D 47 06  STA A:A5 X:02 Y:E9 P:E5 SP:FB PPU:138
F2EB  20 1D FB  JSR A:A5 X:02 Y:E9 P:E5 SP:FB PPU:150
FB1D  24 01     BIT A:A5 X:02 Y:E9 P:E5 SP:F9 PPU:168
FB1F  18        CLC A:A5 X:02 Y:E9 P:E5 SP:F9 PPU:177
FB20  A9 B3     LDA A:A5 X:02 Y:E9 P:E4 SP:F9 PPU:183
FB22  60        RTS A:B3 X:02 Y:E9 P:E4 SP:F9 PPU:189
F2EE  43 45     SRE A:B3 X:02 Y:E9 P:E4 SP:FB PPU:207
F2F0  EA        NOP A:E1 X:02 Y:E9 P:E5 SP:FB PPU:231
F2F1  EA        NOP A:E1 X:02 Y:E9 P:E5 SP:FB PPU:237
F2F2  EA        NOP A:E1 X:02 Y:E9 P:E5 SP:FB PPU:243
F2F3  EA        NOP A:E1 X:02 Y:E9 P:E5 SP:FB PPU:249
F2F4  20 23 FB  JSR A:E1 X:02 Y:E9 P:E5 SP:FB PPU:255
FB23  50 50     BVC A:E1 X:02 Y:E9 P:E5 SP:F9 PPU:273
FB25  90 4E     BCC A:E1 X:02 Y:E9 P:E5 SP:F9 PPU:279
FB27  10 4C     BPL A:E1 X:02 Y:E9 P:E5 SP:F9 PPU:285
FB29  C9 E1     CMP A:E1 X:02 Y:E9 P:E5 SP:F9 PPU:291
FB2B  D0 48     BNE A:E1 X:02 Y:E9 P:67 SP:F9 PPU:297
FB2D  60        RTS A:E1 X:02 Y:E9 P:67 SP:F9 PPU:303
F2F7  AD 47 06  LDA A:E1 X:02 Y:E9 P:67 SP:FB PPU:321
F2FA  C9 52     CMP A:52 X:02 Y:E9 P:65 SP:FB PPU:333
F2FC  F0 02     BEQ A:52 X:02 Y:E9 P:67 SP:FB PPU:339
F300  C8        INY A:52 X:02 Y:E9 P:67 SP:FB PPU: 10
F301  A9 29     LDA A:52 X:02 Y:EA P:E5 SP:FB PPU: 16
F303  8D 47 06  STA A:29 X:02 Y:EA P:65 SP:FB PPU: 22
F306  20 2E FB  JSR A:29 X:02 Y:EA P:65 SP:FB PPU: 34
FB2E  B8        CLV A:29 X:02 Y:EA P:65 SP:F9 PPU: 52
FB2F  18        CLC A:29 X:02 Y:EA P:25 SP:F9 PPU: 58
FB30  A9 42     LDA A:29 X:02 Y:EA P:24 SP:F9 PPU: 64
FB32  60        RTS A:42 X:02 Y:EA P:24 SP:F9 PPU: 70
F309  43 45     SRE A:42 X:02 Y:EA P:24 SP:FB PPU: 88
F30B  EA        NOP A:56 X:02 Y:EA P:25 SP:FB PPU:112
F30C  EA        NOP A:56 X:02 Y:EA P:25 SP:FB PPU:118
F30D  EA        NOP A:56 X:02 Y:EA P:25 SP:FB PPU:124
F30E  EA        NOP A:56 X:02 Y:EA P:25 SP:FB PPU:130
F30F  20 33 FB  JSR A:56 X:02 Y:EA P:25 SP:FB PPU:136
FB33  70 40     BVS A:56 X:02 Y:EA P:25 SP:F9 PPU:154
FB35  F0 3E     BEQ A:56 X:02 Y:EA P:25 SP:F9 PPU:160
FB37  30 3C     BMI A:56 X:02 Y:EA P:25 SP:F9 PPU:166
FB39  90 3A     BCC A:56 X:02 Y:EA P:25 SP:F9 PPU:172
FB3B  C9 56     CMP A:56 X:02 Y:EA P:25 SP:F9 PPU:178
FB3D  D0 36     BNE A:56 X:02 Y:EA P:27 SP:F9 PPU:184
FB3F  60        RTS A:56 X:02 Y:EA P:27 SP:F9 PPU:190
F312  AD 47 06  LDA A:56 X:02 Y:EA P:27 SP:FB PPU:208
F315  C9 14     CMP A:14 X:02 Y:EA P:25 SP:FB PPU:220
F317  F0 02     BEQ A:14 X:02 Y:EA P:27 SP:FB PPU:226
F31B  C8        INY A:14 X:02 Y:EA P:27 SP:FB PPU:235
F31C  A9 37     LDA A:14 X:02 Y:EB P:A5 SP:FB PPU:241
F31E  8D 47 06  STA A:37 X:02 Y:EB P:25 SP:FB PPU:247
F321  20 40 FB  JSR A:37 X:02 Y:EB P:25 SP:FB PPU:259
FB40  24 01     BIT A:37 X:02 Y:EB P:25 SP:F9 PPU:277
FB42  38        SEC A:37 X:02 Y:EB P:E5 SP:F9 PPU:286
FB43  A9 75     LDA A:37 X:02 Y:EB P:E5 SP:F9 PPU:292
FB45  60        RTS A:75 X:02 Y:EB P:65 SP:F9 PPU:298
F324  43 45     SRE A:75 X:02 Y:EB P:65 SP:FB PPU:316
F326  EA        NOP A:6E X:02 Y:EB P:65 SP:FB PPU:340
F327  EA        NOP A:6E X:02 Y:EB P:65 SP:FB PPU:  5
F328  EA        NOP A:6E X:02 Y:EB P:65 SP:FB PPU: 11
F329  EA        NOP A:6E X:02 Y:EB P:65 SP:FB PPU: 17
F32A  20 46 FB  JSR A:6E X:02 Y:EB P:65 SP:FB PPU: 23
FB46  50 2D     BVC A:6E X:02 Y:EB P:65 SP:F9 PPU: 41
FB48  F0 2B     BEQ A:6E X:02 Y:EB P:65 SP:F9 PPU: 47
FB4A  30 29     BMI A:6E X:02 Y:EB P:65 SP:F9 PPU: 53
FB4C  90 27     BCC A:6E X:02 Y:EB P:65 SP:F9 PPU: 59
FB4E  C9 6E     CMP A:6E X:02 Y:EB P:65 SP:F9 PPU: 65
FB50  D0 23     BNE A:6E X:02 Y:EB P:67 SP:F9 PPU: 71
FB52  60        RTS A:6E X:02 Y:EB P:67 SP:F9 PPU: 77
F32D  AD 47 06  LDA A:6E X:02 Y:EB P:67 SP:FB PPU: 95
F330  C9 1B     CMP A:1B X:02 Y:EB P:65 SP:FB PPU:107
F332  F0 02     BEQ A:1B X:02 Y:EB P:67 SP:FB PPU:113
F336  C8        INY A:1B X:02 Y:EB P:67 SP:FB PPU:122
F337  A9 A5     LDA A:1B X:02 Y:EC P:E5 SP:FB PPU:128
F339  85 47     STA A:A5 X:02 Y:EC P:E5 SP:FB PPU:134
F33B  20 1D FB  JSR A:A5 X:02 Y:EC P:E5 SP:FB PPU:143
FB1D  24 01     BIT A:A5 X:02 Y:EC P:E5 SP:F9 PPU:161
FB1F  18        CLC A:A5 X:02 Y:EC P:E5 SP:F9 PPU:170
FB20  A9 B3     LDA A:A5 X:02 Y:EC P:E4 SP:F9 PPU:176
FB22  60        RTS A:B3 X:02 Y:EC P:E4 SP:F9 PPU:182
F33E  47 47     SRE A:B3 X:02 Y:EC P:E4 SP:FB PPU:200
F340  EA        NOP A:E1 X:02 Y:EC P:E5 SP:FB PPU:215
F341  EA        NOP A:E1 X:02 Y:EC P:E5 SP:FB PPU:221
F342  EA        NOP A:E1 X:02 Y:EC P:E5 SP:FB PPU:227
F343  EA        NOP A:E1 X:02 Y:EC P:E5 SP:FB PPU:233
F344  20 23 FB  JSR A:E1 X:02 Y:EC P:E5 SP:FB PPU:239
FB23  50 50     BVC A:E1 X:02 Y:EC P:E5 SP:F9 PPU:257
FB25  90 4E     BCC A:E1 X:02 Y:EC P:E5 SP:F9 PPU:263
FB27  10 4C     BPL A:E1 X:02 Y:EC P:E5 SP:F9 PPU:269
FB29  C9 E1     CMP A:E1 X:02 Y:EC P:E5 SP:F9 PPU:275
FB2B  D0 48     BNE A:E1 X:02 Y:EC P:67 SP:F9 PPU:281
FB2D  60        RTS A:E1 X:02 Y:EC P:67 SP:F9 PPU:287
F347  A5 47     LDA A:E1 X:02 Y:EC P:67 SP:FB PPU:305
F349  C9 52     CMP A:52 X:02 Y:EC P:65 SP:FB PPU:314
F34B  F0 02     BEQ A:52 X:02 Y:EC P:67 SP:FB PPU:320
F34F  C8        INY A:52 X:02 Y:EC P:67 SP:FB PPU:329
F350  A9 29     LDA A:52 X:02 Y:ED P:E5 SP:FB PPU:335
F352  85 47     STA A:29 X:02 Y:ED P:65 SP:FB PPU:  0
F354  20 2E FB  JSR A:29 X:02 Y:ED P:65 SP:FB PPU:  9
FB2E  B8        CLV A:29 X:02 Y:ED P:65 SP:F9 PPU: 27
FB2F  18        CLC A:29 X:02 Y:ED P:25 SP:F9 PPU: 33
FB30  A9 42     LDA A:29 X:02 Y:ED P:24 SP:F9 PPU: 39
FB32  60        RTS A:42 X:02 Y:ED P:24 SP:F9 PPU: 45
F357  47 47     SRE A:42 X:02 Y:ED P:24 SP:FB PPU: 63
F359  EA        NOP A:56 X:02 Y:ED P:25 SP:FB PPU: 78
F35A  EA        NOP A:56 X:02 Y:ED P:25 SP:FB PPU: 84
F35B  EA        NOP A:56 X:02 Y:ED P:25 SP:FB PPU: 90
F35C  EA        NOP A:56 X:02 Y:ED P:25 SP:FB PPU: 96
F35D  20 33 FB  JSR A:56 X:02 Y:ED P:25 SP:FB PPU:102
FB33  70 40     BVS A:56 X:02 Y:ED P:25 SP:F9 PPU:120
FB35  F0 3E     BEQ A:56 X:02 Y:ED P:25 SP:F9 PPU:126
FB37  30 3C     BMI A:56 X:02 Y:ED P:25 SP:F9 PPU:132
FB39  90 3A     BCC A:56 X:02 Y:ED P:25 SP:F9 PPU:138
FB3B  C9 56     CMP A:56 X:02 Y:ED P:25 SP:F9 PPU:144
FB3D  D0 36     BNE A:56 X:02 Y:ED P:27 SP:F9 PPU:150
FB3F  60        RTS A:56 X:02 Y:ED P:27 SP:F9 PPU:156
F360  A5 47     LDA A:56 X:02 Y:ED P:27 SP:FB PPU:174
F362  C9 14     CMP A:14 X:02 Y:ED P:25 SP:FB PPU:183
F364  F0 02     BEQ A:14 X:02 Y:ED P:27 SP:FB PPU:189
F368  C8        INY A:14 X:02 Y:ED P:27 SP:FB PPU:198
F369  A9 37     LDA A:14 X:02 Y:EE P:A5 SP:FB PPU:204
F36B  85 47     STA A:37 X:02 Y:EE P:25 SP:FB PPU:210
F36D  20 40 FB  JSR A:37 X:02 Y:EE P:25 SP:FB PPU:219
FB40  24 01     BIT A:37 X:02 Y:EE P:25 SP:F9 PPU:237
FB42  38        SEC A:37 X:02 Y:EE P:E5 SP:F9 PPU:246
FB43  A9 75     LDA A:37 X:02 Y:EE P:E5 SP:F9 PPU:252
FB45  60        RTS A:75 X:02 Y:EE P:65 SP:F9 PPU:258
F370  47 47     SRE A:75 X:02 Y:EE P:65 SP:FB PPU:276
F372  EA        NOP A:6E X:02 Y:EE P:65 SP:FB PPU:291
F373  EA        NOP A:6E X:02 Y:EE P:65 SP:FB PPU:297
F374  EA        NOP A:6E X:02 Y:EE P:65 SP:FB PPU:303
F375  EA        NOP A:6E X:02 Y:EE P:65 SP:FB PPU:309
F376  20 46 FB  JSR A:6E X:02 Y:EE P:65 SP:FB PPU:315
FB46  50 2D     BVC A:6E X:02 Y:EE P:65 SP:F9 PPU:333
FB48  F0 2B     BEQ A:6E X:02 Y:EE P:65 SP:F9 PPU:339
FB4A  30 29     BMI A:6E X:02 Y:EE P:65 SP:F9 PPU:  4
FB4C  90 27     BCC A:6E X:02 Y:EE P:65 SP:F9 PPU: 10
FB4E  C9 6E     CMP A:6E X:02 Y:EE P:65 SP:F9 PPU: 16
FB50  D0 23     BNE A:6E X:02 Y:EE P:67 SP:F9 PPU: 22
FB52  60        RTS A:6E X:02 Y:EE P:67 SP:F9 PPU: 28
F379  A5 47     LDA A:6E X:02 Y:EE P:67 SP:FB PPU: 46
F37B  C9 1B     CMP A:1B X:02 Y:EE P:65 SP:FB PPU: 55
F37D  F0 02     BEQ A:1B X:02 Y:EE P:67 SP:FB PPU: 61
F381  C8        INY A:1B X:02 Y:EE P:67 SP:FB PPU: 70
F382  A9 A5     LDA A:1B X:02 Y:EF P:E5 SP:FB PPU: 76
F384  8D 47 06  STA A:A5 X:02 Y:EF P:E5 SP:FB PPU: 82
F387  20 1D FB  JSR A:A5 X:02 Y:EF P:E5 SP:FB PPU: 94
FB1D  24 01     BIT A:A5 X:02 Y:EF P:E5 SP:F9 PPU:112
FB1F  18        CLC A:A5 X:02 Y:EF P:E5 SP:F9 PPU:121
FB20  A9 B3     LDA A:A5 X:02 Y:EF P:E4 SP:F9 PPU:127
FB22  60        RTS A:B3 X:02 Y:EF P:E4 SP:F9 PPU:133
F38A  4F 47 06  SRE A:B3 X:02 Y:EF P:E4 SP:FB PPU:151
F38D  EA        NOP A:E1 X:02 Y:EF P:E5 SP:FB PPU:169
F38E  EA        NOP A:E1 X:02 Y:EF P:E5 SP:FB PPU:175
F38F  EA        NOP A:E1 X:02 Y:EF P:E5 SP:FB PPU:181
F390  EA        NOP A:E1 X:02 Y:EF P:E5 SP:FB PPU:187
F391  20 23 FB  JSR A:E1 X:02 Y:EF P:E5 SP:FB PPU:193
FB23  50 50     BVC A:E1 X:02 Y:EF P:E5 SP:F9 PPU:211
FB25  90 4E     BCC A:E1 X:02 Y:EF P:E5 SP:F9 PPU:217
FB27  10 4C     BPL A:E1 X:02 Y:EF P:E5 SP:F9 PPU:223
FB29  C9 E1     CMP A:E1 X:02 Y:EF P:E5 SP:F9 PPU:229
FB2B  D0 48     BNE A:E1 X:02 Y:EF P:67 SP:F9 PPU:235
FB2D  60        RTS A:E1 X:02 Y:EF P:67 SP:F9 PPU:241
F394  AD 47 06  LDA A:E1 X:02 Y:EF P:67 SP:FB PPU:259
F397  C9 52     CMP A:52 X:02 Y:EF P:65 SP:FB PPU:271
F399  F0 02     BEQ A:52 X:02 Y:EF P:67 SP:FB PPU:277
F39D  C8        INY A:52 X:02 Y:EF P:67 SP:FB PPU:286
F39E  A9 29     LDA A:52 X:02 Y:F0 P:E5 SP:FB PPU:292
F3A0  8D 47 06  STA A:29 X:02 Y:F0 P:65 SP:FB PPU:298
F3A3  20 2E FB  JSR A:29 X:02 Y:F0 P:65 SP:FB PPU:310
FB2E  B8        CLV A:29 X:02 Y:F0 P:65 SP:F9 PPU:328
FB2F  18        CLC A:29 X:02 Y:F0 P:25 SP:F9 PPU:334
FB30  A9 42     LDA A:29 X:02 Y:F0 P:24 SP:F9 PPU:340
FB32  60        RTS A:42 X:02 Y:F0 P:24 SP:F9 PPU:  5
F3A6  4F 47 06  SRE A:42 X:02 Y:F0 P:24 SP:FB PPU: 23
F3A9  EA        NOP A:56 X:02 Y:F0 P:25 SP:FB PPU: 41
F3AA  EA        NOP A:56 X:02 Y:F0 P:25 SP:FB PPU: 47
F3AB  EA        NOP A:56 X:02 Y:F0 P:25 SP:FB PPU: 53
F3AC  EA        NOP A:56 X:02 Y:F0 P:25 SP:FB PPU: 59
F3AD  20 33 FB  JSR A:56 X:02 Y:F0 P:25 SP:FB PPU: 65
FB33  70 40     BVS A:56 X:02 Y:F0 P:25 SP:F9 PPU: 83
FB35  F0 3E     BEQ A:56 X:02 Y:F0 P:25 SP:F9 PPU: 89
FB37  30 3C     BMI A:56 X:02 Y:F0 P:25 SP:F9 PPU: 95
FB39  90 3A     BCC A:56 X:02 Y:F0 P:25 SP:F9 PPU:101
FB3B  C9 56     CMP A:56 X:02 Y:F0 P:25 SP:F9 PPU:107
FB3D  D0 36     BNE A:56 X:02 Y:F0 P:27 SP:F9 PPU:113
FB3F  60        RTS A:56 X:02 Y:F0 P:27 SP:F9 PPU:119
F3B0  AD 47 06  LDA A:56 X:02 Y:F0 P:27 SP:FB PPU:137
F3B3  C9 14     CMP A:14 X:02 Y:F0 P:25 SP:FB PPU:149
F3B5  F0 02     BEQ A:14 X:02 Y:F0 P:27 SP:FB PPU:155
F3B9  C8        INY A:14 X:02 Y:F0 P:27 SP:FB PPU:164
F3BA  A9 37     LDA A:14 X:02 Y:F1 P:A5 SP:FB PPU:170
F3BC  8D 47 06  STA A:37 X:02 Y:F1 P:25 SP:FB PPU:176
F3BF  20 40 FB  JSR A:37 X:02 Y:F1 P:25 SP:FB PPU:188
FB40  24 01     BIT A:37 X:02 Y:F1 P:25 SP:F9 PPU:206
FB42  38        SEC A:37 X:02 Y:F1 P:E5 SP:F9 PPU:215
FB43  A9 75     LDA A:37 X:02 Y:F1 P:E5 SP:F9 PPU:221
FB45  60        RTS A:75 X:02 Y:F1 P:65 SP:F9 PPU:227
F3C2  4F 47 06  SRE A:75 X:02 Y:F1 P:65 SP:FB PPU:245
F3C5  EA        NOP A:6E X:02 Y:F1 P:65 SP:FB PPU:263
F3C6  EA        NOP A:6E X:02 Y:F1 P:65 SP:FB PPU:269
F3C7  EA        NOP A:6E X:02 Y:F1 P:65 SP:FB PPU:275
F3C8  EA        NOP A:6E X:02 Y:F1 P:65 SP:FB PPU:281
F3C9  20 46 FB  JSR A:6E X:02 Y:F1 P:65 SP:FB PPU:287
FB46  50 2D     BVC A:6E X:02 Y:F1 P:65 SP:F9 PPU:305
FB48  F0 2B     BEQ A:6E X:02 Y:F1 P:65 SP:F9 PPU:311
FB4A  30 29     BMI A:6E X:02 Y:F1 P:65 SP:F9 PPU:317
FB4C  90 27     BCC A:6E X:02 Y:F1 P:65 SP:F9 PPU:323
FB4E  C9 6E     CMP A:6E X:02 Y:F1 P:65 SP:F9 PPU:329
FB50  D0 23     BNE A:6E X:02 Y:F1 P:67 SP:F9 PPU:335
FB52  60        RTS A:6E X:02 Y:F1 P:67 SP:F9 PPU:  0
F3CC  AD 47 06  LDA A:6E X:02 Y:F1 P:67 SP:FB PPU: 18
F3CF  C9 1B     CMP A:1B X:02 Y:F1 P:65 SP:FB PPU: 30
F3D1  F0 02     BEQ A:1B X:02 Y:F1 P:67 SP:FB PPU: 36
F3D5  A9 A5     LDA A:1B X:02 Y:F1 P:67 SP:FB PPU: 45
F3D7  8D 47 06  STA A:A5 X:02 Y:F1 P:E5 SP:FB PPU: 51
F3DA  A9 48     LDA A:A5 X:02 Y:F1 P:E5 SP:FB PPU: 63
F3DC  85 45     STA A:48 X:02 Y:F1 P:65 SP:FB PPU: 69
F3DE  A9 05     LDA A:48 X:02 Y:F1 P:65 SP:FB PPU: 78
F3E0  85 46     STA A:05 X:02 Y:F1 P:65 SP:FB PPU: 84
F3E2  A0 FF     LDY A:05 X:02 Y:F1 P:65 SP:FB PPU: 93
F3E4  20 1D FB  JSR A:05 X:02 Y:FF P:E5 SP:FB PPU: 99
FB1D  24 01     BIT A:05 X:02 Y:FF P:E5 SP:F9 PPU:117
FB1F  18        CLC A:05 X:02 Y:FF P:E5 SP:F9 PPU:126
FB20  A9 B3     LDA A:05 X:02 Y:FF P:E4 SP:F9 PPU:132
FB22  60        RTS A:B3 X:02 Y:FF P:E4 SP:F9 PPU:138
F3E7  53 45     SRE A:B3 X:02 Y:FF P:E4 SP:FB PPU:156
F3E9  EA        NOP A:E1 X:02 Y:FF P:E5 SP:FB PPU:180
F3EA  EA        NOP A:E1 X:02 Y:FF P:E5 SP:FB PPU:186
F3EB  08        PHP A:E1 X:02 Y:FF P:E5 SP:FB PPU:192
F3EC  48        PHA A:E1 X:02 Y:FF P:E5 SP:FA PPU:201
F3ED  A0 F2     LDY A:E1 X:02 Y:FF P:E5 SP:F9 PPU:210
F3EF  68        PLA A:E1 X:02 Y:F2 P:E5 SP:F9 PPU:216
F3F0  28        PLP A:E1 X:02 Y:F2 P:E5 SP:FA PPU:228
F3F1  20 23 FB  JSR A:E1 X:02 Y:F2 P:E5 SP:FB PPU:240
FB23  50 50     BVC A:E1 X:02 Y:F2 P:E5 SP:F9 PPU:258
FB25  90 4E     BCC A:E1 X:02 Y:F2 P:E5 SP:F9 PPU:264
FB27  10 4C     BPL A:E1 X:02 Y:F2 P:E5 SP:F9 PPU:270
FB29  C9 E1     CMP A:E1 X:02 Y:F2 P:E5 SP:F9 PPU:276
FB2B  D0 48     BNE A:E1 X:02 Y:F2 P:67 SP:F9 PPU:282
FB2D  60        RTS A:E1 X:02 Y:F2 P:67 SP:F9 PPU:288
F3F4  AD 47 06  LDA A:E1 X:02 Y:F2 P:67 SP:FB PPU:306
F3F7  C9 52     CMP A:52 X:02 Y:F2 P:65 SP:FB PPU:318
F3F9  F0 02     BEQ A:52 X:02 Y:F2 P:67 SP:FB PPU:324
F3FD  A0 FF     LDY A:52 X:02 Y:F2 P:67 SP:FB PPU:333
F3FF  A9 29     LDA A:52 X:02 Y:FF P:E5 SP:FB PPU:339
F401  8D 47 06  STA A:29 X:02 Y:FF P:65 SP:FB PPU:  4
F404  20 2E FB  JSR A:29 X:02 Y:FF P:65 SP:FB PPU: 16
FB2E  B8        CLV A:29 X:02 Y:FF P:65 SP:F9 PPU: 34
FB2F  18        CLC A:29 X:02 Y:FF P:25 SP:F9 PPU: 40
FB30  A9 42     LDA A:29 X:02 Y:FF P:24 SP:F9 PPU: 46
FB32  60        RTS A:42 X:02 Y:FF P:24 SP:F9 PPU: 52
F407  53 45     SRE A:42 X:02 Y:FF P:24 SP:FB PPU: 70
F409  EA        NOP A:56 X:02 Y:FF P:25 SP:FB PPU: 94
F40A  EA        NOP A:56 X:02 Y:FF P:25 SP:FB PPU:100
F40B  08        PHP A:56 X:02 Y:FF P:25 SP:FB PPU:106
F40C  48        PHA A:56 X:02 Y:FF P:25 SP:FA PPU:115
F40D  A0 F3     LDY A:56 X:02 Y:FF P:25 SP:F9 PPU:124
F40F  68        PLA A:56 X:02 Y:F3 P:A5 SP:F9 PPU:130
F410  28        PLP A:56 X:02 Y:F3 P:25 SP:FA PPU:142
F411  20 33 FB  JSR A:56 X:02 Y:F3 P:25 SP:FB PPU:154
FB33  70 40     BVS A:56 X:02 Y:F3 P:25 SP:F9 PPU:172
FB35  F0 3E     BEQ A:56 X:02 Y:F3 P:25 SP:F9 PPU:178
FB37  30 3C     BMI A:56 X:02 Y:F3 P:25 SP:F9 PPU:184
FB39  90 3A     BCC A:56 X:02 Y:F3 P:25 SP:F9 PPU:190
FB3B  C9 56     CMP A:56 X:02 Y:F3 P:25 SP:F9 PPU:196
FB3D  D0 36     BNE A:56 X:02 Y:F3 P:27 SP:F9 PPU:202
FB3F  60        RTS A:56 X:02 Y:F3 P:27 SP:F9 PPU:208
F414  AD 47 06  LDA A:56 X:02 Y:F3 P:27 SP:FB PPU:226
F417  C9 14     CMP A:14 X:02 Y:F3 P:25 SP:FB PPU:238
F419  F0 02     BEQ A:14 X:02 Y:F3 P:27 SP:FB PPU:244
F41D  A0 FF     LDY A:14 X:02 Y:F3 P:27 SP:FB PPU:253
F41F  A9 37     LDA A:14 X:02 Y:FF P:A5 SP:FB PPU:259
F421  8D 47 06  STA A:37 X:02 Y:FF P:25 SP:FB PPU:265
F424  20 40 FB  JSR A:37 X:02 Y:FF P:25 SP:FB PPU:277
FB40  24 01     BIT A:37 X:02 Y:FF P:25 SP:F9 PPU:295
FB42  38        SEC A:37 X:02 Y:FF P:E5 SP:F9 PPU:304
FB43  A9 75     LDA A:37 X:02 Y:FF P:E5 SP:F9 PPU:310
FB45  60        RTS A:75 X:02 Y:FF P:65 SP:F9 PPU:316
F427  53 45     SRE A:75 X:02 Y:FF P:65 SP:FB PPU:334
F429  EA        NOP A:6E X:02 Y:FF P:65 SP:FB PPU: 17
F42A  EA        NOP A:6E X:02 Y:FF P:65 SP:FB PPU: 23
F42B  08        PHP A:6E X:02 Y:FF P:65 SP:FB PPU: 29
F42C  48        PHA A:6E X:02 Y:FF P:65 SP:FA PPU: 38
F42D  A0 F4     LDY A:6E X:02 Y:FF P:65 SP:F9 PPU: 47
F42F  68        PLA A:6E X:02 Y:F4 P:E5 SP:F9 PPU: 53
F430  28        PLP A:6E X:02 Y:F4 P:65 SP:FA PPU: 65
F431  20 46 FB  JSR A:6E X:02 Y:F4 P:65 SP:FB PPU: 77
FB46  50 2D     BVC A:6E X:02 Y:F4 P:65 SP:F9 PPU: 95
FB48  F0 2B     BEQ A:6E X:02 Y:F4 P:65 SP:F9 PPU:101
FB4A  30 29     BMI A:6E X:02 Y:F4 P:65 SP:F9 PPU:107
FB4C  90 27     BCC A:6E X:02 Y:F4 P:65 SP:F9 PPU:113
FB4E  C9 6E     CMP A:6E X:02 Y:F4 P:65 SP:F9 PPU:119
FB50  D0 23     BNE A:6E X:02 Y:F4 P:67 SP:F9 PPU:125
FB52  60        RTS A:6E X:02 Y:F4 P:67 SP:F9 PPU:131
F434  AD 47 06  LDA A:6E X:02 Y:F4 P:67 SP:FB PPU:149
F437  C9 1B     CMP A:1B X:02 Y:F4 P:65 SP:FB PPU:161
F439  F0 02     BEQ A:1B X:02 Y:F4 P:67 SP:FB PPU:167
F43D  A0 F5     LDY A:1B X:02 Y:F4 P:67 SP:FB PPU:176
F43F  A2 FF     LDX A:1B X:02 Y:F5 P:E5 SP:FB PPU:182
F441  A9 A5     LDA A:1B X:FF Y:F5 P:E5 SP:FB PPU:188
F443  85 47     STA A:A5 X:FF Y:F5 P:E5 SP:FB PPU:194
F445  20 1D FB  JSR A:A5 X:FF Y:F5 P:E5 SP:FB PPU:203
FB1D  24 01     BIT A:A5 X:FF Y:F5 P:E5 SP:F9 PPU:221
FB1F  18        CLC A:A5 X:FF Y:F5 P:E5 SP:F9 PPU:230
FB20  A9 B3     LDA A:A5 X:FF Y:F5 P:E4 SP:F9 PPU:236
FB22  60        RTS A:B3 X:FF Y:F5 P:E4 SP:F9 PPU:242
F448  57 48     SRE A:B3 X:FF Y:F5 P:E4 SP:FB PPU:260
F44A  EA        NOP A:E1 X:FF Y:F5 P:E5 SP:FB PPU:278
F44B  EA        NOP A:E1 X:FF Y:F5 P:E5 SP:FB PPU:284
F44C  EA        NOP A:E1 X:FF Y:F5 P:E5 SP:FB PPU:290
F44D  EA        NOP A:E1 X:FF Y:F5 P:E5 SP:FB PPU:296
F44E  20 23 FB  JSR A:E1 X:FF Y:F5 P:E5 SP:FB PPU:302
FB23  50 50     BVC A:E1 X:FF Y:F5 P:E5 SP:F9 PPU:320
FB25  90 4E     BCC A:E1 X:FF Y:F5 P:E5 SP:F9 PPU:326
FB27  10 4C     BPL A:E1 X:FF Y:F5 P:E5 SP:F9 PPU:332
FB29  C9 E1     CMP A:E1 X:FF Y:F5 P:E5 SP:F9 PPU:338
FB2B  D0 48     BNE A:E1 X:FF Y:F5 P:67 SP:F9 PPU:  3
FB2D  60        RTS A:E1 X:FF Y:F5 P:67 SP:F9 PPU:  9
F451  A5 47     LDA A:E1 X:FF Y:F5 P:67 SP:FB PPU: 27
F453  C9 52     CMP A:52 X:FF Y:F5 P:65 SP:FB PPU: 36
F455  F0 02     BEQ A:52 X:FF Y:F5 P:67 SP:FB PPU: 42
F459  C8        INY A:52 X:FF Y:F5 P:67 SP:FB PPU: 51
F45A  A9 29     LDA A:52 X:FF Y:F6 P:E5 SP:FB PPU: 57
F45C  85 47     STA A:29 X:FF Y:F6 P:65 SP:FB PPU: 63
F45E  20 2E FB  JSR A:29 X:FF Y:F6 P:65 SP:FB PPU: 72
FB2E  B8        CLV A:29 X:FF Y:F6 P:65 SP:F9 PPU: 90
FB2F  18        CLC A:29 X:FF Y:F6 P:25 SP:F9 PPU: 96
FB30  A9 42     LDA A:29 X:FF Y:F6 P:24 SP:F9 PPU:102
FB32  60        RTS A:42 X:FF Y:F6 P:24 SP:F9 PPU:108
F461  57 48     SRE A:42 X:FF Y:F6 P:24 SP:FB PPU:126
F463  EA        NOP A:56 X:FF Y:F6 P:25 SP:FB PPU:144
F464  EA        NOP A:56 X:FF Y:F6 P:25 SP:FB PPU:150
F465  EA        NOP A:56 X:FF Y:F6 P:25 SP:FB PPU:156
F466  EA        NOP A:56 X:FF Y:F6 P:25 SP:FB PPU:162
F467  20 33 FB  JSR A:56 X:FF Y:F6 P:25 SP:FB PPU:168
FB33  70 40     BVS A:56 X:FF Y:F6 P:25 SP:F9 PPU:186
FB35  F0 3E     BEQ A:56 X:FF Y:F6 P:25 SP:F9 PPU:192
FB37  30 3C     BMI A:56 X:FF Y:F6 P:25 SP:F9 PPU:198
FB39  90 3A     BCC A:56 X:FF Y:F6 P:25 SP:F9 PPU:204
FB3B  C9 56     CMP A:56 X:FF Y:F6 P:25 SP:F9 PPU:210
FB3D  D0 36     BNE A:56 X:FF Y:F6 P:27 SP:F9 PPU:216
FB3F  60        RTS A:56 X:FF Y:F6 P:27 SP:F9 PPU:222
F46A  A5 47     LDA A:56 X:FF Y:F6 P:27 SP:FB PPU:240
F46C  C9 14     CMP A:14 X:FF Y:F6 P:25 SP:FB PPU:249
F46E  F0 02     BEQ A:14 X:FF Y:F6 P:27 SP:FB PPU:255
F472  C8        INY A:14 X:FF Y:F6 P:27 SP:FB PPU:264
F473  A9 37     LDA A:14 X:FF Y:F7 P:A5 SP:FB PPU:270
F475  85 47     STA A:37 X:FF Y:F7 P:25 SP:FB PPU:276
F477  20 40 FB  JSR A:37 X:FF Y:F7 P:25 SP:FB PPU:285
FB40  24 01     BIT A:37 X:FF Y:F7 P:25 SP:F9 PPU:303
FB42  38        SEC A:37 X:FF Y:F7 P:E5 SP:F9 PPU:312
FB43  A9 75     LDA A:37 X:FF Y:F7 P:E5 SP:F9 PPU:318
FB45  60        RTS A:75 X:FF Y:F7 P:65 SP:F9 PPU:324
F47A  57 48     SRE A:75 X:FF Y:F7 P:65 SP:FB PPU:  1
F47C  EA        NOP A:6E X:FF Y:F7 P:65 SP:FB PPU: 19
F47D  EA        NOP A:6E X:FF Y:F7 P:65 SP:FB PPU: 25
F47E  EA        NOP A:6E X:FF Y:F7 P:65 SP:FB PPU: 31
F47F  EA        NOP A:6E X:FF Y:F7 P:65 SP:FB PPU: 37
F480  20 46 FB  JSR A:6E X:FF Y:F7 P:65 SP:FB PPU: 43
FB46  50 2D     BVC A:6E X:FF Y:F7 P:65 SP:F9 PPU: 61
FB48  F0 2B     BEQ A:6E X:FF Y:F7 P:65 SP:F9 PPU: 67
FB4A  30 29     BMI A:6E X:FF Y:F7 P:65 SP:F9 PPU: 73
FB4C  90 27     BCC A:6E X:FF Y:F7 P:65 SP:F9 PPU: 79
FB4E  C9 6E     CMP A:6E X:FF Y:F7 P:65 SP:F9 PPU: 85
FB50  D0 23     BNE A:6E X:FF Y:F7 P:67 SP:F9 PPU: 91
FB52  60        RTS A:6E X:FF Y:F7 P:67 SP:F9 PPU: 97
F483  A5 47     LDA A:6E X:FF Y:F7 P:67 SP:FB PPU:115
F485  C9 1B     CMP A:1B X:FF Y:F7 P:65 SP:FB PPU:124
F487  F0 02     BEQ A:1B X:FF Y:F7 P:67 SP:FB PPU:130
F48B  A9 A5     LDA A:1B X:FF Y:F7 P:67 SP:FB PPU:139
F48D  8D 47 06  STA A:A5 X:FF Y:F7 P:E5 SP:FB PPU:145
F490  A0 FF     LDY A:A5 X:FF Y:F7 P:E5 SP:FB PPU:157
F492  20 1D FB  JSR A:A5 X:FF Y:FF P:E5 SP:FB PPU:163
FB1D  24 01     BIT A:A5 X:FF Y:FF P:E5 SP:F9 PPU:181
FB1F  18        CLC A:A5 X:FF Y:FF P:E5 SP:F9 PPU:190
FB20  A9 B3     LDA A:A5 X:FF Y:FF P:E4 SP:F9 PPU:196
FB22  60        RTS A:B3 X:FF Y:FF P:E4 SP:F9 PPU:202
F495  5B 48 05  SRE A:B3 X:FF Y:FF P:E4 SP:FB PPU:220
F498  EA        NOP A:E1 X:FF Y:FF P:E5 SP:FB PPU:241
F499  EA        NOP A:E1 X:FF Y:FF P:E5 SP:FB PPU:247
F49A  08        PHP A:E1 X:FF Y:FF P:E5 SP:FB PPU:253
F49B  48        PHA A:E1 X:FF Y:FF P:E5 SP:FA PPU:262
F49C  A0 F8     LDY A:E1 X:FF Y:FF P:E5 SP:F9 PPU:271
F49E  68        PLA A:E1 X:FF Y:F8 P:E5 SP:F9 PPU:277
F49F  28        PLP A:E1 X:FF Y:F8 P:E5 SP:FA PPU:289
F4A0  20 23 FB  JSR A:E1 X:FF Y:F8 P:E5 SP:FB PPU:301
FB23  50 50     BVC A:E1 X:FF Y:F8 P:E5 SP:F9 PPU:319
FB25  90 4E     BCC A:E1 X:FF Y:F8 P:E5 SP:F9 PPU:325
FB27  10 4C     BPL A:E1 X:FF Y:F8 P:E5 SP:F9 PPU:331
FB29  C9 E1     CMP A:E1 X:FF Y:F8 P:E5 SP:F9 PPU:337
FB2B  D0 48     BNE A:E1 X:FF Y:F8 P:67 SP:F9 PPU:  2
FB2D  60        RTS A:E1 X:FF Y:F8 P:67 SP:F9 PPU:  8
F4A3  AD 47 06  LDA A:E1 X:FF Y:F8 P:67 SP:FB PPU: 26
F4A6  C9 52     CMP A:52 X:FF Y:F8 P:65 SP:FB PPU: 38
F4A8  F0 02     BEQ A:52 X:FF Y:F8 P:67 SP:FB PPU: 44
F4AC  A0 FF     LDY A:52 X:FF Y:F8 P:67 SP:FB PPU: 53
F4AE  A9 29     LDA A:52 X:FF Y:FF P:E5 SP:FB PPU: 59
F4B0  8D 47 06  STA A:29 X:FF Y:FF P:65 SP:FB PPU: 65
F4B3  20 2E FB  JSR A:29 X:FF Y:FF P:65 SP:FB PPU: 77
FB2E  B8        CLV A:29 X:FF Y:FF P:65 SP:F9 PPU: 95
FB2F  18        CLC A:29 X:FF Y:FF P:25 SP:F9 PPU:101
FB30  A9 42     LDA A:29 X:FF Y:FF P:24 SP:F9 PPU:107
FB32  60        RTS A:42 X:FF Y:FF P:24 SP:F9 PPU:113
F4B6  5B 48 05  SRE A:42 X:FF Y:FF P:24 SP:FB PPU:131
F4B9  EA        NOP A:56 X:FF Y:FF P:25 SP:FB PPU:152
F4BA  EA        NOP A:56 X:FF Y:FF P:25 SP:FB PPU:158
F4BB  08        PHP A:56 X:FF Y:FF P:25 SP:FB PPU:164
F4BC  48        PHA A:56 X:FF Y:FF P:25 SP:FA PPU:173
F4BD  A0 F9     LDY A:56 X:FF Y:FF P:25 SP:F9 PPU:182
F4BF  68        PLA A:56 X:FF Y:F9 P:A5 SP:F9 PPU:188
F4C0  28        PLP A:56 X:FF Y:F9 P:25 SP:FA PPU:200
F4C1  20 33 FB  JSR A:56 X:FF Y:F9 P:25 SP:FB PPU:212
FB33  70 40     BVS A:56 X:FF Y:F9 P:25 SP:F9 PPU:230
FB35  F0 3E     BEQ A:56 X:FF Y:F9 P:25 SP:F9 PPU:236
FB37  30 3C     BMI A:56 X:FF Y:F9 P:25 SP:F9 PPU:242
FB39  90 3A     BCC A:56 X:FF Y:F9 P:25 SP:F9 PPU:248
FB3B  C9 56     CMP A:56 X:FF Y:F9 P:25 SP:F9 PPU:254
FB3D  D0 36     BNE A:56 X:FF Y:F9 P:27 SP:F9 PPU:260
FB3F  60        RTS A:56 X:FF Y:F9 P:27 SP:F9 PPU:266
F4C4  AD 47 06  LDA A:56 X:FF Y:F9 P:27 SP:FB PPU:284
F4C7  C9 14     CMP A:14 X:FF Y:F9 P:25 SP:FB PPU:296
F4C9  F0 02     BEQ A:14 X:FF Y:F9 P:27 SP:FB PPU:302
F4CD  A0 FF     LDY A:14 X:FF Y:F9 P:27 SP:FB PPU:311
F4CF  A9 37     LDA A:14 X:FF Y:FF P:A5 SP:FB PPU:317
F4D1  8D 47 06  STA A:37 X:FF Y:FF P:25 SP:FB PPU:323
F4D4  20 40 FB  JSR A:37 X:FF Y:FF P:25 SP:FB PPU:335
FB40  24 01     BIT A:37 X:FF Y:FF P:25 SP:F9 PPU: 12
FB42  38        SEC A:37 X:FF Y:FF P:E5 SP:F9 PPU: 21
FB43  A9 75     LDA A:37 X:FF Y:FF P:E5 SP:F9 PPU: 27
FB45  60        RTS A:75 X:FF Y:FF P:65 SP:F9 PPU: 33
F4D7  5B 48 05  SRE A:75 X:FF Y:FF P:65 SP:FB PPU: 51
F4DA  EA        NOP A:6E X:FF Y:FF P:65 SP:FB PPU: 72
F4DB  EA        NOP A:6E X:FF Y:FF P:65 SP:FB PPU: 78
F4DC  08        PHP A:6E X:FF Y:FF P:65 SP:FB PPU: 84
F4DD  48        PHA A:6E X:FF Y:FF P:65 SP:FA PPU: 93
F4DE  A0 FA     LDY A:6E X:FF Y:FF P:65 SP:F9 PPU:102
F4E0  68        PLA A:6E X:FF Y:FA P:E5 SP:F9 PPU:108
F4E1  28        PLP A:6E X:FF Y:FA P:65 SP:FA PPU:120
F4E2  20 46 FB  JSR A:6E X:FF Y:FA P:65 SP:FB PPU:132
FB46  50 2D     BVC A:6E X:FF Y:FA P:65 SP:F9 PPU:150
FB48  F0 2B     BEQ A:6E X:FF Y:FA P:65 SP:F9 PPU:156
FB4A  30 29     BMI A:6E X:FF Y:FA P:65 SP:F9 PPU:162
FB4C  90 27     BCC A:6E X:FF Y:FA P:65 SP:F9 PPU:168
FB4E  C9 6E     CMP A:6E X:FF Y:FA P:65 SP:F9 PPU:174
FB50  D0 23     BNE A:6E X:FF Y:FA P:67 SP:F9 PPU:180
FB52  60        RTS A:6E X:FF Y:FA P:67 SP:F9 PPU:186
F4E5  AD 47 06  LDA A:6E X:FF Y:FA P:67 SP:FB PPU:204
F4E8  C9 1B     CMP A:1B X:FF Y:FA P:65 SP:FB PPU:216
F4EA  F0 02     BEQ A:1B X:FF Y:FA P:67 SP:FB PPU:222
F4EE  A0 FB     LDY A:1B X:FF Y:FA P:67 SP:FB PPU:231
F4F0  A2 FF     LDX A:1B X:FF Y:FB P:E5 SP:FB PPU:237
F4F2  A9 A5     LDA A:1B X:FF Y:FB P:E5 SP:FB PPU:243
F4F4  8D 47 06  STA A:A5 X:FF Y:FB P:E5 SP:FB PPU:249
F4F7  20 1D FB  JSR A:A5 X:FF Y:FB P:E5 SP:FB PPU:261
FB1D  24 01     BIT A:A5 X:FF Y:FB P:E5 SP:F9 PPU:279
FB1F  18        CLC A:A5 X:FF Y:FB P:E5 SP:F9 PPU:288
FB20  A9 B3     LDA A:A5 X:FF Y:FB P:E4 SP:F9 PPU:294
FB22  60        RTS A:B3 X:FF Y:FB P:E4 SP:F9 PPU:300
F4FA  5F 48 05  SRE A:B3 X:FF Y:FB P:E4 SP:FB PPU:318
F4FD  EA        NOP A:E1 X:FF Y:FB P:E5 SP:FB PPU:339
F4FE  EA        NOP A:E1 X:FF Y:FB P:E5 SP:FB PPU:  4
F4FF  EA        NOP A:E1 X:FF Y:FB P:E5 SP:FB PPU: 10
F500  EA        NOP A:E1 X:FF Y:FB P:E5 SP:FB PPU: 16
F501  20 23 FB  JSR A:E1 X:FF Y:FB P:E5 SP:FB PPU: 22
FB23  50 50     BVC A:E1 X:FF Y:FB P:E5 SP:F9 PPU: 40
FB25  90 4E     BCC A:E1 X:FF Y:FB P:E5 SP:F9 PPU: 46
FB27  10 4C     BPL A:E1 X:FF Y:FB P:E5 SP:F9 PPU: 52
FB29  C9 E1     CMP A:E1 X:FF Y:FB P:E5 SP:F9 PPU: 58
FB2B  D0 48     BNE A:E1 X:FF Y:FB P:67 SP:F9 PPU: 64
FB2D  60        RTS A:E1 X:FF Y:FB P:67 SP:F9 PPU: 70
F504  AD 47 06  LDA A:E1 X:FF Y:FB P:67 SP:FB PPU: 88
F507  C9 52     CMP A:52 X:FF Y:FB P:65 SP:FB PPU:100
F509  F0 02     BEQ A:52 X:FF Y:FB P:67 SP:FB PPU:106
F50D  C8        INY A:52 X:FF Y:FB P:67 SP:FB PPU:115
F50E  A9 29     LDA A:52 X:FF Y:FC P:E5 SP:FB PPU:121
F510  8D 47 06  STA A:29 X:FF Y:FC P:65 SP:FB PPU:127
F513  20 2E FB  JSR A:29 X:FF Y:FC P:65 SP:FB PPU:139
FB2E  B8        CLV A:29 X:FF Y:FC P:65 SP:F9 PPU:157
FB2F  18        CLC A:29 X:FF Y:FC P:25 SP:F9 PPU:163
FB30  A9 42     LDA A:29 X:FF Y:FC P:24 SP:F9 PPU:169
FB32  60        RTS A:42 X:FF Y:FC P:24 SP:F9 PPU:175
F516  5F 48 05  SRE A:42 X:FF Y:FC P:24 SP:FB PPU:193
F519  EA        NOP A:56 X:FF Y:FC P:25 SP:FB PPU:214
F51A  EA        NOP A:56 X:FF Y:FC P:25 SP:FB PPU:220
F51B  EA        NOP A:56 X:FF Y:FC P:25 SP:FB PPU:226
F51C  EA        NOP A:56 X:FF Y:FC P:25 SP:FB PPU:232
F51D  20 33 FB  JSR A:56 X:FF Y:FC P:25 SP:FB PPU:238
FB33  70 40     BVS A:56 X:FF Y:FC P:25 SP:F9 PPU:256
FB35  F0 3E     BEQ A:56 X:FF Y:FC P:25 SP:F9 PPU:262
FB37  30 3C     BMI A:56 X:FF Y:FC P:25 SP:F9 PPU:268
FB39  90 3A     BCC A:56 X:FF Y:FC P:25 SP:F9 PPU:274
FB3B  C9 56     CMP A:56 X:FF Y:FC P:25 SP:F9 PPU:280
FB3D  D0 36     BNE A:56 X:FF Y:FC P:27 SP:F9 PPU:286
FB3F  60        RTS A:56 X:FF Y:FC P:27 SP:F9 PPU:292
F520  AD 47 06  LDA A:56 X:FF Y:FC P:27 SP:FB PPU:310
F523  C9 14     CMP A:14 X:FF Y:FC P:25 SP:FB PPU:322
F525  F0 02     BEQ A:14 X:FF Y:FC P:27 SP:FB PPU:328
F529  C8        INY A:14 X:FF Y:FC P:27 SP:FB PPU:337
F52A  A9 37     LDA A:14 X:FF Y:FD P:A5 SP:FB PPU:  2
F52C  8D 47 06  STA A:37 X:FF Y:FD P:25 SP:FB PPU:  8
F52F  20 40 FB  JSR A:37 X:FF Y:FD P:25 SP:FB PPU: 20
FB40  24 01     BIT A:37 X:FF Y:FD P:25 SP:F9 PPU: 38
FB42  38        SEC A:37 X:FF Y:FD P:E5 SP:F9 PPU: 47
FB43  A9 75     LDA A:37 X:FF Y:FD P:E5 SP:F9 PPU: 53
FB45  60        RTS A:75 X:FF Y:FD P:65 SP:F9 PPU: 59
F532  5F 48 05  SRE A:75 X:FF Y:FD P:65 SP:FB PPU: 77
F535  EA        NOP A:6E X:FF Y:FD P:65 SP:FB PPU: 98
F536  EA        NOP A:6E X:FF Y:FD P:65 SP:FB PPU:104
F537  EA        NOP A:6E X:FF Y:FD P:65 SP:FB PPU:110
F538  EA        NOP A:6E X:FF Y:FD P:65 SP:FB PPU:116
F539  20 46 FB  JSR A:6E X:FF Y:FD P:65 SP:FB PPU:122
FB46  50 2D     BVC A:6E X:FF Y:FD P:65 SP:F9 PPU:140
FB48  F0 2B     BEQ A:6E X:FF Y:FD P:65 SP:F9 PPU:146
FB4A  30 29     BMI A:6E X:FF Y:FD P:65 SP:F9 PPU:152
FB4C  90 27     BCC A:6E X:FF Y:FD P:65 SP:F9 PPU:158
FB4E  C9 6E     CMP A:6E X:FF Y:FD P:65 SP:F9 PPU:164
FB50  D0 23     BNE A:6E X:FF Y:FD P:67 SP:F9 PPU:170
FB52  60        RTS A:6E X:FF Y:FD P:67 SP:F9 PPU:176
F53C  AD 47 06  LDA A:6E X:FF Y:FD P:67 SP:FB PPU:194
F53F  C9 1B     CMP A:1B X:FF Y:FD P:65 SP:FB PPU:206
F541  F0 02     BEQ A:1B X:FF Y:FD P:67 SP:FB PPU:212
F545  60        RTS A:1B X:FF Y:FD P:67 SP:FB PPU:221
C64A  A5 00     LDA A:1B X:FF Y:FD P:67 SP:FD PPU:239
C64C  85 11     STA A:00 X:FF Y:FD P:67 SP:FD PPU:248
C64E  A9 00     LDA A:00 X:FF Y:FD P:67 SP:FD PPU:257
C650  85 00     STA A:00 X:FF Y:FD P:67 SP:FD PPU:263
C652  20 46 F5  JSR A:00 X:FF Y:FD P:67 SP:FD PPU:272
F546  A9 FF     LDA A:00 X:FF Y:FD P:67 SP:FB PPU:290
F548  85 01     STA A:FF X:FF Y:FD P:E5 SP:FB PPU:296
F54A  A0 01     LDY A:FF X:FF Y:FD P:E5 SP:FB PPU:305
F54C  A2 02     LDX A:FF X:FF Y:01 P:65 SP:FB PPU:311
F54E  A9 47     LDA A:FF X:02 Y:01 P:65 SP:FB PPU:317
F550  85 47     STA A:47 X:02 Y:01 P:65 SP:FB PPU:323
F552  A9 06     LDA A:47 X:02 Y:01 P:65 SP:FB PPU:332
F554  85 48     STA A:06 X:02 Y:01 P:65 SP:FB PPU:338
F556  A9 A5     LDA A:06 X:02 Y:01 P:65 SP:FB PPU:  6
F558  8D 47 06  STA A:A5 X:02 Y:01 P:E5 SP:FB PPU: 12
F55B  20 E9 FA  JSR A:A5 X:02 Y:01 P:E5 SP:FB PPU: 24
FAE9  24 01     BIT A:A5 X:02 Y:01 P:E5 SP:F9 PPU: 42
FAEB  18        CLC A:A5 X:02 Y:01 P:E5 SP:F9 PPU: 51
FAEC  A9 B2     LDA A:A5 X:02 Y:01 P:E4 SP:F9 PPU: 57
FAEE  60        RTS A:B2 X:02 Y:01 P:E4 SP:F9 PPU: 63
F55E  63 45     RRA A:B2 X:02 Y:01 P:E4 SP:FB PPU: 81
F560  EA        NOP A:05 X:02 Y:01 P:25 SP:FB PPU:105
F561  EA        NOP A:05 X:02 Y:01 P:25 SP:FB PPU:111
F562  EA        NOP A:05 X:02 Y:01 P:25 SP:FB PPU:117
F563  EA        NOP A:05 X:02 Y:01 P:25 SP:FB PPU:123
F564  20 EF FA  JSR A:05 X:02 Y:01 P:25 SP:FB PPU:129
FAEF  70 2A     BVS A:05 X:02 Y:01 P:25 SP:F9 PPU:147
FAF1  90 28     BCC A:05 X:02 Y:01 P:25 SP:F9 PPU:153
FAF3  30 26     BMI A:05 X:02 Y:01 P:25 SP:F9 PPU:159
FAF5  C9 05     CMP A:05 X:02 Y:01 P:25 SP:F9 PPU:165
FAF7  D0 22     BNE A:05 X:02 Y:01 P:27 SP:F9 PPU:171
FAF9  60        RTS A:05 X:02 Y:01 P:27 SP:F9 PPU:177
F567  AD 47 06  LDA A:05 X:02 Y:01 P:27 SP:FB PPU:195
F56A  C9 52     CMP A:52 X:02 Y:01 P:25 SP:FB PPU:207
F56C  F0 02     BEQ A:52 X:02 Y:01 P:27 SP:FB PPU:213
F570  C8        INY A:52 X:02 Y:01 P:27 SP:FB PPU:222
F571  A9 29     LDA A:52 X:02 Y:02 P:25 SP:FB PPU:228
F573  8D 47 06  STA A:29 X:02 Y:02 P:25 SP:FB PPU:234
F576  20 FA FA  JSR A:29 X:02 Y:02 P:25 SP:FB PPU:246
FAFA  B8        CLV A:29 X:02 Y:02 P:25 SP:F9 PPU:264
FAFB  18        CLC A:29 X:02 Y:02 P:25 SP:F9 PPU:270
FAFC  A9 42     LDA A:29 X:02 Y:02 P:24 SP:F9 PPU:276
FAFE  60        RTS A:42 X:02 Y:02 P:24 SP:F9 PPU:282
F579  63 45     RRA A:42 X:02 Y:02 P:24 SP:FB PPU:300
F57B  EA        NOP A:57 X:02 Y:02 P:24 SP:FB PPU:324
F57C  EA        NOP A:57 X:02 Y:02 P:24 SP:FB PPU:330
F57D  EA        NOP A:57 X:02 Y:02 P:24 SP:FB PPU:336
F57E  EA        NOP A:57 X:02 Y:02 P:24 SP:FB PPU:  1
F57F  20 FF FA  JSR A:57 X:02 Y:02 P:24 SP:FB PPU:  7
FAFF  70 1A     BVS A:57 X:02 Y:02 P:24 SP:F9 PPU: 25
FB01  30 18     BMI A:57 X:02 Y:02 P:24 SP:F9 PPU: 31
FB03  B0 16     BCS A:57 X:02 Y:02 P:24 SP:F9 PPU: 37
FB05  C9 57     CMP A:57 X:02 Y:02 P:24 SP:F9 PPU: 43
FB07  D0 12     BNE A:57 X:02 Y:02 P:27 SP:F9 PPU: 49
FB09  60        RTS A:57 X:02 Y:02 P:27 SP:F9 PPU: 55
F582  AD 47 06  LDA A:57 X:02 Y:02 P:27 SP:FB PPU: 73
F585  C9 14     CMP A:14 X:02 Y:02 P:25 SP:FB PPU: 85
F587  F0 02     BEQ A:14 X:02 Y:02 P:27 SP:FB PPU: 91
F58B  C8        INY A:14 X:02 Y:02 P:27 SP:FB PPU:100
F58C  A9 37     LDA A:14 X:02 Y:03 P:25 SP:FB PPU:106
F58E  8D 47 06  STA A:37 X:02 Y:03 P:25 SP:FB PPU:112
F591  20 0A FB  JSR A:37 X:02 Y:03 P:25 SP:FB PPU:124
FB0A  24 01     BIT A:37 X:02 Y:03 P:25 SP:F9 PPU:142
FB0C  38        SEC A:37 X:02 Y:03 P:E5 SP:F9 PPU:151
FB0D  A9 75     LDA A:37 X:02 Y:03 P:E5 SP:F9 PPU:157
FB0F  60        RTS A:75 X:02 Y:03 P:65 SP:F9 PPU:163
F594  63 45     RRA A:75 X:02 Y:03 P:65 SP:FB PPU:181
F596  EA        NOP A:11 X:02 Y:03 P:25 SP:FB PPU:205
F597  EA        NOP A:11 X:02 Y:03 P:25 SP:FB PPU:211
F598  EA        NOP A:11 X:02 Y:03 P:25 SP:FB PPU:217
F599  EA        NOP A:11 X:02 Y:03 P:25 SP:FB PPU:223
F59A  20 10 FB  JSR A:11 X:02 Y:03 P:25 SP:FB PPU:229
FB10  70 09     BVS A:11 X:02 Y:03 P:25 SP:F9 PPU:247
FB12  30 07     BMI A:11 X:02 Y:03 P:25 SP:F9 PPU:253
FB14  90 05     BCC A:11 X:02 Y:03 P:25 SP:F9 PPU:259
FB16  C9 11     CMP A:11 X:02 Y:03 P:25 SP:F9 PPU:265
FB18  D0 01     BNE A:11 X:02 Y:03 P:27 SP:F9 PPU:271
FB1A  60        RTS A:11 X:02 Y:03 P:27 SP:F9 PPU:277
F59D  AD 47 06  LDA A:11 X:02 Y:03 P:27 SP:FB PPU:295
F5A0  C9 9B     CMP A:9B X:02 Y:03 P:A5 SP:FB PPU:307
F5A2  F0 02     BEQ A:9B X:02 Y:03 P:27 SP:FB PPU:313
F5A6  C8        INY A:9B X:02 Y:03 P:27 SP:FB PPU:322
F5A7  A9 A5     LDA A:9B X:02 Y:04 P:25 SP:FB PPU:328
F5A9  85 47     STA A:A5 X:02 Y:04 P:A5 SP:FB PPU:334
F5AB  20 E9 FA  JSR A:A5 X:02 Y:04 P:A5 SP:FB PPU:  2
FAE9  24 01     BIT A:A5 X:02 Y:04 P:A5 SP:F9 PPU: 20
FAEB  18        CLC A:A5 X:02 Y:04 P:E5 SP:F9 PPU: 29
FAEC  A9 B2     LDA A:A5 X:02 Y:04 P:E4 SP:F9 PPU: 35
FAEE  60        RTS A:B2 X:02 Y:04 P:E4 SP:F9 PPU: 41
F5AE  67 47     RRA A:B2 X:02 Y:04 P:E4 SP:FB PPU: 59
F5B0  EA        NOP A:05 X:02 Y:04 P:25 SP:FB PPU: 74
F5B1  EA        NOP A:05 X:02 Y:04 P:25 SP:FB PPU: 80
F5B2  EA        NOP A:05 X:02 Y:04 P:25 SP:FB PPU: 86
F5B3  EA        NOP A:05 X:02 Y:04 P:25 SP:FB PPU: 92
F5B4  20 EF FA  JSR A:05 X:02 Y:04 P:25 SP:FB PPU: 98
FAEF  70 2A     BVS A:05 X:02 Y:04 P:25 SP:F9 PPU:116
FAF1  90 28     BCC A:05 X:02 Y:04 P:25 SP:F9 PPU:122
FAF3  30 26     BMI A:05 X:02 Y:04 P:25 SP:F9 PPU:128
FAF5  C9 05     CMP A:05 X:02 Y:04 P:25 SP:F9 PPU:134
FAF7  D0 22     BNE A:05 X:02 Y:04 P:27 SP:F9 PPU:140
FAF9  60        RTS A:05 X:02 Y:04 P:27 SP:F9 PPU:146
F5B7  A5 47     LDA A:05 X:02 Y:04 P:27 SP:FB PPU:164
F5B9  C9 52     CMP A:52 X:02 Y:04 P:25 SP:FB PPU:173
F5BB  F0 02     BEQ A:52 X:02 Y:04 P:27 SP:FB PPU:179
F5BF  C8        INY A:52 X:02 Y:04 P:27 SP:FB PPU:188
F5C0  A9 29     LDA A:52 X:02 Y:05 P:25 SP:FB PPU:194
F5C2  85 47     STA A:29 X:02 Y:05 P:25 SP:FB PPU:200
F5C4  20 FA FA  JSR A:29 X:02 Y:05 P:25 SP:FB PPU:209
FAFA  B8        CLV A:29 X:02 Y:05 P:25 SP:F9 PPU:227
FAFB  18        CLC A:29 X:02 Y:05 P:25 SP:F9 PPU:233
FAFC  A9 42     LDA A:29 X:02 Y:05 P:24 SP:F9 PPU:239
FAFE  60        RTS A:42 X:02 Y:05 P:24 SP:F9 PPU:245
F5C7  67 47     RRA A:42 X:02 Y:05 P:24 SP:FB PPU:263
F5C9  EA        NOP A:57 X:02 Y:05 P:24 SP:FB PPU:278
F5CA  EA        NOP A:57 X:02 Y:05 P:24 SP:FB PPU:284
F5CB  EA        NOP A:57 X:02 Y:05 P:24 SP:FB PPU:290
F5CC  EA        NOP A:57 X:02 Y:05 P:24 SP:FB PPU:296
F5CD  20 FF FA  JSR A:57 X:02 Y:05 P:24 SP:FB PPU:302
FAFF  70 1A     BVS A:57 X:02 Y:05 P:24 SP:F9 PPU:320
FB01  30 18     BMI A:57 X:02 Y:05 P:24 SP:F9 PPU:326
FB03  B0 16     BCS A:57 X:02 Y:05 P:24 SP:F9 PPU:332
FB05  C9 57     CMP A:57 X:02 Y:05 P:24 SP:F9 PPU:338
FB07  D0 12     BNE A:57 X:02 Y:05 P:27 SP:F9 PPU:  3
FB09  60        RTS A:57 X:02 Y:05 P:27 SP:F9 PPU:  9
F5D0  A5 47     LDA A:57 X:02 Y:05 P:27 SP:FB PPU: 27
F5D2  C9 14     CMP A:14 X:02 Y:05 P:25 SP:FB PPU: 36
F5D4  F0 02     BEQ A:14 X:02 Y:05 P:27 SP:FB PPU: 42
F5D8  C8        INY A:14 X:02 Y:05 P:27 SP:FB PPU: 51
F5D9  A9 37     LDA A:14 X:02 Y:06 P:25 SP:FB PPU: 57
F5DB  85 47     STA A:37 X:02 Y:06 P:25 SP:FB PPU: 63
F5DD  20 0A FB  JSR A:37 X:02 Y:06 P:25 SP:FB PPU: 72
FB0A  24 01     BIT A:37 X:02 Y:06 P:25 SP:F9 PPU: 90
FB0C  38        SEC A:37 X:02 Y:06 P:E5 SP:F9 PPU: 99
FB0D  A9 75     LDA A:37 X:02 Y:06 P:E5 SP:F9 PPU:105
FB0F  60        RTS A:75 X:02 Y:06 P:65 SP:F9 PPU:111
F5E0  67 47     RRA A:75 X:02 Y:06 P:65 SP:FB PPU:129
F5E2  EA        NOP A:11 X:02 Y:06 P:25 SP:FB PPU:144
F5E3  EA        NOP A:11 X:02 Y:06 P:25 SP:FB PPU:150
F5E4  EA        NOP A:11 X:02 Y:06 P:25 SP:FB PPU:156
F5E5  EA        NOP A:11 X:02 Y:06 P:25 SP:FB PPU:162
F5E6  20 10 FB  JSR A:11 X:02 Y:06 P:25 SP:FB PPU:168
FB10  70 09     BVS A:11 X:02 Y:06 P:25 SP:F9 PPU:186
FB12  30 07     BMI A:11 X:02 Y:06 P:25 SP:F9 PPU:192
FB14  90 05     BCC A:11 X:02 Y:06 P:25 SP:F9 PPU:198
FB16  C9 11     CMP A:11 X:02 Y:06 P:25 SP:F9 PPU:204
FB18  D0 01     BNE A:11 X:02 Y:06 P:27 SP:F9 PPU:210
FB1A  60        RTS A:11 X:02 Y:06 P:27 SP:F9 PPU:216
F5E9  A5 47     LDA A:11 X:02 Y:06 P:27 SP:FB PPU:234
F5EB  C9 9B     CMP A:9B X:02 Y:06 P:A5 SP:FB PPU:243
F5ED  F0 02     BEQ A:9B X:02 Y:06 P:27 SP:FB PPU:249
F5F1  C8        INY A:9B X:02 Y:06 P:27 SP:FB PPU:258
F5F2  A9 A5     LDA A:9B X:02 Y:07 P:25 SP:FB PPU:264
F5F4  8D 47 06  STA A:A5 X:02 Y:07 P:A5 SP:FB PPU:270
F5F7  20 E9 FA  JSR A:A5 X:02 Y:07 P:A5 SP:FB PPU:282
FAE9  24 01     BIT A:A5 X:02 Y:07 P:A5 SP:F9 PPU:300
FAEB  18        CLC A:A5 X:02 Y:07 P:E5 SP:F9 PPU:309
FAEC  A9 B2     LDA A:A5 X:02 Y:07 P:E4 SP:F9 PPU:315
FAEE  60        RTS A:B2 X:02 Y:07 P:E4 SP:F9 PPU:321
F5FA  6F 47 06  RRA A:B2 X:02 Y:07 P:E4 SP:FB PPU:339
F5FD  EA        NOP A:05 X:02 Y:07 P:25 SP:FB PPU: 16
F5FE  EA        NOP A:05 X:02 Y:07 P:25 SP:FB PPU: 22
F5FF  EA        NOP A:05 X:02 Y:07 P:25 SP:FB PPU: 28
F600  EA        NOP A:05 X:02 Y:07 P:25 SP:FB PPU: 34
F601  20 EF FA  JSR A:05 X:02 Y:07 P:25 SP:FB PPU: 40
FAEF  70 2A     BVS A:05 X:02 Y:07 P:25 SP:F9 PPU: 58
FAF1  90 28     BCC A:05 X:02 Y:07 P:25 SP:F9 PPU: 64
FAF3  30 26     BMI A:05 X:02 Y:07 P:25 SP:F9 PPU: 70
FAF5  C9 05     CMP A:05 X:02 Y:07 P:25 SP:F9 PPU: 76
FAF7  D0 22     BNE A:05 X:02 Y:07 P:27 SP:F9 PPU: 82
FAF9  60        RTS A:05 X:02 Y:07 P:27 SP:F9 PPU: 88
F604  AD 47 06  LDA A:05 X:02 Y:07 P:27 SP:FB PPU:106
F607  C9 52     CMP A:52 X:02 Y:07 P:25 SP:FB PPU:118
F609  F0 02     BEQ A:52 X:02 Y:07 P:27 SP:FB PPU:124
F60D  C8        INY A:52 X:02 Y:07 P:27 SP:FB PPU:133
F60E  A9 29     LDA A:52 X:02 Y:08 P:25 SP:FB PPU:139
F610  8D 47 06  STA A:29 X:02 Y:08 P:25 SP:FB PPU:145
F613  20 FA FA  JSR A:29 X:02 Y:08 P:25 SP:FB PPU:157
FAFA  B8        CLV A:29 X:02 Y:08 P:25 SP:F9 PPU:175
FAFB  18        CLC A:29 X:02 Y:08 P:25 SP:F9 PPU:181
FAFC  A9 42     LDA A:29 X:02 Y:08 P:24 SP:F9 PPU:187
FAFE  60        RTS A:42 X:02 Y:08 P:24 SP:F9 PPU:193
F616  6F 47 06  RRA A:42 X:02 Y:08 P:24 SP:FB PPU:211
F619  EA        NOP A:57 X:02 Y:08 P:24 SP:FB PPU:229
F61A  EA        NOP A:57 X:02 Y:08 P:24 SP:FB PPU:235
F61B  EA        NOP A:57 X:02 Y:08 P:24 SP:FB PPU:241
F61C  EA        NOP A:57 X:02 Y:08 P:24 SP:FB PPU:247
F61D  20 FF FA  JSR A:57 X:02 Y:08 P:24 SP:FB PPU:253
FAFF  70 1A     BVS A:57 X:02 Y:08 P:24 SP:F9 PPU:271
FB01  30 18     BMI A:57 X:02 Y:08 P:24 SP:F9 PPU:277
FB03  B0 16     BCS A:57 X:02 Y:08 P:24 SP:F9 PPU:283
FB05  C9 57     CMP A:57 X:02 Y:08 P:24 SP:F9 PPU:289
FB07  D0 12     BNE A:57 X:02 Y:08 P:27 SP:F9 PPU:295
FB09  60        RTS A:57 X:02 Y:08 P:27 SP:F9 PPU:301
F620  AD 47 06  LDA A:57 X:02 Y:08 P:27 SP:FB PPU:319
F623  C9 14     CMP A:14 X:02 Y:08 P:25 SP:FB PPU:331
F625  F0 02     BEQ A:14 X:02 Y:08 P:27 SP:FB PPU:337
F629  C8        INY A:14 X:02 Y:08 P:27 SP:FB PPU:  5
F62A  A9 37     LDA A:14 X:02 Y:09 P:25 SP:FB PPU: 11
F62C  8D 47 06  STA A:37 X:02 Y:09 P:25 SP:FB PPU: 17
F62F  20 0A FB  JSR A:37 X:02 Y:09 P:25 SP:FB PPU: 29
FB0A  24 01     BIT A:37 X:02 Y:09 P:25 SP:F9 PPU: 47
FB0C  38        SEC A:37 X:02 Y:09 P:E5 SP:F9 PPU: 56
FB0D  A9 75     LDA A:37 X:02 Y:09 P:E5 SP:F9 PPU: 62
FB0F  60        RTS A:75 X:02 Y:09 P:65 SP:F9 PPU: 68
F632  6F 47 06  RRA A:75 X:02 Y:09 P:65 SP:FB PPU: 86
F635  EA        NOP A:11 X:02 Y:09 P:25 SP:FB PPU:104
F636  EA        NOP A:11 X:02 Y:09 P:25 SP:FB PPU:110
F637  EA        NOP A:11 X:02 Y:09 P:25 SP:FB PPU:116
F638  EA        NOP A:11 X:02 Y:09 P:25 SP:FB PPU:122
F639  20 10 FB  JSR A:11 X:02 Y:09 P:25 SP:FB PPU:128
FB10  70 09     BVS A:11 X:02 Y:09 P:25 SP:F9 PPU:146
FB12  30 07     BMI A:11 X:02 Y:09 P:25 SP:F9 PPU:152
FB14  90 05     BCC A:11 X:02 Y:09 P:25 SP:F9 PPU:158
FB16  C9 11     CMP A:11 X:02 Y:09 P:25 SP:F9 PPU:164
FB18  D0 01     BNE A:11 X:02 Y:09 P:27 SP:F9 PPU:170
FB1A  60        RTS A:11 X:02 Y:09 P:27 SP:F9 PPU:176
F63C  AD 47 06  LDA A:11 X:02 Y:09 P:27 SP:FB PPU:194
F63F  C9 9B     CMP A:9B X:02 Y:09 P:A5 SP:FB PPU:206
F641  F0 02     BEQ A:9B X:02 Y:09 P:27 SP:FB PPU:212
F645  A9 A5     LDA A:9B X:02 Y:09 P:27 SP:FB PPU:221
F647  8D 47 06  STA A:A5 X:02 Y:09 P:A5 SP:FB PPU:227
F64A  A9 48     LDA A:A5 X:02 Y:09 P:A5 SP:FB PPU:239
F64C  85 45     STA A:48 X:02 Y:09 P:25 SP:FB PPU:245
F64E  A9 05     LDA A:48 X:02 Y:09 P:25 SP:FB PPU:254
F650  85 46     STA A:05 X:02 Y:09 P:25 SP:FB PPU:260
F652  A0 FF     LDY A:05 X:02 Y:09 P:25 SP:FB PPU:269
F654  20 E9 FA  JSR A:05 X:02 Y:FF P:A5 SP:FB PPU:275
FAE9  24 01     BIT A:05 X:02 Y:FF P:A5 SP:F9 PPU:293
FAEB  18        CLC A:05 X:02 Y:FF P:E5 SP:F9 PPU:302
FAEC  A9 B2     LDA A:05 X:02 Y:FF P:E4 SP:F9 PPU:308
FAEE  60        RTS A:B2 X:02 Y:FF P:E4 SP:F9 PPU:314
F657  73 45     RRA A:B2 X:02 Y:FF P:E4 SP:FB PPU:332
F659  EA        NOP A:05 X:02 Y:FF P:25 SP:FB PPU: 15
F65A  EA        NOP A:05 X:02 Y:FF P:25 SP:FB PPU: 21
F65B  08        PHP A:05 X:02 Y:FF P:25 SP:FB PPU: 27
F65C  48        PHA A:05 X:02 Y:FF P:25 SP:FA PPU: 36
F65D  A0 0A     LDY A:05 X:02 Y:FF P:25 SP:F9 PPU: 45
F65F  68        PLA A:05 X:02 Y:0A P:25 SP:F9 PPU: 51
F660  28        PLP A:05 X:02 Y:0A P:25 SP:FA PPU: 63
F661  20 EF FA  JSR A:05 X:02 Y:0A P:25 SP:FB PPU: 75
FAEF  70 2A     BVS A:05 X:02 Y:0A P:25 SP:F9 PPU: 93
FAF1  90 28     BCC A:05 X:02 Y:0A P:25 SP:F9 PPU: 99
FAF3  30 26     BMI A:05 X:02 Y:0A P:25 SP:F9 PPU:105
FAF5  C9 05     CMP A:05 X:02 Y:0A P:25 SP:F9 PPU:111
FAF7  D0 22     BNE A:05 X:02 Y:0A P:27 SP:F9 PPU:117
FAF9  60        RTS A:05 X:02 Y:0A P:27 SP:F9 PPU:123
F664  AD 47 06  LDA A:05 X:02 Y:0A P:27 SP:FB PPU:141
F667  C9 52     CMP A:52 X:02 Y:0A P:25 SP:FB PPU:153
F669  F0 02     BEQ A:52 X:02 Y:0A P:27 SP:FB PPU:159
F66D  A0 FF     LDY A:52 X:02 Y:0A P:27 SP:FB PPU:168
F66F  A9 29     LDA A:52 X:02 Y:FF P:A5 SP:FB PPU:174
F671  8D 47 06  STA A:29 X:02 Y:FF P:25 SP:FB PPU:180
F674  20 FA FA  JSR A:29 X:02 Y:FF P:25 SP:FB PPU:192
FAFA  B8        CLV A:29 X:02 Y:FF P:25 SP:F9 PPU:210
FAFB  18        CLC A:29 X:02 Y:FF P:25 SP:F9 PPU:216
FAFC  A9 42     LDA A:29 X:02 Y:FF P:24 SP:F9 PPU:222
FAFE  60        RTS A:42 X:02 Y:FF P:24 SP:F9 PPU:228
F677  73 45     RRA A:42 X:02 Y:FF P:24 SP:FB PPU:246
F679  EA        NOP A:57 X:02 Y:FF P:24 SP:FB PPU:270
F67A  EA        NOP A:57 X:02 Y:FF P:24 SP:FB PPU:276
F67B  08        PHP A:57 X:02 Y:FF P:24 SP:FB PPU:282
F67C  48        PHA A:57 X:02 Y:FF P:24 SP:FA PPU:291
F67D  A0 0B     LDY A:57 X:02 Y:FF P:24 SP:F9 PPU:300
F67F  68        PLA A:57 X:02 Y:0B P:24 SP:F9 PPU:306
F680  28        PLP A:57 X:02 Y:0B P:24 SP:FA PPU:318
F681  20 FF FA  JSR A:57 X:02 Y:0B P:24 SP:FB PPU:330
FAFF  70 1A     BVS A:57 X:02 Y:0B P:24 SP:F9 PPU:  7
FB01  30 18     BMI A:57 X:02 Y:0B P:24 SP:F9 PPU: 13
FB03  B0 16     BCS A:57 X:02 Y:0B P:24 SP:F9 PPU: 19
FB05  C9 57     CMP A:57 X:02 Y:0B P:24 SP:F9 PPU: 25
FB07  D0 12     BNE A:57 X:02 Y:0B P:27 SP:F9 PPU: 31
FB09  60        RTS A:57 X:02 Y:0B P:27 SP:F9 PPU: 37
F684  AD 47 06  LDA A:57 X:02 Y:0B P:27 SP:FB PPU: 55
F687  C9 14     CMP A:14 X:02 Y:0B P:25 SP:FB PPU: 67
F689  F0 02     BEQ A:14 X:02 Y:0B P:27 SP:FB PPU: 73
F68D  A0 FF     LDY A:14 X:02 Y:0B P:27 SP:FB PPU: 82
F68F  A9 37     LDA A:14 X:02 Y:FF P:A5 SP:FB PPU: 88
F691  8D 47 06  STA A:37 X:02 Y:FF P:25 SP:FB PPU: 94
F694  20 0A FB  JSR A:37 X:02 Y:FF P:25 SP:FB PPU:106
FB0A  24 01     BIT A:37 X:02 Y:FF P:25 SP:F9 PPU:124
FB0C  38        SEC A:37 X:02 Y:FF P:E5 SP:F9 PPU:133
FB0D  A9 75     LDA A:37 X:02 Y:FF P:E5 SP:F9 PPU:139
FB0F  60        RTS A:75 X:02 Y:FF P:65 SP:F9 PPU:145
F697  73 45     RRA A:75 X:02 Y:FF P:65 SP:FB PPU:163
F699  EA        NOP A:11 X:02 Y:FF P:25 SP:FB PPU:187
F69A  EA        NOP A:11 X:02 Y:FF P:25 SP:FB PPU:193
F69B  08        PHP A:11 X:02 Y:FF P:25 SP:FB PPU:199
F69C  48        PHA A:11 X:02 Y:FF P:25 SP:FA PPU:208
F69D  A0 0C     LDY A:11 X:02 Y:FF P:25 SP:F9 PPU:217
F69F  68        PLA A:11 X:02 Y:0C P:25 SP:F9 PPU:223
F6A0  28        PLP A:11 X:02 Y:0C P:25 SP:FA PPU:235
F6A1  20 10 FB  JSR A:11 X:02 Y:0C P:25 SP:FB PPU:247
FB10  70 09     BVS A:11 X:02 Y:0C P:25 SP:F9 PPU:265
FB12  30 07     BMI A:11 X:02 Y:0C P:25 SP:F9 PPU:271
FB14  90 05     BCC A:11 X:02 Y:0C P:25 SP:F9 PPU:277
FB16  C9 11     CMP A:11 X:02 Y:0C P:25 SP:F9 PPU:283
FB18  D0 01     BNE A:11 X:02 Y:0C P:27 SP:F9 PPU:289
FB1A  60        RTS A:11 X:02 Y:0C P:27 SP:F9 PPU:295
F6A4  AD 47 06  LDA A:11 X:02 Y:0C P:27 SP:FB PPU:313
F6A7  C9 9B     CMP A:9B X:02 Y:0C P:A5 SP:FB PPU:325
F6A9  F0 02     BEQ A:9B X:02 Y:0C P:27 SP:FB PPU:331
F6AD  A0 0D     LDY A:9B X:02 Y:0C P:27 SP:FB PPU:340
F6AF  A2 FF     LDX A:9B X:02 Y:0D P:25 SP:FB PPU:  5
F6B1  A9 A5     LDA A:9B X:FF Y:0D P:A5 SP:FB PPU: 11
F6B3  85 47     STA A:A5 X:FF Y:0D P:A5 SP:FB PPU: 17
F6B5  20 E9 FA  JSR A:A5 X:FF Y:0D P:A5 SP:FB PPU: 26
FAE9  24 01     BIT A:A5 X:FF Y:0D P:A5 SP:F9 PPU: 44
FAEB  18        CLC A:A5 X:FF Y:0D P:E5 SP:F9 PPU: 53
FAEC  A9 B2     LDA A:A5 X:FF Y:0D P:E4 SP:F9 PPU: 59
FAEE  60        RTS A:B2 X:FF Y:0D P:E4 SP:F9 PPU: 65
F6B8  77 48     RRA A:B2 X:FF Y:0D P:E4 SP:FB PPU: 83
F6BA  EA        NOP A:05 X:FF Y:0D P:25 SP:FB PPU:101
F6BB  EA        NOP A:05 X:FF Y:0D P:25 SP:FB PPU:107
F6BC  EA        NOP A:05 X:FF Y:0D P:25 SP:FB PPU:113
F6BD  EA        NOP A:05 X:FF Y:0D P:25 SP:FB PPU:119
F6BE  20 EF FA  JSR A:05 X:FF Y:0D P:25 SP:FB PPU:125
FAEF  70 2A     BVS A:05 X:FF Y:0D P:25 SP:F9 PPU:143
FAF1  90 28     BCC A:05 X:FF Y:0D P:25 SP:F9 PPU:149
FAF3  30 26     BMI A:05 X:FF Y:0D P:25 SP:F9 PPU:155
FAF5  C9 05     CMP A:05 X:FF Y:0D P:25 SP:F9 PPU:161
FAF7  D0 22     BNE A:05 X:FF Y:0D P:27 SP:F9 PPU:167
FAF9  60        RTS A:05 X:FF Y:0D P:27 SP:F9 PPU:173
F6C1  A5 47     LDA A:05 X:FF Y:0D P:27 SP:FB PPU:191
F6C3  C9 52     CMP A:52 X:FF Y:0D P:25 SP:FB PPU:200
F6C5  F0 02     BEQ A:52 X:FF Y:0D P:27 SP:FB PPU:206
F6C9  C8        INY A:52 X:FF Y:0D P:27 SP:FB PPU:215
F6CA  A9 29     LDA A:52 X:FF Y:0E P:25 SP:FB PPU:221
F6CC  85 47     STA A:29 X:FF Y:0E P:25 SP:FB PPU:227
F6CE  20 FA FA  JSR A:29 X:FF Y:0E P:25 SP:FB PPU:236
FAFA  B8        CLV A:29 X:FF Y:0E P:25 SP:F9 PPU:254
FAFB  18        CLC A:29 X:FF Y:0E P:25 SP:F9 PPU:260
FAFC  A9 42     LDA A:29 X:FF Y:0E P:24 SP:F9 PPU:266
FAFE  60        RTS A:42 X:FF Y:0E P:24 SP:F9 PPU:272
F6D1  77 48     RRA A:42 X:FF Y:0E P:24 SP:FB PPU:290
F6D3  EA        NOP A:57 X:FF Y:0E P:24 SP:FB PPU:308
F6D4  EA        NOP A:57 X:FF Y:0E P:24 SP:FB PPU:314
F6D5  EA        NOP A:57 X:FF Y:0E P:24 SP:FB PPU:320
F6D6  EA        NOP A:57 X:FF Y:0E P:24 SP:FB PPU:326
F6D7  20 FF FA  JSR A:57 X:FF Y:0E P:24 SP:FB PPU:332
FAFF  70 1A     BVS A:57 X:FF Y:0E P:24 SP:F9 PPU:  9
FB01  30 18     BMI A:57 X:FF Y:0E P:24 SP:F9 PPU: 15
FB03  B0 16     BCS A:57 X:FF Y:0E P:24 SP:F9 PPU: 21
FB05  C9 57     CMP A:57 X:FF Y:0E P:24 SP:F9 PPU: 27
FB07  D0 12     BNE A:57 X:FF Y:0E P:27 SP:F9 PPU: 33
FB09  60        RTS A:57 X:FF Y:0E P:27 SP:F9 PPU: 39
F6DA  A5 47     LDA A:57 X:FF Y:0E P:27 SP:FB PPU: 57
F6DC  C9 14     CMP A:14 X:FF Y:0E P:25 SP:FB PPU: 66
F6DE  F0 02     BEQ A:14 X:FF Y:0E P:27 SP:FB PPU: 72
F6E2  C8        INY A:14 X:FF Y:0E P:27 SP:FB PPU: 81
F6E3  A9 37     LDA A:14 X:FF Y:0F P:25 SP:FB PPU: 87
F6E5  85 47     STA A:37 X:FF Y:0F P:25 SP:FB PPU: 93
F6E7  20 0A FB  JSR A:37 X:FF Y:0F P:25 SP:FB PPU:102
FB0A  24 01     BIT A:37 X:FF Y:0F P:25 SP:F9 PPU:120
FB0C  38        SEC A:37 X:FF Y:0F P:E5 SP:F9 PPU:129
FB0D  A9 75     LDA A:37 X:FF Y:0F P:E5 SP:F9 PPU:135
FB0F  60        RTS A:75 X:FF Y:0F P:65 SP:F9 PPU:141
F6EA  77 48     RRA A:75 X:FF Y:0F P:65 SP:FB PPU:159
F6EC  EA        NOP A:11 X:FF Y:0F P:25 SP:FB PPU:177
F6ED  EA        NOP A:11 X:FF Y:0F P:25 SP:FB PPU:183
F6EE  EA        NOP A:11 X:FF Y:0F P:25 SP:FB PPU:189
F6EF  EA        NOP A:11 X:FF Y:0F P:25 SP:FB PPU:195
F6F0  20 10 FB  JSR A:11 X:FF Y:0F P:25 SP:FB PPU:201
FB10  70 09     BVS A:11 X:FF Y:0F P:25 SP:F9 PPU:219
FB12  30 07     BMI A:11 X:FF Y:0F P:25 SP:F9 PPU:225
FB14  90 05     BCC A:11 X:FF Y:0F P:25 SP:F9 PPU:231
FB16  C9 11     CMP A:11 X:FF Y:0F P:25 SP:F9 PPU:237
FB18  D0 01     BNE A:11 X:FF Y:0F P:27 SP:F9 PPU:243
FB1A  60        RTS A:11 X:FF Y:0F P:27 SP:F9 PPU:249
F6F3  A5 47     LDA A:11 X:FF Y:0F P:27 SP:FB PPU:267
F6F5  C9 9B     CMP A:9B X:FF Y:0F P:A5 SP:FB PPU:276
F6F7  F0 02     BEQ A:9B X:FF Y:0F P:27 SP:FB PPU:282
F6FB  A9 A5     LDA A:9B X:FF Y:0F P:27 SP:FB PPU:291
F6FD  8D 47 06  STA A:A5 X:FF Y:0F P:A5 SP:FB PPU:297
F700  A0 FF     LDY A:A5 X:FF Y:0F P:A5 SP:FB PPU:309
F702  20 E9 FA  JSR A:A5 X:FF Y:FF P:A5 SP:FB PPU:315
FAE9  24 01     BIT A:A5 X:FF Y:FF P:A5 SP:F9 PPU:333
FAEB  18        CLC A:A5 X:FF Y:FF P:E5 SP:F9 PPU:  1
FAEC  A9 B2     LDA A:A5 X:FF Y:FF P:E4 SP:F9 PPU:  7
FAEE  60        RTS A:B2 X:FF Y:FF P:E4 SP:F9 PPU: 13
F705  7B 48 05  RRA A:B2 X:FF Y:FF P:E4 SP:FB PPU: 31
F708  EA        NOP A:05 X:FF Y:FF P:25 SP:FB PPU: 52
F709  EA        NOP A:05 X:FF Y:FF P:25 SP:FB PPU: 58
F70A  08        PHP A:05 X:FF Y:FF P:25 SP:FB PPU: 64
F70B  48        PHA A:05 X:FF Y:FF P:25 SP:FA PPU: 73
F70C  A0 10     LDY A:05 X:FF Y:FF P:25 SP:F9 PPU: 82
F70E  68        PLA A:05 X:FF Y:10 P:25 SP:F9 PPU: 88
F70F  28        PLP A:05 X:FF Y:10 P:25 SP:FA PPU:100
F710  20 EF FA  JSR A:05 X:FF Y:10 P:25 SP:FB PPU:112
FAEF  70 2A     BVS A:05 X:FF Y:10 P:25 SP:F9 PPU:130
FAF1  90 28     BCC A:05 X:FF Y:10 P:25 SP:F9 PPU:136
FAF3  30 26     BMI A:05 X:FF Y:10 P:25 SP:F9 PPU:142
FAF5  C9 05     CMP A:05 X:FF Y:10 P:25 SP:F9 PPU:148
FAF7  D0 22     BNE A:05 X:FF Y:10 P:27 SP:F9 PPU:154
FAF9  60        RTS A:05 X:FF Y:10 P:27 SP:F9 PPU:160
F713  AD 47 06  LDA A:05 X:FF Y:10 P:27 SP:FB PPU:178
F716  C9 52     CMP A:52 X:FF Y:10 P:25 SP:FB PPU:190
F718  F0 02     BEQ A:52 X:FF Y:10 P:27 SP:FB PPU:196
F71C  A0 FF     LDY A:52 X:FF Y:10 P:27 SP:FB PPU:205
F71E  A9 29     LDA A:52 X:FF Y:FF P:A5 SP:FB PPU:211
F720  8D 47 06  STA A:29 X:FF Y:FF P:25 SP:FB PPU:217
F723  20 FA FA  JSR A:29 X:FF Y:FF P:25 SP:FB PPU:229
FAFA  B8        CLV A:29 X:FF Y:FF P:25 SP:F9 PPU:247
FAFB  18        CLC A:29 X:FF Y:FF P:25 SP:F9 PPU:253
FAFC  A9 42     LDA A:29 X:FF Y:FF P:24 SP:F9 PPU:259
FAFE  60        RTS A:42 X:FF Y:FF P:24 SP:F9 PPU:265
F726  7B 48 05  RRA A:42 X:FF Y:FF P:24 SP:FB PPU:283
F729  EA        NOP A:57 X:FF Y:FF P:24 SP:FB PPU:304
F72A  EA        NOP A:57 X:FF Y:FF P:24 SP:FB PPU:310
F72B  08        PHP A:57 X:FF Y:FF P:24 SP:FB PPU:316
F72C  48        PHA A:57 X:FF Y:FF P:24 SP:FA PPU:325
F72D  A0 11     LDY A:57 X:FF Y:FF P:24 SP:F9 PPU:334
F72F  68        PLA A:57 X:FF Y:11 P:24 SP:F9 PPU:340
F730  28        PLP A:57 X:FF Y:11 P:24 SP:FA PPU: 11
F731  20 FF FA  JSR A:57 X:FF Y:11 P:24 SP:FB PPU: 23
FAFF  70 1A     BVS A:57 X:FF Y:11 P:24 SP:F9 PPU: 41
FB01  30 18     BMI A:57 X:FF Y:11 P:24 SP:F9 PPU: 47
FB03  B0 16     BCS A:57 X:FF Y:11 P:24 SP:F9 PPU: 53
FB05  C9 57     CMP A:57 X:FF Y:11 P:24 SP:F9 PPU: 59
FB07  D0 12     BNE A:57 X:FF Y:11 P:27 SP:F9 PPU: 65
FB09  60        RTS A:57 X:FF Y:11 P:27 SP:F9 PPU: 71
F734  AD 47 06  LDA A:57 X:FF Y:11 P:27 SP:FB PPU: 89
F737  C9 14     CMP A:14 X:FF Y:11 P:25 SP:FB PPU:101
F739  F0 02     BEQ A:14 X:FF Y:11 P:27 SP:FB PPU:107
F73D  A0 FF     LDY A:14 X:FF Y:11 P:27 SP:FB PPU:116
F73F  A9 37     LDA A:14 X:FF Y:FF P:A5 SP:FB PPU:122
F741  8D 47 06  STA A:37 X:FF Y:FF P:25 SP:FB PPU:128
F744  20 0A FB  JSR A:37 X:FF Y:FF P:25 SP:FB PPU:140
FB0A  24 01     BIT A:37 X:FF Y:FF P:25 SP:F9 PPU:158
FB0C  38        SEC A:37 X:FF Y:FF P:E5 SP:F9 PPU:167
FB0D  A9 75     LDA A:37 X:FF Y:FF P:E5 SP:F9 PPU:173
FB0F  60        RTS A:75 X:FF Y:FF P:65 SP:F9 PPU:179
F747  7B 48 05  RRA A:75 X:FF Y:FF P:65 SP:FB PPU:197
F74A  EA        NOP A:11 X:FF Y:FF P:25 SP:FB PPU:218
F74B  EA        NOP A:11 X:FF Y:FF P:25 SP:FB PPU:224
F74C  08        PHP A:11 X:FF Y:FF P:25 SP:FB PPU:230
F74D  48        PHA A:11 X:FF Y:FF P:25 SP:FA PPU:239
F74E  A0 12     LDY A:11 X:FF Y:FF P:25 SP:F9 PPU:248
F750  68        PLA A:11 X:FF Y:12 P:25 SP:F9 PPU:254
F751  28        PLP A:11 X:FF Y:12 P:25 SP:FA PPU:266
F752  20 10 FB  JSR A:11 X:FF Y:12 P:25 SP:FB PPU:278
FB10  70 09     BVS A:11 X:FF Y:12 P:25 SP:F9 PPU:296
FB12  30 07     BMI A:11 X:FF Y:12 P:25 SP:F9 PPU:302
FB14  90 05     BCC A:11 X:FF Y:12 P:25 SP:F9 PPU:308
FB16  C9 11     CMP A:11 X:FF Y:12 P:25 SP:F9 PPU:314
FB18  D0 01     BNE A:11 X:FF Y:12 P:27 SP:F9 PPU:320
FB1A  60        RTS A:11 X:FF Y:12 P:27 SP:F9 PPU:326
F755  AD 47 06  LDA A:11 X:FF Y:12 P:27 SP:FB PPU:  3
F758  C9 9B     CMP A:9B X:FF Y:12 P:A5 SP:FB PPU: 15
F75A  F0 02     BEQ A:9B X:FF Y:12 P:27 SP:FB PPU: 21
F75E  A0 13     LDY A:9B X:FF Y:12 P:27 SP:FB PPU: 30
F760  A2 FF     LDX A:9B X:FF Y:13 P:25 SP:FB PPU: 36
F762  A9 A5     LDA A:9B X:FF Y:13 P:A5 SP:FB PPU: 42
F764  8D 47 06  STA A:A5 X:FF Y:13 P:A5 SP:FB PPU: 48
F767  20 E9 FA  JSR A:A5 X:FF Y:13 P:A5 SP:FB PPU: 60
FAE9  24 01     BIT A:A5 X:FF Y:13 P:A5 SP:F9 PPU: 78
FAEB  18        CLC A:A5 X:FF Y:13 P:E5 SP:F9 PPU: 87
FAEC  A9 B2     LDA A:A5 X:FF Y:13 P:E4 SP:F9 PPU: 93
FAEE  60        RTS A:B2 X:FF Y:13 P:E4 SP:F9 PPU: 99
F76A  7F 48 05  RRA A:B2 X:FF Y:13 P:E4 SP:FB PPU:117
F76D  EA        NOP A:05 X:FF Y:13 P:25 SP:FB PPU:138
F76E  EA        NOP A:05 X:FF Y:13 P:25 SP:FB PPU:144
F76F  EA        NOP A:05 X:FF Y:13 P:25 SP:FB PPU:150
F770  EA        NOP A:05 X:FF Y:13 P:25 SP:FB PPU:156
F771  20 EF FA  JSR A:05 X:FF Y:13 P:25 SP:FB PPU:162
FAEF  70 2A     BVS A:05 X:FF Y:13 P:25 SP:F9 PPU:180
FAF1  90 28     BCC A:05 X:FF Y:13 P:25 SP:F9 PPU:186
FAF3  30 26     BMI A:05 X:FF Y:13 P:25 SP:F9 PPU:192
FAF5  C9 05     CMP A:05 X:FF Y:13 P:25 SP:F9 PPU:198
FAF7  D0 22     BNE A:05 X:FF Y:13 P:27 SP:F9 PPU:204
FAF9  60        RTS A:05 X:FF Y:13 P:27 SP:F9 PPU:210
F774  AD 47 06  LDA A:05 X:FF Y:13 P:27 SP:FB PPU:228
F777  C9 52     CMP A:52 X:FF Y:13 P:25 SP:FB PPU:240
F779  F0 02     BEQ A:52 X:FF Y:13 P:27 SP:FB PPU:246
F77D  C8        INY A:52 X:FF Y:13 P:27 SP:FB PPU:255
F77E  A9 29     LDA A:52 X:FF Y:14 P:25 SP:FB PPU:261
F780  8D 47 06  STA A:29 X:FF Y:14 P:25 SP:FB PPU:267
F783  20 FA FA  JSR A:29 X:FF Y:14 P:25 SP:FB PPU:279
FAFA  B8        CLV A:29 X:FF Y:14 P:25 SP:F9 PPU:297
FAFB  18        CLC A:29 X:FF Y:14 P:25 SP:F9 PPU:303
FAFC  A9 42     LDA A:29 X:FF Y:14 P:24 SP:F9 PPU:309
FAFE  60        RTS A:42 X:FF Y:14 P:24 SP:F9 PPU:315
F786  7F 48 05  RRA A:42 X:FF Y:14 P:24 SP:FB PPU:333
F789  EA        NOP A:57 X:FF Y:14 P:24 SP:FB PPU: 13
F78A  EA        NOP A:57 X:FF Y:14 P:24 SP:FB PPU: 19
F78B  EA        NOP A:57 X:FF Y:14 P:24 SP:FB PPU: 25
F78C  EA        NOP A:57 X:FF Y:14 P:24 SP:FB PPU: 31
F78D  20 FF FA  JSR A:57 X:FF Y:14 P:24 SP:FB PPU: 37
FAFF  70 1A     BVS A:57 X:FF Y:14 P:24 SP:F9 PPU: 55
FB01  30 18     BMI A:57 X:FF Y:14 P:24 SP:F9 PPU: 61
FB03  B0 16     BCS A:57 X:FF Y:14 P:24 SP:F9 PPU: 67
FB05  C9 57     CMP A:57 X:FF Y:14 P:24 SP:F9 PPU: 73
FB07  D0 12     BNE A:57 X:FF Y:14 P:27 SP:F9 PPU: 79
FB09  60        RTS A:57 X:FF Y:14 P:27 SP:F9 PPU: 85
F790  AD 47 06  LDA A:57 X:FF Y:14 P:27 SP:FB PPU:103
F793  C9 14     CMP A:14 X:FF Y:14 P:25 SP:FB PPU:115
F795  F0 02     BEQ A:14 X:FF Y:14 P:27 SP:FB PPU:121
F799  C8        INY A:14 X:FF Y:14 P:27 SP:FB PPU:130
F79A  A9 37     LDA A:14 X:FF Y:15 P:25 SP:FB PPU:136
F79C  8D 47 06  STA A:37 X:FF Y:15 P:25 SP:FB PPU:142
F79F  20 0A FB  JSR A:37 X:FF Y:15 P:25 SP:FB PPU:154
FB0A  24 01     BIT A:37 X:FF Y:15 P:25 SP:F9 PPU:172
FB0C  38        SEC A:37 X:FF Y:15 P:E5 SP:F9 PPU:181
FB0D  A9 75     LDA A:37 X:FF Y:15 P:E5 SP:F9 PPU:187
FB0F  60        RTS A:75 X:FF Y:15 P:65 SP:F9 PPU:193
F7A2  7F 48 05  RRA A:75 X:FF Y:15 P:65 SP:FB PPU:211
F7A5  EA        NOP A:11 X:FF Y:15 P:25 SP:FB PPU:232
F7A6  EA        NOP A:11 X:FF Y:15 P:25 SP:FB PPU:238
F7A7  EA        NOP A:11 X:FF Y:15 P:25 SP:FB PPU:244
F7A8  EA        NOP A:11 X:FF Y:15 P:25 SP:FB PPU:250
F7A9  20 10 FB  JSR A:11 X:FF Y:15 P:25 SP:FB PPU:256
FB10  70 09     BVS A:11 X:FF Y:15 P:25 SP:F9 PPU:274
FB12  30 07     BMI A:11 X:FF Y:15 P:25 SP:F9 PPU:280
FB14  90 05     BCC A:11 X:FF Y:15 P:25 SP:F9 PPU:286
FB16  C9 11     CMP A:11 X:FF Y:15 P:25 SP:F9 PPU:292
FB18  D0 01     BNE A:11 X:FF Y:15 P:27 SP:F9 PPU:298
FB1A  60        RTS A:11 X:FF Y:15 P:27 SP:F9 PPU:304
F7AC  AD 47 06  LDA A:11 X:FF Y:15 P:27 SP:FB PPU:322
F7AF  C9 9B     CMP A:9B X:FF Y:15 P:A5 SP:FB PPU:334
F7B1  F0 02     BEQ A:9B X:FF Y:15 P:27 SP:FB PPU:340
F7B5  60        RTS A:9B X:FF Y:15 P:27 SP:FB PPU:  8
C655  A5 00     LDA A:9B X:FF Y:15 P:27 SP:FD PPU: 26
C657  05 10     ORA A:00 X:FF Y:15 P:27 SP:FD PPU: 35
C659  05 11     ORA A:00 X:FF Y:15 P:27 SP:FD PPU: 44
C65B  F0 0E     BEQ A:00 X:FF Y:15 P:27 SP:FD PPU: 53
C66B  20 89 C6  JSR A:00 X:FF Y:15 P:27 SP:FD PPU: 62
C689  A9 02     LDA A:00 X:FF Y:15 P:27 SP:FB PPU: 80
C68B  8D 15 40  STA A:02 X:FF Y:15 P:25 SP:FB PPU: 86
C68E  A9 3F     LDA A:02 X:FF Y:15 P:25 SP:FB PPU: 98
C690  8D 04 40  STA A:3F X:FF Y:15 P:25 SP:FB PPU:104
C693  A9 9A     LDA A:3F X:FF Y:15 P:25 SP:FB PPU:116
C695  8D 05 40  STA A:9A X:FF Y:15 P:A5 SP:FB PPU:122
C698  A9 FF     LDA A:9A X:FF Y:15 P:A5 SP:FB PPU:134
C69A  8D 06 40  STA A:FF X:FF Y:15 P:A5 SP:FB PPU:140
C69D  A9 00     LDA A:FF X:FF Y:15 P:A5 SP:FB PPU:152
C69F  8D 07 40  STA A:00 X:FF Y:15 P:27 SP:FB PPU:158
C6A2  60        RTS A:00 X:FF Y:15 P:27 SP:FB PPU:170
C66E  60        RTS A:00 X:FF Y:15 P:27 SP:FD PPU:188
